 CourseworkBase2020

 Timestamp is 662a8c10 (Thu Apr 25 18:00:00 2024)

 Preferred load address is 00400000

 Start         Length     Name                   Class
 0001:00000000 00009e70H .text$di                CODE
 0001:00009e70 000521e0H .text$mn                CODE
 0001:0005c050 00005fc0H .text$x                 CODE
 0001:00062010 0000105bH .text$yd                CODE
 0002:00000000 00000104H .CRT$XCA                DATA
 0002:00000104 00000104H .CRT$XCAA               DATA
 0002:00000208 00000104H .CRT$XCL                DATA
 0002:0000030c 0000010cH .CRT$XCU                DATA
 0002:00000418 00000104H .CRT$XCZ                DATA
 0002:0000051c 00000104H .CRT$XIA                DATA
 0002:00000620 00000104H .CRT$XIAA               DATA
 0002:00000724 00000104H .CRT$XIAC               DATA
 0002:00000828 00000104H .CRT$XIZ                DATA
 0002:0000092c 00000104H .CRT$XPA                DATA
 0002:00000a30 00000104H .CRT$XPZ                DATA
 0002:00000b34 00000104H .CRT$XTA                DATA
 0002:00000c38 00000108H .CRT$XTZ                DATA
 0002:00000d40 0000ad80H .rdata                  DATA
 0002:0000bac0 00000104H .rdata$CastGuardVftablesA DATA
 0002:0000bbc4 00000104H .rdata$CastGuardVftablesC DATA
 0002:0000bcc8 00001d80H .rdata$r                DATA
 0002:0000da48 000006a0H .rdata$sxdata           DATA
 0002:0000e0e8 0000019cH .rdata$zzzdbg           DATA
 0002:0000e284 00000104H .rtc$IAA                DATA
 0002:0000e388 00000104H .rtc$IZZ                DATA
 0002:0000e48c 00000104H .rtc$TAA                DATA
 0002:0000e590 00000108H .rtc$TZZ                DATA
 0002:0000e698 00004757H .xdata$x                DATA
 0002:00012def 00000000H .edata                  DATA
 0003:00000000 00000148H .data                   DATA
 0003:00000148 00000308H .data$r                 DATA
 0003:00000450 00000c48H .data$rs                DATA
 0003:00001098 0000046cH .bss                    DATA
 0004:00000000 00000504H .idata$5                DATA
 0004:00000504 0000008cH .idata$2                DATA
 0004:00000590 00000014H .idata$3                DATA
 0004:000005a4 00000504H .idata$4                DATA
 0004:00000aa8 00001ef9H .idata$6                DATA
 0005:00000000 00000109H .00cfg                  DATA
 0006:00000000 00000170H .rsrc$01                DATA
 0006:00000170 000002ccH .rsrc$02                DATA

  Address         Publics by Value              Rva+Base       Lib:Object

 0000:00000000       ___arm64x_redirection_metadata_count 00000000     <absolute>
 0000:00000000       ___arm64x_native_entrypoint 00000000     <absolute>
 0000:00000000       ___guard_iat_count         00000000     <absolute>
 0000:00000000       ___enclave_config          00000000     <absolute>
 0000:00000000       ___hybrid_code_map         00000000     <absolute>
 0000:00000000       ___guard_longjmp_count     00000000     <absolute>
 0000:00000000       ___guard_iat_table         00000000     <absolute>
 0000:00000000       ___hybrid_code_map_count   00000000     <absolute>
 0000:00000000       ___x64_code_ranges_to_entry_points_count 00000000     <absolute>
 0000:00000000       ___volatile_metadata       00000000     <absolute>
 0000:00000000       ___guard_eh_cont_count     00000000     <absolute>
 0000:00000000       ___arm64x_extra_rfe_table_size 00000000     <absolute>
 0000:00000000       ___arm64x_extra_rfe_table  00000000     <absolute>
 0000:00000000       ___x64_code_ranges_to_entry_points 00000000     <absolute>
 0000:00000000       ___AbsoluteZero            00000000     <absolute>
 0000:00000000       ___guard_longjmp_table     00000000     <absolute>
 0000:00000000       ___guard_check_icall_a64n_fptr 00000000     <absolute>
 0000:00000000       ___guard_fids_table        00000000     <absolute>
 0000:00000000       ___arm64x_redirection_metadata 00000000     <absolute>
 0000:00000000       ___hybrid_auxiliary_iat    00000000     <absolute>
 0000:00000000       ___guard_fids_count        00000000     <absolute>
 0000:00000000       ___dynamic_value_reloc_table 00000000     <absolute>
 0000:00000000       ___hybrid_auxiliary_iat_copy 00000000     <absolute>
 0000:00000000       ___guard_eh_cont_table     00000000     <absolute>
 0000:00000100       ___guard_flags             00000100     <absolute>
 0000:0000012c       ___safe_se_handler_count   0000012c     <absolute>
 0000:00000000       ___ImageBase               00400000     <linker-defined>
 0001:00009e70       ?isPassable@Graph@@QBE_NUPoint@@@Z 0040ae70 f   AStar.obj
 0001:00009ee0       ?getNeighbors@Graph@@QBE?AV?$vector@UPoint@@V?$allocator@UPoint@@@std@@@std@@UPoint@@@Z 0040aee0 f   AStar.obj
 0001:0000a0a0       ?cost@Graph@@QBENUPoint@@0@Z 0040b0a0 f   AStar.obj
 0001:0000a0d0       ?getData@Graph@@QAEXXZ     0040b0d0 f   AStar.obj
 0001:0000a160       ?reconstruct_path@AStar@@QAE?AV?$vector@UPoint@@V?$allocator@UPoint@@@std@@@std@@UPoint@@0V?$unordered_map@UPoint@@U1@U?$hash@UPoint@@@std@@U?$equal_to@UPoint@@@3@V?$allocator@U?$pair@$$CBUPoint@@U1@@std@@@3@@3@@Z 0040b160 f   AStar.obj
 0001:0000a2b0       ?a_star_search@AStar@@QAE?AU?$pair@HH@std@@AAVGraph@@UPoint@@111@Z 0040b2b0 f   AStar.obj
 0001:0000abb0       ??$?0$$V@?$_Compressed_pair@V?$allocator@UNode@@@std@@V?$_Vector_val@U?$_Simple_types@UNode@@@std@@@2@$00@std@@QAE@U_Zero_then_variadic_args_t@1@@Z 0040bbb0 f i AStar.obj
 0001:0000abe0       ??$?0$$V@?$_Compressed_pair@V?$allocator@UPoint@@@std@@V?$_Vector_val@U?$_Simple_types@UPoint@@@std@@@2@$00@std@@QAE@U_Zero_then_variadic_args_t@1@@Z 0040bbe0 f i AStar.obj
 0001:0000ac10       ??$?0AAPAU?$_List_node@U?$pair@$$CBUPoint@@N@std@@PAX@std@@_N$0A@@?$pair@PAU?$_List_node@U?$pair@$$CBUPoint@@N@std@@PAX@std@@_N@std@@QAE@AAPAU?$_List_node@U?$pair@$$CBUPoint@@N@std@@PAX@1@$$QA_N@Z 0040bc10 f i AStar.obj
 0001:0000ac60       ??$?0AAPAU?$_List_node@U?$pair@$$CBUPoint@@U1@@std@@PAX@std@@_N$0A@@?$pair@PAU?$_List_node@U?$pair@$$CBUPoint@@U1@@std@@PAX@std@@_N@std@@QAE@AAPAU?$_List_node@U?$pair@$$CBUPoint@@U1@@std@@PAX@1@$$QA_N@Z 0040bc60 f i AStar.obj
 0001:0000acb0       ??$?0ABU?$pair@$$CBUPoint@@U1@@std@@@?$_List_node_emplace_op2@V?$allocator@U?$_List_node@U?$pair@$$CBUPoint@@U1@@std@@PAX@std@@@std@@@std@@QAE@AAV?$allocator@U?$_List_node@U?$pair@$$CBUPoint@@U1@@std@@PAX@std@@@1@ABU?$pair@$$CBUPoint@@U1@@1@@Z 0040bcb0 f i AStar.obj
 0001:0000ad60       ??$?0ABUPoint@@$$Z$$V@?$pair@$$CBUPoint@@N@std@@QAE@Upiecewise_construct_t@1@V?$tuple@ABUPoint@@@1@V?$tuple@$$V@1@@Z 0040bd60 f i AStar.obj
 0001:0000adb0       ??$?0ABUPoint@@$$Z$$V@?$pair@$$CBUPoint@@U1@@std@@QAE@Upiecewise_construct_t@1@V?$tuple@ABUPoint@@@1@V?$tuple@$$V@1@@Z 0040bdb0 f i AStar.obj
 0001:0000ae00       ??$?0ABUPoint@@$0A@@?$tuple@ABUPoint@@@std@@QAE@ABUPoint@@@Z 0040be00 f i AStar.obj
 0001:0000ae70       ??$?0ABUPoint@@@?$_Tuple_val@ABUPoint@@@std@@QAE@ABUPoint@@@Z 0040be70 f i AStar.obj
 0001:0000aea0       ??$?0ABUpiecewise_construct_t@std@@V?$tuple@ABUPoint@@@1@V?$tuple@$$V@1@@?$_List_node_emplace_op2@V?$allocator@U?$_List_node@U?$pair@$$CBUPoint@@N@std@@PAX@std@@@std@@@std@@QAE@AAV?$allocator@U?$_List_node@U?$pair@$$CBUPoint@@N@std@@PAX@std@@@1@ABUpiecewise_construct_t@1@$$QAV?$tuple@ABUPoint@@@1@$$QAV?$tuple@$$V@1@@Z 0040bea0 f i AStar.obj
 0001:0000af70       ??$?0ABUpiecewise_construct_t@std@@V?$tuple@ABUPoint@@@1@V?$tuple@$$V@1@@?$_List_node_emplace_op2@V?$allocator@U?$_List_node@U?$pair@$$CBUPoint@@U1@@std@@PAX@std@@@std@@@std@@QAE@AAV?$allocator@U?$_List_node@U?$pair@$$CBUPoint@@U1@@std@@PAX@std@@@1@ABUpiecewise_construct_t@1@$$QAV?$tuple@ABUPoint@@@1@$$QAV?$tuple@$$V@1@@Z 0040bf70 f i AStar.obj
 0001:0000b040       ??$?0ABV?$allocator@U?$_List_node@U?$pair@$$CBUPoint@@U1@@std@@PAX@std@@@std@@$$V@?$_Compressed_pair@V?$allocator@V?$_List_unchecked_iterator@V?$_List_val@U?$_List_simple_types@U?$pair@$$CBUPoint@@U1@@std@@@std@@@std@@@std@@@std@@V?$_Vector_val@U?$_Simple_types@V?$_List_unchecked_iterator@V?$_List_val@U?$_List_simple_types@U?$pair@$$CBUPoint@@U1@@std@@@std@@@std@@@std@@@std@@@2@$00@std@@QAE@U_One_then_variadic_args_t@1@ABV?$allocator@U?$_List_node@U?$pair@$$CBUPoint@@U1@@std@@PAX@std@@@1@@Z 0040c040 f i AStar.obj
 0001:0000b080       ??$?0ABV?$allocator@U?$_List_node@U?$pair@$$CBUPoint@@U1@@std@@PAX@std@@@std@@$0A@@?$_Hash_vec@V?$allocator@V?$_List_unchecked_iterator@V?$_List_val@U?$_List_simple_types@U?$pair@$$CBUPoint@@U1@@std@@@std@@@std@@@std@@@std@@@std@@QAE@ABV?$allocator@U?$_List_node@U?$pair@$$CBUPoint@@U1@@std@@PAX@std@@@1@@Z 0040c080 f i AStar.obj
 0001:0000b120       ??$?0ABV?$allocator@U?$pair@$$CBUPoint@@N@std@@@std@@$$V@?$_Compressed_pair@V?$allocator@U?$_List_node@U?$pair@$$CBUPoint@@N@std@@PAX@std@@@std@@V?$_List_val@U?$_List_simple_types@U?$pair@$$CBUPoint@@N@std@@@std@@@2@$00@std@@QAE@U_One_then_variadic_args_t@1@ABV?$allocator@U?$pair@$$CBUPoint@@N@std@@@1@@Z 0040c120 f i AStar.obj
 0001:0000b160       ??$?0ABV?$allocator@U?$pair@$$CBUPoint@@N@std@@@std@@$$V@?$_Compressed_pair@V?$allocator@V?$_List_unchecked_iterator@V?$_List_val@U?$_List_simple_types@U?$pair@$$CBUPoint@@N@std@@@std@@@std@@@std@@@std@@V?$_Vector_val@U?$_Simple_types@V?$_List_unchecked_iterator@V?$_List_val@U?$_List_simple_types@U?$pair@$$CBUPoint@@N@std@@@std@@@std@@@std@@@std@@@2@$00@std@@QAE@U_One_then_variadic_args_t@1@ABV?$allocator@U?$pair@$$CBUPoint@@N@std@@@1@@Z 0040c160 f i AStar.obj
 0001:0000b1a0       ??$?0ABV?$allocator@U?$pair@$$CBUPoint@@N@std@@@std@@$0A@@?$_Hash_vec@V?$allocator@V?$_List_unchecked_iterator@V?$_List_val@U?$_List_simple_types@U?$pair@$$CBUPoint@@N@std@@@std@@@std@@@std@@@std@@@std@@QAE@ABV?$allocator@U?$pair@$$CBUPoint@@N@std@@@1@@Z 0040c1a0 f i AStar.obj
 0001:0000b240       ??$?0ABV?$allocator@U?$pair@$$CBUPoint@@U1@@std@@@std@@$$V@?$_Compressed_pair@V?$allocator@U?$_List_node@U?$pair@$$CBUPoint@@U1@@std@@PAX@std@@@std@@V?$_List_val@U?$_List_simple_types@U?$pair@$$CBUPoint@@U1@@std@@@std@@@2@$00@std@@QAE@U_One_then_variadic_args_t@1@ABV?$allocator@U?$pair@$$CBUPoint@@U1@@std@@@1@@Z 0040c240 f i AStar.obj
 0001:0000b280       ??$?0ABV?$allocator@U?$pair@$$CBUPoint@@U1@@std@@@std@@$$V@?$_Compressed_pair@V?$allocator@V?$_List_unchecked_iterator@V?$_List_val@U?$_List_simple_types@U?$pair@$$CBUPoint@@U1@@std@@@std@@@std@@@std@@@std@@V?$_Vector_val@U?$_Simple_types@V?$_List_unchecked_iterator@V?$_List_val@U?$_List_simple_types@U?$pair@$$CBUPoint@@U1@@std@@@std@@@std@@@std@@@std@@@2@$00@std@@QAE@U_One_then_variadic_args_t@1@ABV?$allocator@U?$pair@$$CBUPoint@@U1@@std@@@1@@Z 0040c280 f i AStar.obj
 0001:0000b2c0       ??$?0ABV?$allocator@U?$pair@$$CBUPoint@@U1@@std@@@std@@$0A@@?$_Hash_vec@V?$allocator@V?$_List_unchecked_iterator@V?$_List_val@U?$_List_simple_types@U?$pair@$$CBUPoint@@U1@@std@@@std@@@std@@@std@@@std@@@std@@QAE@ABV?$allocator@U?$pair@$$CBUPoint@@U1@@std@@@1@@Z 0040c2c0 f i AStar.obj
 0001:0000b360       ??$?0HH$0A@@?$pair@HH@std@@QAE@$$QAH0@Z 0040c360 f i AStar.obj
 0001:0000b3b0       ??$?0M@?$_Compressed_pair@U?$equal_to@UPoint@@@std@@M$00@std@@QAE@U_Zero_then_variadic_args_t@1@$$QAM@Z 0040c3b0 f i AStar.obj
 0001:0000b3e0       ??$?0PAU?$_List_node@U?$pair@$$CBUPoint@@N@std@@PAX@std@@_N$0A@@?$pair@PAU?$_List_node@U?$pair@$$CBUPoint@@N@std@@PAX@std@@_N@std@@QAE@$$QAPAU?$_List_node@U?$pair@$$CBUPoint@@N@std@@PAX@1@$$QA_N@Z 0040c3e0 f i AStar.obj
 0001:0000b430       ??$?0PAU?$_List_node@U?$pair@$$CBUPoint@@U1@@std@@PAX@std@@_N$0A@@?$pair@PAU?$_List_node@U?$pair@$$CBUPoint@@U1@@std@@PAX@std@@_N@std@@QAE@$$QAPAU?$_List_node@U?$pair@$$CBUPoint@@U1@@std@@PAX@1@$$QA_N@Z 0040c430 f i AStar.obj
 0001:0000b480       ??$?0U?$_List_node@U?$pair@$$CBUPoint@@N@std@@PAX@std@@@?$allocator@U_Container_proxy@std@@@std@@QAE@ABV?$allocator@U?$_List_node@U?$pair@$$CBUPoint@@N@std@@PAX@std@@@1@@Z 0040c480 f i AStar.obj
 0001:0000b4a0       ??$?0U?$_List_node@U?$pair@$$CBUPoint@@U1@@std@@PAX@std@@@?$allocator@U?$pair@$$CBUPoint@@U1@@std@@@std@@QAE@ABV?$allocator@U?$_List_node@U?$pair@$$CBUPoint@@U1@@std@@PAX@std@@@1@@Z 0040c4a0 f i AStar.obj
 0001:0000b4c0       ??$?0U?$_List_node@U?$pair@$$CBUPoint@@U1@@std@@PAX@std@@@?$allocator@U_Container_proxy@std@@@std@@QAE@ABV?$allocator@U?$_List_node@U?$pair@$$CBUPoint@@U1@@std@@PAX@std@@@1@@Z 0040c4c0 f i AStar.obj
 0001:0000b4e0       ??$?0U?$_List_node@U?$pair@$$CBUPoint@@U1@@std@@PAX@std@@@?$allocator@V?$_List_unchecked_iterator@V?$_List_val@U?$_List_simple_types@U?$pair@$$CBUPoint@@U1@@std@@@std@@@std@@@std@@@std@@QAE@ABV?$allocator@U?$_List_node@U?$pair@$$CBUPoint@@U1@@std@@PAX@std@@@1@@Z 0040c4e0 f i AStar.obj
 0001:0000b500       ??$?0U?$pair@$$CBUPoint@@N@std@@@?$allocator@U?$_List_node@U?$pair@$$CBUPoint@@N@std@@PAX@std@@@std@@QAE@ABV?$allocator@U?$pair@$$CBUPoint@@N@std@@@1@@Z 0040c500 f i AStar.obj
 0001:0000b520       ??$?0U?$pair@$$CBUPoint@@N@std@@@?$allocator@V?$_List_unchecked_iterator@V?$_List_val@U?$_List_simple_types@U?$pair@$$CBUPoint@@N@std@@@std@@@std@@@std@@@std@@QAE@ABV?$allocator@U?$pair@$$CBUPoint@@N@std@@@1@@Z 0040c520 f i AStar.obj
 0001:0000b540       ??$?0U?$pair@$$CBUPoint@@U1@@std@@@?$allocator@U?$_List_node@U?$pair@$$CBUPoint@@U1@@std@@PAX@std@@@std@@QAE@ABV?$allocator@U?$pair@$$CBUPoint@@U1@@std@@@1@@Z 0040c540 f i AStar.obj
 0001:0000b560       ??$?0U?$pair@$$CBUPoint@@U1@@std@@@?$allocator@V?$_List_unchecked_iterator@V?$_List_val@U?$_List_simple_types@U?$pair@$$CBUPoint@@U1@@std@@@std@@@std@@@std@@@std@@QAE@ABV?$allocator@U?$pair@$$CBUPoint@@U1@@std@@@1@@Z 0040c560 f i AStar.obj
 0001:0000b580       ??$?0UNode@@@?$allocator@U_Container_proxy@std@@@std@@QAE@ABV?$allocator@UNode@@@1@@Z 0040c580 f i AStar.obj
 0001:0000b5a0       ??$?0UPoint@@@?$allocator@U_Container_proxy@std@@@std@@QAE@ABV?$allocator@UPoint@@@1@@Z 0040c5a0 f i AStar.obj
 0001:0000b5c0       ??$?0U_Exact_args_t@std@@$0A@@?$tuple@$$V@std@@QAE@U_Exact_args_t@1@@Z 0040c5c0 f i AStar.obj
 0001:0000b5e0       ??$?0U_Exact_args_t@std@@ABUPoint@@$$V$0A@@?$tuple@ABUPoint@@@std@@QAE@U_Exact_args_t@1@ABUPoint@@@Z 0040c5e0 f i AStar.obj
 0001:0000b630       ??$?0U_Zero_then_variadic_args_t@std@@M@?$_Compressed_pair@U?$hash@UPoint@@@std@@V?$_Compressed_pair@U?$equal_to@UPoint@@@std@@M$00@2@$00@std@@QAE@U_Zero_then_variadic_args_t@1@$$QAU21@$$QAM@Z 0040c630 f i AStar.obj
 0001:0000b680       ??$?0V?$_List_iterator@V?$_List_val@U?$_List_simple_types@U?$pair@$$CBUPoint@@U1@@std@@@std@@@std@@@std@@_N$0A@@?$pair@V?$_List_iterator@V?$_List_val@U?$_List_simple_types@U?$pair@$$CBUPoint@@U1@@std@@@std@@@std@@@std@@_N@std@@QAE@$$QAV?$_List_iterator@V?$_List_val@U?$_List_simple_types@U?$pair@$$CBUPoint@@U1@@std@@@std@@@std@@@1@$$QA_N@Z 0040c680 f i AStar.obj
 0001:0000b6d0       ??$?0V?$_List_unchecked_iterator@V?$_List_val@U?$_List_simple_types@U?$pair@$$CBUPoint@@N@std@@@std@@@std@@@std@@@?$allocator@U_Container_proxy@std@@@std@@QAE@ABV?$allocator@V?$_List_unchecked_iterator@V?$_List_val@U?$_List_simple_types@U?$pair@$$CBUPoint@@N@std@@@std@@@std@@@std@@@1@@Z 0040c6d0 f i AStar.obj
 0001:0000b6f0       ??$?0V?$_List_unchecked_iterator@V?$_List_val@U?$_List_simple_types@U?$pair@$$CBUPoint@@U1@@std@@@std@@@std@@@std@@@?$allocator@U_Container_proxy@std@@@std@@QAE@ABV?$allocator@V?$_List_unchecked_iterator@V?$_List_val@U?$_List_simple_types@U?$pair@$$CBUPoint@@U1@@std@@@std@@@std@@@std@@@1@@Z 0040c6f0 f i AStar.obj
 0001:0000b710       ??$?0V?$allocator@U?$_List_node@U?$pair@$$CBUPoint@@U1@@std@@PAX@std@@@std@@@?$_Hash@V?$_Umap_traits@UPoint@@U1@V?$_Uhash_compare@UPoint@@U?$hash@UPoint@@@std@@U?$equal_to@UPoint@@@3@@std@@V?$allocator@U?$pair@$$CBUPoint@@U1@@std@@@3@$0A@@std@@@std@@IAE@ABV01@ABV?$allocator@U?$_List_node@U?$pair@$$CBUPoint@@U1@@std@@PAX@std@@@1@@Z 0040c710 f i AStar.obj
 0001:0000b830       ??$?0V?$allocator@UPoint@@@std@@PAUPoint@@PAU2@PAU2@@?$_Compressed_pair@V?$allocator@UPoint@@@std@@V?$_Vector_val@U?$_Simple_types@UPoint@@@std@@@2@$00@std@@QAE@U_One_then_variadic_args_t@1@$$QAV?$allocator@UPoint@@@1@$$QAPAUPoint@@22@Z 0040c830 f i AStar.obj
 0001:0000b8a0       ??$?0V?$tuple@ABUPoint@@@std@@V?$tuple@$$V@1@$0A@$$Z$S@?$pair@$$CBUPoint@@N@std@@QAE@AAV?$tuple@ABUPoint@@@1@AAV?$tuple@$$V@1@U?$integer_sequence@I$0A@@1@U?$integer_sequence@I$S@1@@Z 0040c8a0 f i AStar.obj
 0001:0000b8f0       ??$?0V?$tuple@ABUPoint@@@std@@V?$tuple@$$V@1@$0A@$$Z$S@?$pair@$$CBUPoint@@U1@@std@@QAE@AAV?$tuple@ABUPoint@@@1@AAV?$tuple@$$V@1@U?$integer_sequence@I$0A@@1@U?$integer_sequence@I$S@1@@Z 0040c8f0 f i AStar.obj
 0001:0000b940       ??$?RUPoint@@@?$_Uhash_compare@UPoint@@U?$hash@UPoint@@@std@@U?$equal_to@UPoint@@@3@@std@@QBEIABUPoint@@@Z 0040c940 f i AStar.obj
 0001:0000b970       ??$?RUPoint@@U0@@?$_Uhash_compare@UPoint@@U?$hash@UPoint@@@std@@U?$equal_to@UPoint@@@3@@std@@QBE_NABUPoint@@0@Z 0040c970 f i AStar.obj
 0001:0000b9c0       ??$_Adl_verify_range@PAV?$_List_unchecked_iterator@V?$_List_val@U?$_List_simple_types@U?$pair@$$CBUPoint@@N@std@@@std@@@std@@@std@@PAV12@@std@@YAXABQAV?$_List_unchecked_iterator@V?$_List_val@U?$_List_simple_types@U?$pair@$$CBUPoint@@N@std@@@std@@@std@@@0@0@Z 0040c9c0 f i AStar.obj
 0001:0000b9e0       ??$_Adl_verify_range@PAV?$_List_unchecked_iterator@V?$_List_val@U?$_List_simple_types@U?$pair@$$CBUPoint@@U1@@std@@@std@@@std@@@std@@PAV12@@std@@YAXABQAV?$_List_unchecked_iterator@V?$_List_val@U?$_List_simple_types@U?$pair@$$CBUPoint@@U1@@std@@@std@@@std@@@0@0@Z 0040c9e0 f i AStar.obj
 0001:0000ba00       ??$_Adl_verify_range@V?$_List_unchecked_const_iterator@V?$_List_val@U?$_List_simple_types@U?$pair@$$CBUPoint@@U1@@std@@@std@@@std@@U_Iterator_base0@2@@std@@V12@@std@@YAXABV?$_List_unchecked_const_iterator@V?$_List_val@U?$_List_simple_types@U?$pair@$$CBUPoint@@U1@@std@@@std@@@std@@U_Iterator_base0@2@@0@0@Z 0040ca00 f i AStar.obj
 0001:0000ba10       ??$_Adl_verify_range@V?$_Vector_iterator@V?$_Vector_val@U?$_Simple_types@UNode@@@std@@@std@@@std@@V12@@std@@YAXABV?$_Vector_iterator@V?$_Vector_val@U?$_Simple_types@UNode@@@std@@@std@@@0@0@Z 0040ca10 f i AStar.obj
 0001:0000ba30       ??$_Adl_verify_range@V?$_Vector_iterator@V?$_Vector_val@U?$_Simple_types@UPoint@@@std@@@std@@@std@@V12@@std@@YAXABV?$_Vector_iterator@V?$_Vector_val@U?$_Simple_types@UPoint@@@std@@@std@@@0@0@Z 0040ca30 f i AStar.obj
 0001:0000ba50       ??$_Alloc_proxy@V?$allocator@U_Container_proxy@std@@@std@@@_Container_base12@std@@QAEX$$QAV?$allocator@U_Container_proxy@std@@@1@@Z 0040ca50 f i AStar.obj
 0001:0000bab0       ??$_Allocate@$07U_Default_allocate_traits@std@@$0A@@std@@YAPAXI@Z 0040cab0 f i AStar.obj
 0001:0000baf0       ??$_Allocate_manually_vector_aligned@U_Default_allocate_traits@std@@@std@@YAPAXI@Z 0040caf0 f i AStar.obj
 0001:0000bbe0       ??$_Construct_in_place@PAU?$_List_node@U?$pair@$$CBUPoint@@N@std@@PAX@std@@AAPAU12@@std@@YAXAAPAU?$_List_node@U?$pair@$$CBUPoint@@N@std@@PAX@0@0@Z 0040cbe0 f i AStar.obj
 0001:0000bc30       ??$_Construct_in_place@PAU?$_List_node@U?$pair@$$CBUPoint@@N@std@@PAX@std@@ABQAU12@@std@@YAXAAPAU?$_List_node@U?$pair@$$CBUPoint@@N@std@@PAX@0@ABQAU10@@Z 0040cc30 f i AStar.obj
 0001:0000bc80       ??$_Construct_in_place@PAU?$_List_node@U?$pair@$$CBUPoint@@U1@@std@@PAX@std@@AAPAU12@@std@@YAXAAPAU?$_List_node@U?$pair@$$CBUPoint@@U1@@std@@PAX@0@0@Z 0040cc80 f i AStar.obj
 0001:0000bcd0       ??$_Construct_in_place@PAU?$_List_node@U?$pair@$$CBUPoint@@U1@@std@@PAX@std@@ABQAU12@@std@@YAXAAPAU?$_List_node@U?$pair@$$CBUPoint@@U1@@std@@PAX@0@ABQAU10@@Z 0040ccd0 f i AStar.obj
 0001:0000bd20       ??$_Construct_in_place@U_Container_proxy@std@@PAU_Container_base12@2@@std@@YAXAAU_Container_proxy@0@$$QAPAU_Container_base12@0@@Z 0040cd20 f i AStar.obj
 0001:0000bd80       ??$_Construct_in_place@V?$_List_unchecked_iterator@V?$_List_val@U?$_List_simple_types@U?$pair@$$CBUPoint@@N@std@@@std@@@std@@@std@@ABV12@@std@@YAXAAV?$_List_unchecked_iterator@V?$_List_val@U?$_List_simple_types@U?$pair@$$CBUPoint@@N@std@@@std@@@std@@@0@ABV10@@Z 0040cd80 f i AStar.obj
 0001:0000bdd0       ??$_Construct_in_place@V?$_List_unchecked_iterator@V?$_List_val@U?$_List_simple_types@U?$pair@$$CBUPoint@@U1@@std@@@std@@@std@@@std@@ABV12@@std@@YAXAAV?$_List_unchecked_iterator@V?$_List_val@U?$_List_simple_types@U?$pair@$$CBUPoint@@U1@@std@@@std@@@std@@@0@ABV10@@Z 0040cdd0 f i AStar.obj
 0001:0000be20       ??$_Copy_memmove@PAUNode@@PAU1@@std@@YAPAUNode@@PAU1@00@Z 0040ce20 f i AStar.obj
 0001:0000beb0       ??$_Copy_memmove@PAUPoint@@PAU1@@std@@YAPAUPoint@@PAU1@00@Z 0040ceb0 f i AStar.obj
 0001:0000bf40       ??$_Deallocate@$07$0A@@std@@YAXPAXI@Z 0040cf40 f i AStar.obj
 0001:0000bfc0       ??$_Deallocate_plain@V?$allocator@U_Container_proxy@std@@@std@@@std@@YAXAAV?$allocator@U_Container_proxy@std@@@0@QAU_Container_proxy@0@@Z 0040cfc0 f i AStar.obj
 0001:0000c020       ??$_Debug_lt_pred@AAU?$less@UNode@@@std@@AAUNode@@AAU3@$0A@@std@@YA_NAAU?$less@UNode@@@0@AAUNode@@1@Z 0040d020 f i AStar.obj
 0001:0000c0d0       ??$_Delete_plain_internal@V?$allocator@U_Container_proxy@std@@@std@@@std@@YAXAAV?$allocator@U_Container_proxy@std@@@0@QAU_Container_proxy@0@@Z 0040d0d0 f i AStar.obj
 0001:0000c0f0       ??$_Destroy_in_place@PAU?$_List_node@U?$pair@$$CBUPoint@@N@std@@PAX@std@@@std@@YAXAAPAU?$_List_node@U?$pair@$$CBUPoint@@N@std@@PAX@0@@Z 0040d0f0 f i AStar.obj
 0001:0000c100       ??$_Destroy_in_place@PAU?$_List_node@U?$pair@$$CBUPoint@@U1@@std@@PAX@std@@@std@@YAXAAPAU?$_List_node@U?$pair@$$CBUPoint@@U1@@std@@PAX@0@@Z 0040d100 f i AStar.obj
 0001:0000c110       ??$_Destroy_range@PAV?$_List_unchecked_iterator@V?$_List_val@U?$_List_simple_types@U?$pair@$$CBUPoint@@N@std@@@std@@@std@@@std@@PAV12@@std@@YAXPAV?$_List_unchecked_iterator@V?$_List_val@U?$_List_simple_types@U?$pair@$$CBUPoint@@N@std@@@std@@@std@@@0@QAV10@@Z 0040d110 f i AStar.obj
 0001:0000c120       ??$_Destroy_range@PAV?$_List_unchecked_iterator@V?$_List_val@U?$_List_simple_types@U?$pair@$$CBUPoint@@U1@@std@@@std@@@std@@@std@@PAV12@@std@@YAXPAV?$_List_unchecked_iterator@V?$_List_val@U?$_List_simple_types@U?$pair@$$CBUPoint@@U1@@std@@@std@@@std@@@0@QAV10@@Z 0040d120 f i AStar.obj
 0001:0000c130       ??$_Destroy_range@V?$allocator@UNode@@@std@@@std@@YAXPAUNode@@QAU1@AAV?$allocator@UNode@@@0@@Z 0040d130 f i AStar.obj
 0001:0000c140       ??$_Destroy_range@V?$allocator@UPoint@@@std@@@std@@YAXPAUPoint@@QAU1@AAV?$allocator@UPoint@@@0@@Z 0040d140 f i AStar.obj
 0001:0000c150       ??$_Emplace_back@ABV?$_List_unchecked_iterator@V?$_List_val@U?$_List_simple_types@U?$pair@$$CBUPoint@@N@std@@@std@@@std@@@std@@@?$_Uninitialized_backout@PAV?$_List_unchecked_iterator@V?$_List_val@U?$_List_simple_types@U?$pair@$$CBUPoint@@N@std@@@std@@@std@@@std@@@std@@QAEXABV?$_List_unchecked_iterator@V?$_List_val@U?$_List_simple_types@U?$pair@$$CBUPoint@@N@std@@@std@@@std@@@1@@Z 0040d150 f i AStar.obj
 0001:0000c1a0       ??$_Emplace_back@ABV?$_List_unchecked_iterator@V?$_List_val@U?$_List_simple_types@U?$pair@$$CBUPoint@@U1@@std@@@std@@@std@@@std@@@?$_Uninitialized_backout@PAV?$_List_unchecked_iterator@V?$_List_val@U?$_List_simple_types@U?$pair@$$CBUPoint@@U1@@std@@@std@@@std@@@std@@@std@@QAEXABV?$_List_unchecked_iterator@V?$_List_val@U?$_List_simple_types@U?$pair@$$CBUPoint@@U1@@std@@@std@@@std@@@1@@Z 0040d1a0 f i AStar.obj
 0001:0000c1f0       ??$_Emplace_back@UNode@@@?$_Uninitialized_backout_al@V?$allocator@UNode@@@std@@@std@@QAEX$$QAUNode@@@Z 0040d1f0 f i AStar.obj
 0001:0000c250       ??$_Emplace_back@UPoint@@@?$_Uninitialized_backout_al@V?$allocator@UPoint@@@std@@@std@@QAEX$$QAUPoint@@@Z 0040d250 f i AStar.obj
 0001:0000c2b0       ??$_Emplace_back_with_unused_capacity@ABUPoint@@@?$vector@UPoint@@V?$allocator@UPoint@@@std@@@std@@AAE?A_TABUPoint@@@Z 0040d2b0 f i AStar.obj
 0001:0000c350       ??$_Emplace_back_with_unused_capacity@UNode@@@?$vector@UNode@@V?$allocator@UNode@@@std@@@std@@AAE?A_T$$QAUNode@@@Z 0040d350 f i AStar.obj
 0001:0000c3f0       ??$_Emplace_reallocate@ABUPoint@@@?$vector@UPoint@@V?$allocator@UPoint@@@std@@@std@@QAEPAUPoint@@QAU2@ABU2@@Z 0040d3f0 f i AStar.obj
 0001:0000c640       ??$_Emplace_reallocate@UNode@@@?$vector@UNode@@V?$allocator@UNode@@@std@@@std@@QAEPAUNode@@QAU2@$$QAU2@@Z 0040d640 f i AStar.obj
 0001:0000c890       ??$_Find_last@UPoint@@@?$_Hash@V?$_Umap_traits@UPoint@@NV?$_Uhash_compare@UPoint@@U?$hash@UPoint@@@std@@U?$equal_to@UPoint@@@3@@std@@V?$allocator@U?$pair@$$CBUPoint@@N@std@@@3@$0A@@std@@@std@@IBE?AU?$_Hash_find_last_result@PAU?$_List_node@U?$pair@$$CBUPoint@@N@std@@PAX@std@@@1@ABUPoint@@I@Z 0040d890 f i AStar.obj
 0001:0000c990       ??$_Find_last@UPoint@@@?$_Hash@V?$_Umap_traits@UPoint@@U1@V?$_Uhash_compare@UPoint@@U?$hash@UPoint@@@std@@U?$equal_to@UPoint@@@3@@std@@V?$allocator@U?$pair@$$CBUPoint@@U1@@std@@@3@$0A@@std@@@std@@IBE?AU?$_Hash_find_last_result@PAU?$_List_node@U?$pair@$$CBUPoint@@U1@@std@@PAX@std@@@1@ABUPoint@@I@Z 0040d990 f i AStar.obj
 0001:0000ca90       ??$_Fnv1a_append_value@H@std@@YAIIABH@Z 0040da90 f i AStar.obj
 0001:0000cab0       ??$_Free_non_head@V?$allocator@U?$_List_node@U?$pair@$$CBUPoint@@N@std@@PAX@std@@@std@@@?$_List_node@U?$pair@$$CBUPoint@@N@std@@PAX@std@@SAXAAV?$allocator@U?$_List_node@U?$pair@$$CBUPoint@@N@std@@PAX@std@@@1@PAU01@@Z 0040dab0 f i AStar.obj
 0001:0000cb10       ??$_Free_non_head@V?$allocator@U?$_List_node@U?$pair@$$CBUPoint@@U1@@std@@PAX@std@@@std@@@?$_List_node@U?$pair@$$CBUPoint@@U1@@std@@PAX@std@@SAXAAV?$allocator@U?$_List_node@U?$pair@$$CBUPoint@@U1@@std@@PAX@std@@@1@PAU01@@Z 0040db10 f i AStar.obj
 0001:0000cb70       ??$_Freenode0@V?$allocator@U?$_List_node@U?$pair@$$CBUPoint@@N@std@@PAX@std@@@std@@@?$_List_node@U?$pair@$$CBUPoint@@N@std@@PAX@std@@SAXAAV?$allocator@U?$_List_node@U?$pair@$$CBUPoint@@N@std@@PAX@std@@@1@PAU01@@Z 0040db70 f i AStar.obj
 0001:0000cbf0       ??$_Freenode0@V?$allocator@U?$_List_node@U?$pair@$$CBUPoint@@U1@@std@@PAX@std@@@std@@@?$_List_node@U?$pair@$$CBUPoint@@U1@@std@@PAX@std@@SAXAAV?$allocator@U?$_List_node@U?$pair@$$CBUPoint@@U1@@std@@PAX@std@@@1@PAU01@@Z 0040dbf0 f i AStar.obj
 0001:0000cc70       ??$_Freenode@V?$allocator@U?$_List_node@U?$pair@$$CBUPoint@@N@std@@PAX@std@@@std@@@?$_List_node@U?$pair@$$CBUPoint@@N@std@@PAX@std@@SAXAAV?$allocator@U?$_List_node@U?$pair@$$CBUPoint@@N@std@@PAX@std@@@1@PAU01@@Z 0040dc70 f i AStar.obj
 0001:0000ccf0       ??$_Freenode@V?$allocator@U?$_List_node@U?$pair@$$CBUPoint@@U1@@std@@PAX@std@@@std@@@?$_List_node@U?$pair@$$CBUPoint@@U1@@std@@PAX@std@@SAXAAV?$allocator@U?$_List_node@U?$pair@$$CBUPoint@@U1@@std@@PAX@std@@@1@PAU01@@Z 0040dcf0 f i AStar.obj
 0001:0000cd70       ??$_Get_size_of_n@$03@std@@YAII@Z 0040dd70 f i AStar.obj
 0001:0000cdb0       ??$_Get_size_of_n@$07@std@@YAII@Z 0040ddb0 f i AStar.obj
 0001:0000cdf0       ??$_Get_size_of_n@$0BA@@std@@YAII@Z 0040ddf0 f i AStar.obj
 0001:0000ce30       ??$_Get_size_of_n@$0BI@@std@@YAII@Z 0040de30 f i AStar.obj
 0001:0000ce60       ??$_Get_unwrapped@AAV?$_List_unchecked_const_iterator@V?$_List_val@U?$_List_simple_types@U?$pair@$$CBUPoint@@U1@@std@@@std@@@std@@U_Iterator_base0@2@@std@@@std@@YA?A_TAAV?$_List_unchecked_const_iterator@V?$_List_val@U?$_List_simple_types@U?$pair@$$CBUPoint@@U1@@std@@@std@@@std@@U_Iterator_base0@2@@0@@Z 0040de60 f i AStar.obj
 0001:0000ce70       ??$_Get_unwrapped@AAV?$_Vector_iterator@V?$_Vector_val@U?$_Simple_types@UNode@@@std@@@std@@@std@@@std@@YA?A_TAAV?$_Vector_iterator@V?$_Vector_val@U?$_Simple_types@UNode@@@std@@@std@@@0@@Z 0040de70 f i AStar.obj
 0001:0000ce80       ??$_Get_unwrapped@ABQAUNode@@@std@@YA?A_TABQAUNode@@@Z 0040de80 f i AStar.obj
 0001:0000ce90       ??$_Get_unwrapped@ABQAUPoint@@@std@@YA?A_TABQAUPoint@@@Z 0040de90 f i AStar.obj
 0001:0000cea0       ??$_Get_unwrapped@ABQAV?$_List_unchecked_iterator@V?$_List_val@U?$_List_simple_types@U?$pair@$$CBUPoint@@N@std@@@std@@@std@@@std@@@std@@YA?A_TABQAV?$_List_unchecked_iterator@V?$_List_val@U?$_List_simple_types@U?$pair@$$CBUPoint@@N@std@@@std@@@std@@@0@@Z 0040dea0 f i AStar.obj
 0001:0000ceb0       ??$_Get_unwrapped@ABQAV?$_List_unchecked_iterator@V?$_List_val@U?$_List_simple_types@U?$pair@$$CBUPoint@@U1@@std@@@std@@@std@@@std@@@std@@YA?A_TABQAV?$_List_unchecked_iterator@V?$_List_val@U?$_List_simple_types@U?$pair@$$CBUPoint@@U1@@std@@@std@@@std@@@0@@Z 0040deb0 f i AStar.obj
 0001:0000cec0       ??$_Get_unwrapped@ABV?$_Vector_iterator@V?$_Vector_val@U?$_Simple_types@UPoint@@@std@@@std@@@std@@@std@@YA?A_TABV?$_Vector_iterator@V?$_Vector_val@U?$_Simple_types@UPoint@@@std@@@std@@@0@@Z 0040dec0 f i AStar.obj
 0001:0000ced0       ??$_Hash_representation@H@std@@YAIABH@Z 0040ded0 f i AStar.obj
 0001:0000cef0       ??$_Kfn@$$CBUPoint@@N@?$_Umap_traits@UPoint@@NV?$_Uhash_compare@UPoint@@U?$hash@UPoint@@@std@@U?$equal_to@UPoint@@@3@@std@@V?$allocator@U?$pair@$$CBUPoint@@N@std@@@3@$0A@@std@@SAABUPoint@@ABU?$pair@$$CBUPoint@@N@1@@Z 0040def0 f i AStar.obj
 0001:0000cf00       ??$_Kfn@$$CBUPoint@@U1@@?$_Umap_traits@UPoint@@U1@V?$_Uhash_compare@UPoint@@U?$hash@UPoint@@@std@@U?$equal_to@UPoint@@@3@@std@@V?$allocator@U?$pair@$$CBUPoint@@U1@@std@@@3@$0A@@std@@SAABUPoint@@ABU?$pair@$$CBUPoint@@U1@@1@@Z 0040df00 f i AStar.obj
 0001:0000cf10       ??$_Pass_fn@U?$less@UNode@@@std@@$0A@@std@@YA?AU?$less@UNode@@@0@U10@@Z 0040df10 f i AStar.obj
 0001:0000cf20       ??$_Pop_heap_hole_by_index@PAUNode@@U1@U?$less@UNode@@@std@@@std@@YAXPAUNode@@HH$$QAU1@U?$less@UNode@@@0@@Z 0040df20 f i AStar.obj
 0001:0000d090       ??$_Pop_heap_hole_unchecked@PAUNode@@U1@U?$less@UNode@@@std@@@std@@YAXPAUNode@@00$$QAU1@U?$less@UNode@@@0@@Z 0040e090 f i AStar.obj
 0001:0000d100       ??$_Pop_heap_unchecked@PAUNode@@U?$less@UNode@@@std@@@std@@YAXPAUNode@@0U?$less@UNode@@@0@@Z 0040e100 f i AStar.obj
 0001:0000d1a0       ??$_Push_heap_by_index@PAUNode@@U1@U?$less@UNode@@@std@@@std@@YAXPAUNode@@HH$$QAU1@U?$less@UNode@@@0@@Z 0040e1a0 f i AStar.obj
 0001:0000d280       ??$_To_address@PAUNode@@@std@@YA?A_PABQAUNode@@@Z 0040e280 f i AStar.obj
 0001:0000d290       ??$_To_address@PAUPoint@@@std@@YA?A_PABQAUPoint@@@Z 0040e290 f i AStar.obj
 0001:0000d2a0       ??$_Try_emplace@ABUPoint@@$$V@?$_Hash@V?$_Umap_traits@UPoint@@NV?$_Uhash_compare@UPoint@@U?$hash@UPoint@@@std@@U?$equal_to@UPoint@@@3@@std@@V?$allocator@U?$pair@$$CBUPoint@@N@std@@@3@$0A@@std@@@std@@IAE?AU?$pair@PAU?$_List_node@U?$pair@$$CBUPoint@@N@std@@PAX@std@@_N@1@ABUPoint@@@Z 0040e2a0 f i AStar.obj
 0001:0000d450       ??$_Try_emplace@ABUPoint@@$$V@?$_Hash@V?$_Umap_traits@UPoint@@U1@V?$_Uhash_compare@UPoint@@U?$hash@UPoint@@@std@@U?$equal_to@UPoint@@@3@@std@@V?$allocator@U?$pair@$$CBUPoint@@U1@@std@@@3@$0A@@std@@@std@@IAE?AU?$pair@PAU?$_List_node@U?$pair@$$CBUPoint@@U1@@std@@PAX@std@@_N@1@ABUPoint@@@Z 0040e450 f i AStar.obj
 0001:0000d600       ??$_Tuple_get@$0A@ABUPoint@@@std@@YA$$QA_P$$QAV?$tuple@ABUPoint@@@0@@Z 0040e600 f i AStar.obj
 0001:0000d610       ??$_Unfancy@UNode@@@std@@YAPAUNode@@PAU1@@Z 0040e610 f i AStar.obj
 0001:0000d620       ??$_Unfancy@UPoint@@@std@@YAPAUPoint@@PAU1@@Z 0040e620 f i AStar.obj
 0001:0000d630       ??$_Unfancy@U_Container_proxy@std@@@std@@YAPAU_Container_proxy@0@PAU10@@Z 0040e630 f i AStar.obj
 0001:0000d640       ??$_Uninitialized_move@PAUNode@@V?$allocator@UNode@@@std@@@std@@YAPAUNode@@QAU1@0PAU1@AAV?$allocator@UNode@@@0@@Z 0040e640 f i AStar.obj
 0001:0000d760       ??$_Uninitialized_move@PAUPoint@@V?$allocator@UPoint@@@std@@@std@@YAPAUPoint@@QAU1@0PAU1@AAV?$allocator@UPoint@@@0@@Z 0040e760 f i AStar.obj
 0001:0000d880       ??$_Verify_range@V?$_List_unchecked_iterator@V?$_List_val@U?$_List_simple_types@U?$pair@$$CBUPoint@@N@std@@@std@@@std@@@std@@@std@@YAXQBV?$_List_unchecked_iterator@V?$_List_val@U?$_List_simple_types@U?$pair@$$CBUPoint@@N@std@@@std@@@std@@@0@0@Z 0040e880 f i AStar.obj
 0001:0000d900       ??$_Verify_range@V?$_List_unchecked_iterator@V?$_List_val@U?$_List_simple_types@U?$pair@$$CBUPoint@@U1@@std@@@std@@@std@@@std@@@std@@YAXQBV?$_List_unchecked_iterator@V?$_List_val@U?$_List_simple_types@U?$pair@$$CBUPoint@@U1@@std@@@std@@@std@@@0@0@Z 0040e900 f i AStar.obj
 0001:0000d980       ??$_Voidify_iter@PAPAU?$_List_node@U?$pair@$$CBUPoint@@N@std@@PAX@std@@@std@@YAPAXPAPAU?$_List_node@U?$pair@$$CBUPoint@@N@std@@PAX@0@@Z 0040e980 f i AStar.obj
 0001:0000d990       ??$_Voidify_iter@PAPAU?$_List_node@U?$pair@$$CBUPoint@@U1@@std@@PAX@std@@@std@@YAPAXPAPAU?$_List_node@U?$pair@$$CBUPoint@@U1@@std@@PAX@0@@Z 0040e990 f i AStar.obj
 0001:0000d9a0       ??$_Voidify_iter@PAU?$pair@$$CBUPoint@@N@std@@@std@@YAPAXPAU?$pair@$$CBUPoint@@N@0@@Z 0040e9a0 f i AStar.obj
 0001:0000d9b0       ??$_Voidify_iter@PAU?$pair@$$CBUPoint@@U1@@std@@@std@@YAPAXPAU?$pair@$$CBUPoint@@U1@@0@@Z 0040e9b0 f i AStar.obj
 0001:0000d9c0       ??$_Voidify_iter@PAUNode@@@std@@YAPAXPAUNode@@@Z 0040e9c0 f i AStar.obj
 0001:0000d9d0       ??$_Voidify_iter@PAUPoint@@@std@@YAPAXPAUPoint@@@Z 0040e9d0 f i AStar.obj
 0001:0000d9e0       ??$_Voidify_iter@PAU_Container_proxy@std@@@std@@YAPAXPAU_Container_proxy@0@@Z 0040e9e0 f i AStar.obj
 0001:0000d9f0       ??$_Voidify_iter@PAV?$_List_unchecked_iterator@V?$_List_val@U?$_List_simple_types@U?$pair@$$CBUPoint@@N@std@@@std@@@std@@@std@@@std@@YAPAXPAV?$_List_unchecked_iterator@V?$_List_val@U?$_List_simple_types@U?$pair@$$CBUPoint@@N@std@@@std@@@std@@@0@@Z 0040e9f0 f i AStar.obj
 0001:0000da00       ??$_Voidify_iter@PAV?$_List_unchecked_iterator@V?$_List_val@U?$_List_simple_types@U?$pair@$$CBUPoint@@U1@@std@@@std@@@std@@@std@@@std@@YAPAXPAV?$_List_unchecked_iterator@V?$_List_val@U?$_List_simple_types@U?$pair@$$CBUPoint@@U1@@std@@@std@@@std@@@0@@Z 0040ea00 f i AStar.obj
 0001:0000da10       ??$addressof@$$CBV?$_List_val@U?$_List_simple_types@U?$pair@$$CBUPoint@@U1@@std@@@std@@@std@@@std@@YAPBV?$_List_val@U?$_List_simple_types@U?$pair@$$CBUPoint@@U1@@std@@@std@@@0@ABV10@@Z 0040ea10 f i AStar.obj
 0001:0000da20       ??$addressof@PAU?$_List_node@U?$pair@$$CBUPoint@@N@std@@PAX@std@@@std@@YAPAPAU?$_List_node@U?$pair@$$CBUPoint@@N@std@@PAX@0@AAPAU10@@Z 0040ea20 f i AStar.obj
 0001:0000da30       ??$addressof@PAU?$_List_node@U?$pair@$$CBUPoint@@U1@@std@@PAX@std@@@std@@YAPAPAU?$_List_node@U?$pair@$$CBUPoint@@U1@@std@@PAX@0@AAPAU10@@Z 0040ea30 f i AStar.obj
 0001:0000da40       ??$addressof@U?$pair@$$CBUPoint@@N@std@@@std@@YAPAU?$pair@$$CBUPoint@@N@0@AAU10@@Z 0040ea40 f i AStar.obj
 0001:0000da50       ??$addressof@U?$pair@$$CBUPoint@@U1@@std@@@std@@YAPAU?$pair@$$CBUPoint@@U1@@0@AAU10@@Z 0040ea50 f i AStar.obj
 0001:0000da60       ??$addressof@U_Container_base12@std@@@std@@YAPAU_Container_base12@0@AAU10@@Z 0040ea60 f i AStar.obj
 0001:0000da70       ??$addressof@U_Container_proxy@std@@@std@@YAPAU_Container_proxy@0@AAU10@@Z 0040ea70 f i AStar.obj
 0001:0000da80       ??$addressof@V?$_List_unchecked_iterator@V?$_List_val@U?$_List_simple_types@U?$pair@$$CBUPoint@@N@std@@@std@@@std@@@std@@@std@@YAPAV?$_List_unchecked_iterator@V?$_List_val@U?$_List_simple_types@U?$pair@$$CBUPoint@@N@std@@@std@@@std@@@0@AAV10@@Z 0040ea80 f i AStar.obj
 0001:0000da90       ??$addressof@V?$_List_unchecked_iterator@V?$_List_val@U?$_List_simple_types@U?$pair@$$CBUPoint@@U1@@std@@@std@@@std@@@std@@@std@@YAPAV?$_List_unchecked_iterator@V?$_List_val@U?$_List_simple_types@U?$pair@$$CBUPoint@@U1@@std@@@std@@@std@@@0@AAV10@@Z 0040ea90 f i AStar.obj
 0001:0000daa0       ??$addressof@V?$_Vector_val@U?$_Simple_types@UNode@@@std@@@std@@@std@@YAPAV?$_Vector_val@U?$_Simple_types@UNode@@@std@@@0@AAV10@@Z 0040eaa0 f i AStar.obj
 0001:0000dab0       ??$addressof@V?$_Vector_val@U?$_Simple_types@UPoint@@@std@@@std@@@std@@YAPAV?$_Vector_val@U?$_Simple_types@UPoint@@@std@@@0@AAV10@@Z 0040eab0 f i AStar.obj
 0001:0000dac0       ??$construct@U?$pair@$$CBUPoint@@N@std@@ABUpiecewise_construct_t@2@V?$tuple@ABUPoint@@@2@V?$tuple@$$V@2@@?$_Default_allocator_traits@V?$allocator@U?$_List_node@U?$pair@$$CBUPoint@@N@std@@PAX@std@@@std@@@std@@SAXAAV?$allocator@U?$_List_node@U?$pair@$$CBUPoint@@N@std@@PAX@std@@@1@QAU?$pair@$$CBUPoint@@N@1@ABUpiecewise_construct_t@1@$$QAV?$tuple@ABUPoint@@@1@$$QAV?$tuple@$$V@1@@Z 0040eac0 f i AStar.obj
 0001:0000db50       ??$construct@U?$pair@$$CBUPoint@@U1@@std@@ABU12@@?$_Default_allocator_traits@V?$allocator@U?$_List_node@U?$pair@$$CBUPoint@@U1@@std@@PAX@std@@@std@@@std@@SAXAAV?$allocator@U?$_List_node@U?$pair@$$CBUPoint@@U1@@std@@PAX@std@@@1@QAU?$pair@$$CBUPoint@@U1@@1@ABU31@@Z 0040eb50 f i AStar.obj
 0001:0000dbb0       ??$construct@U?$pair@$$CBUPoint@@U1@@std@@ABUpiecewise_construct_t@2@V?$tuple@ABUPoint@@@2@V?$tuple@$$V@2@@?$_Default_allocator_traits@V?$allocator@U?$_List_node@U?$pair@$$CBUPoint@@U1@@std@@PAX@std@@@std@@@std@@SAXAAV?$allocator@U?$_List_node@U?$pair@$$CBUPoint@@U1@@std@@PAX@std@@@1@QAU?$pair@$$CBUPoint@@U1@@1@ABUpiecewise_construct_t@1@$$QAV?$tuple@ABUPoint@@@1@$$QAV?$tuple@$$V@1@@Z 0040ebb0 f i AStar.obj
 0001:0000dc40       ??$construct@UNode@@U1@@?$_Default_allocator_traits@V?$allocator@UNode@@@std@@@std@@SAXAAV?$allocator@UNode@@@1@QAUNode@@$$QAU3@@Z 0040ec40 f i AStar.obj
 0001:0000dca0       ??$construct@UPoint@@ABU1@@?$_Default_allocator_traits@V?$allocator@UPoint@@@std@@@std@@SAXAAV?$allocator@UPoint@@@1@QAUPoint@@ABU3@@Z 0040eca0 f i AStar.obj
 0001:0000dcf0       ??$construct@UPoint@@U1@@?$_Default_allocator_traits@V?$allocator@UPoint@@@std@@@std@@SAXAAV?$allocator@UPoint@@@1@QAUPoint@@$$QAU3@@Z 0040ecf0 f i AStar.obj
 0001:0000dd40       ??$count@X@?$_Hash@V?$_Umap_traits@UPoint@@NV?$_Uhash_compare@UPoint@@U?$hash@UPoint@@@std@@U?$equal_to@UPoint@@@3@@std@@V?$allocator@U?$pair@$$CBUPoint@@N@std@@@3@$0A@@std@@@std@@QBEIABUPoint@@@Z 0040ed40 f i AStar.obj
 0001:0000dda0       ??$count@X@?$_Hash@V?$_Umap_traits@UPoint@@U1@V?$_Uhash_compare@UPoint@@U?$hash@UPoint@@@std@@U?$equal_to@UPoint@@@3@@std@@V?$allocator@U?$pair@$$CBUPoint@@U1@@std@@@3@$0A@@std@@@std@@QBEIABUPoint@@@Z 0040eda0 f i AStar.obj
 0001:0000de00       ??$destroy@U?$pair@$$CBUPoint@@N@std@@@?$_Default_allocator_traits@V?$allocator@U?$_List_node@U?$pair@$$CBUPoint@@N@std@@PAX@std@@@std@@@std@@SAXAAV?$allocator@U?$_List_node@U?$pair@$$CBUPoint@@N@std@@PAX@std@@@1@QAU?$pair@$$CBUPoint@@N@1@@Z 0040ee00 f i AStar.obj
 0001:0000de10       ??$destroy@U?$pair@$$CBUPoint@@U1@@std@@@?$_Default_allocator_traits@V?$allocator@U?$_List_node@U?$pair@$$CBUPoint@@U1@@std@@PAX@std@@@std@@@std@@SAXAAV?$allocator@U?$_List_node@U?$pair@$$CBUPoint@@U1@@std@@PAX@std@@@1@QAU?$pair@$$CBUPoint@@U1@@1@@Z 0040ee10 f i AStar.obj
 0001:0000de20       ??$destroy@UNode@@@?$_Default_allocator_traits@V?$allocator@UNode@@@std@@@std@@SAXAAV?$allocator@UNode@@@1@QAUNode@@@Z 0040ee20 f i AStar.obj
 0001:0000de30       ??$emplace@ABU?$pair@$$CBUPoint@@U1@@std@@@?$_Hash@V?$_Umap_traits@UPoint@@U1@V?$_Uhash_compare@UPoint@@U?$hash@UPoint@@@std@@U?$equal_to@UPoint@@@3@@std@@V?$allocator@U?$pair@$$CBUPoint@@U1@@std@@@3@$0A@@std@@@std@@QAE?AU?$pair@V?$_List_iterator@V?$_List_val@U?$_List_simple_types@U?$pair@$$CBUPoint@@U1@@std@@@std@@@std@@@std@@_N@1@ABU?$pair@$$CBUPoint@@U1@@1@@Z 0040ee30 f i AStar.obj
 0001:0000e040       ??$emplace_back@ABUPoint@@@?$vector@UPoint@@V?$allocator@UPoint@@@std@@@std@@QAE?A_TABUPoint@@@Z 0040f040 f i AStar.obj
 0001:0000e0c0       ??$emplace_back@UNode@@@?$vector@UNode@@V?$allocator@UNode@@@std@@@std@@QAE?A_T$$QAUNode@@@Z 0040f0c0 f i AStar.obj
 0001:0000e140       ??$exchange@PAU?$_List_node@U?$pair@$$CBUPoint@@N@std@@PAX@std@@$$T@std@@YAPAU?$_List_node@U?$pair@$$CBUPoint@@N@std@@PAX@0@AAPAU10@$$QA$$T@Z 0040f140 f i AStar.obj
 0001:0000e170       ??$exchange@PAU?$_List_node@U?$pair@$$CBUPoint@@U1@@std@@PAX@std@@$$T@std@@YAPAU?$_List_node@U?$pair@$$CBUPoint@@U1@@std@@PAX@0@AAPAU10@$$QA$$T@Z 0040f170 f i AStar.obj
 0001:0000e1a0       ??$exchange@PAUPoint@@$$T@std@@YAPAUPoint@@AAPAU1@$$QA$$T@Z 0040f1a0 f i AStar.obj
 0001:0000e1d0       ??$exchange@PAU_Container_proxy@std@@$$T@std@@YAPAU_Container_proxy@0@AAPAU10@$$QA$$T@Z 0040f1d0 f i AStar.obj
 0001:0000e200       ??$fill@PAV?$_List_unchecked_iterator@V?$_List_val@U?$_List_simple_types@U?$pair@$$CBUPoint@@N@std@@@std@@@std@@@std@@V12@@std@@YAXQAV?$_List_unchecked_iterator@V?$_List_val@U?$_List_simple_types@U?$pair@$$CBUPoint@@N@std@@@std@@@std@@@0@0ABV10@@Z 0040f200 f i AStar.obj
 0001:0000e270       ??$fill@PAV?$_List_unchecked_iterator@V?$_List_val@U?$_List_simple_types@U?$pair@$$CBUPoint@@U1@@std@@@std@@@std@@@std@@V12@@std@@YAXQAV?$_List_unchecked_iterator@V?$_List_val@U?$_List_simple_types@U?$pair@$$CBUPoint@@U1@@std@@@std@@@std@@@0@0ABV10@@Z 0040f270 f i AStar.obj
 0001:0000e2e0       ??$forward@AAPAU?$_List_node@U?$pair@$$CBUPoint@@N@std@@PAX@std@@@std@@YAAAPAU?$_List_node@U?$pair@$$CBUPoint@@N@std@@PAX@0@AAPAU10@@Z 0040f2e0 f i AStar.obj
 0001:0000e2f0       ??$forward@AAPAU?$_List_node@U?$pair@$$CBUPoint@@U1@@std@@PAX@std@@@std@@YAAAPAU?$_List_node@U?$pair@$$CBUPoint@@U1@@std@@PAX@0@AAPAU10@@Z 0040f2f0 f i AStar.obj
 0001:0000e300       ??$forward@ABQAU?$_List_node@U?$pair@$$CBUPoint@@N@std@@PAX@std@@@std@@YAABQAU?$_List_node@U?$pair@$$CBUPoint@@N@std@@PAX@0@ABQAU10@@Z 0040f300 f i AStar.obj
 0001:0000e310       ??$forward@ABQAU?$_List_node@U?$pair@$$CBUPoint@@U1@@std@@PAX@std@@@std@@YAABQAU?$_List_node@U?$pair@$$CBUPoint@@U1@@std@@PAX@0@ABQAU10@@Z 0040f310 f i AStar.obj
 0001:0000e320       ??$forward@ABU?$pair@$$CBUPoint@@U1@@std@@@std@@YAABU?$pair@$$CBUPoint@@U1@@0@ABU10@@Z 0040f320 f i AStar.obj
 0001:0000e330       ??$forward@ABUPoint@@@std@@YAABUPoint@@ABU1@@Z 0040f330 f i AStar.obj
 0001:0000e340       ??$forward@ABUpiecewise_construct_t@std@@@std@@YAABUpiecewise_construct_t@0@ABU10@@Z 0040f340 f i AStar.obj
 0001:0000e350       ??$forward@ABV?$_List_unchecked_iterator@V?$_List_val@U?$_List_simple_types@U?$pair@$$CBUPoint@@N@std@@@std@@@std@@@std@@@std@@YAABV?$_List_unchecked_iterator@V?$_List_val@U?$_List_simple_types@U?$pair@$$CBUPoint@@N@std@@@std@@@std@@@0@ABV10@@Z 0040f350 f i AStar.obj
 0001:0000e360       ??$forward@ABV?$_List_unchecked_iterator@V?$_List_val@U?$_List_simple_types@U?$pair@$$CBUPoint@@U1@@std@@@std@@@std@@@std@@@std@@YAABV?$_List_unchecked_iterator@V?$_List_val@U?$_List_simple_types@U?$pair@$$CBUPoint@@U1@@std@@@std@@@std@@@0@ABV10@@Z 0040f360 f i AStar.obj
 0001:0000e370       ??$forward@ABV?$allocator@U?$_List_node@U?$pair@$$CBUPoint@@U1@@std@@PAX@std@@@std@@@std@@YAABV?$allocator@U?$_List_node@U?$pair@$$CBUPoint@@U1@@std@@PAX@std@@@0@ABV10@@Z 0040f370 f i AStar.obj
 0001:0000e380       ??$forward@ABV?$allocator@U?$pair@$$CBUPoint@@N@std@@@std@@@std@@YAABV?$allocator@U?$pair@$$CBUPoint@@N@std@@@0@ABV10@@Z 0040f380 f i AStar.obj
 0001:0000e390       ??$forward@ABV?$allocator@U?$pair@$$CBUPoint@@U1@@std@@@std@@@std@@YAABV?$allocator@U?$pair@$$CBUPoint@@U1@@std@@@0@ABV10@@Z 0040f390 f i AStar.obj
 0001:0000e3a0       ??$forward@H@std@@YA$$QAHAAH@Z 0040f3a0 f i AStar.obj
 0001:0000e3b0       ??$forward@M@std@@YA$$QAMAAM@Z 0040f3b0 f i AStar.obj
 0001:0000e3c0       ??$forward@PAU?$_List_node@U?$pair@$$CBUPoint@@N@std@@PAX@std@@@std@@YA$$QAPAU?$_List_node@U?$pair@$$CBUPoint@@N@std@@PAX@0@AAPAU10@@Z 0040f3c0 f i AStar.obj
 0001:0000e3d0       ??$forward@PAU?$_List_node@U?$pair@$$CBUPoint@@U1@@std@@PAX@std@@@std@@YA$$QAPAU?$_List_node@U?$pair@$$CBUPoint@@U1@@std@@PAX@0@AAPAU10@@Z 0040f3d0 f i AStar.obj
 0001:0000e3e0       ??$forward@PAUPoint@@@std@@YA$$QAPAUPoint@@AAPAU1@@Z 0040f3e0 f i AStar.obj
 0001:0000e3f0       ??$forward@PAU_Container_base12@std@@@std@@YA$$QAPAU_Container_base12@0@AAPAU10@@Z 0040f3f0 f i AStar.obj
 0001:0000e400       ??$forward@UNode@@@std@@YA$$QAUNode@@AAU1@@Z 0040f400 f i AStar.obj
 0001:0000e410       ??$forward@UPoint@@@std@@YA$$QAUPoint@@AAU1@@Z 0040f410 f i AStar.obj
 0001:0000e420       ??$forward@U_Zero_then_variadic_args_t@std@@@std@@YA$$QAU_Zero_then_variadic_args_t@0@AAU10@@Z 0040f420 f i AStar.obj
 0001:0000e430       ??$forward@V?$_List_iterator@V?$_List_val@U?$_List_simple_types@U?$pair@$$CBUPoint@@U1@@std@@@std@@@std@@@std@@@std@@YA$$QAV?$_List_iterator@V?$_List_val@U?$_List_simple_types@U?$pair@$$CBUPoint@@U1@@std@@@std@@@std@@@0@AAV10@@Z 0040f430 f i AStar.obj
 0001:0000e440       ??$forward@V?$allocator@UPoint@@@std@@@std@@YA$$QAV?$allocator@UPoint@@@0@AAV10@@Z 0040f440 f i AStar.obj
 0001:0000e450       ??$forward@V?$tuple@$$V@std@@@std@@YA$$QAV?$tuple@$$V@0@AAV10@@Z 0040f450 f i AStar.obj
 0001:0000e460       ??$forward@V?$tuple@ABUPoint@@@std@@@std@@YA$$QAV?$tuple@ABUPoint@@@0@AAV10@@Z 0040f460 f i AStar.obj
 0001:0000e470       ??$forward@_N@std@@YA$$QA_NAA_N@Z 0040f470 f i AStar.obj
 0001:0000e480       ??$forward_as_tuple@$$V@std@@YA?AV?$tuple@$$V@0@XZ 0040f480 f i AStar.obj
 0001:0000e490       ??$forward_as_tuple@ABUPoint@@@std@@YA?AV?$tuple@ABUPoint@@@0@ABUPoint@@@Z 0040f490 f i AStar.obj
 0001:0000e4c0       ??$insert@V?$_List_unchecked_const_iterator@V?$_List_val@U?$_List_simple_types@U?$pair@$$CBUPoint@@U1@@std@@@std@@@std@@U_Iterator_base0@2@@std@@@?$_Hash@V?$_Umap_traits@UPoint@@U1@V?$_Uhash_compare@UPoint@@U?$hash@UPoint@@@std@@U?$equal_to@UPoint@@@3@@std@@V?$allocator@U?$pair@$$CBUPoint@@U1@@std@@@3@$0A@@std@@@std@@QAEXV?$_List_unchecked_const_iterator@V?$_List_val@U?$_List_simple_types@U?$pair@$$CBUPoint@@U1@@std@@@std@@@std@@U_Iterator_base0@2@@1@0@Z 0040f4c0 f i AStar.obj
 0001:0000e560       ??$iter_swap@PAUPoint@@PAU1@@std@@YAXPAUPoint@@0@Z 0040f560 f i AStar.obj
 0001:0000e580       ??$make_pair@HH@std@@YA?AU?$pair@HH@0@$$QAH0@Z 0040f580 f i AStar.obj
 0001:0000e5c0       ??$max@I@std@@YAABIABI0@Z  0040f5c0 f i AStar.obj
 0001:0000e600       ??$min@I@std@@YAABIABI0@Z  0040f600 f i AStar.obj
 0001:0000e640       ??$move@AAUNode@@@std@@YA$$QAUNode@@AAU1@@Z 0040f640 f i AStar.obj
 0001:0000e650       ??$move@AAUPoint@@@std@@YA$$QAUPoint@@AAU1@@Z 0040f650 f i AStar.obj
 0001:0000e660       ??$move@AAV?$allocator@UPoint@@@std@@@std@@YA$$QAV?$allocator@UPoint@@@0@AAV10@@Z 0040f660 f i AStar.obj
 0001:0000e670       ??$move@AAV?$tuple@ABUPoint@@@std@@@std@@YA$$QAV?$tuple@ABUPoint@@@0@AAV10@@Z 0040f670 f i AStar.obj
 0001:0000e680       ??$pop_heap@V?$_Vector_iterator@V?$_Vector_val@U?$_Simple_types@UNode@@@std@@@std@@@std@@U?$less@UNode@@@2@@std@@YAXV?$_Vector_iterator@V?$_Vector_val@U?$_Simple_types@UNode@@@std@@@std@@@0@0U?$less@UNode@@@0@@Z 0040f680 f i AStar.obj
 0001:0000e750       ??$pow@HH$0A@@@YANHH@Z     0040f750 f i AStar.obj
 0001:0000e780       ??$push_heap@V?$_Vector_iterator@V?$_Vector_val@U?$_Simple_types@UNode@@@std@@@std@@@std@@U?$less@UNode@@@2@@std@@YAXV?$_Vector_iterator@V?$_Vector_val@U?$_Simple_types@UNode@@@std@@@std@@@0@0U?$less@UNode@@@0@@Z 0040f780 f i AStar.obj
 0001:0000e8d0       ??$reverse@V?$_Vector_iterator@V?$_Vector_val@U?$_Simple_types@UPoint@@@std@@@std@@@std@@@std@@YAXV?$_Vector_iterator@V?$_Vector_val@U?$_Simple_types@UPoint@@@std@@@std@@@0@0@Z 0040f8d0 f i AStar.obj
 0001:0000ea20       ??$swap@UPoint@@$0A@@std@@YAXAAUPoint@@0@Z 0040fa20 f i AStar.obj
 0001:0000ea90       ??$uninitialized_fill@PAV?$_List_unchecked_iterator@V?$_List_val@U?$_List_simple_types@U?$pair@$$CBUPoint@@N@std@@@std@@@std@@@std@@V12@@std@@YAXQAV?$_List_unchecked_iterator@V?$_List_val@U?$_List_simple_types@U?$pair@$$CBUPoint@@N@std@@@std@@@std@@@0@0ABV10@@Z 0040fa90 f i AStar.obj
 0001:0000eb60       ??$uninitialized_fill@PAV?$_List_unchecked_iterator@V?$_List_val@U?$_List_simple_types@U?$pair@$$CBUPoint@@U1@@std@@@std@@@std@@@std@@V12@@std@@YAXQAV?$_List_unchecked_iterator@V?$_List_val@U?$_List_simple_types@U?$pair@$$CBUPoint@@U1@@std@@@std@@@std@@@0@0ABV10@@Z 0040fb60 f i AStar.obj
 0001:0000ec30       ??0?$_Alloc_construct_ptr@V?$allocator@U?$_List_node@U?$pair@$$CBUPoint@@N@std@@PAX@std@@@std@@@std@@QAE@AAV?$allocator@U?$_List_node@U?$pair@$$CBUPoint@@N@std@@PAX@std@@@1@@Z 0040fc30 f i AStar.obj
 0001:0000ec60       ??0?$_Alloc_construct_ptr@V?$allocator@U?$_List_node@U?$pair@$$CBUPoint@@U1@@std@@PAX@std@@@std@@@std@@QAE@AAV?$allocator@U?$_List_node@U?$pair@$$CBUPoint@@U1@@std@@PAX@std@@@1@@Z 0040fc60 f i AStar.obj
 0001:0000ec90       ??0?$_Container_proxy_ptr12@V?$allocator@U_Container_proxy@std@@@std@@@std@@QAE@AAV?$allocator@U_Container_proxy@std@@@1@AAU_Container_base12@1@@Z 0040fc90 f i AStar.obj
 0001:0000ed10       ??0?$_Hash@V?$_Umap_traits@UPoint@@NV?$_Uhash_compare@UPoint@@U?$hash@UPoint@@@std@@U?$equal_to@UPoint@@@3@@std@@V?$allocator@U?$pair@$$CBUPoint@@N@std@@@3@$0A@@std@@@std@@IAE@ABV?$_Uhash_compare@UPoint@@U?$hash@UPoint@@@std@@U?$equal_to@UPoint@@@3@@1@ABV?$allocator@U?$pair@$$CBUPoint@@N@std@@@1@@Z 0040fd10 f i AStar.obj
 0001:0000ee00       ??0?$_Hash@V?$_Umap_traits@UPoint@@U1@V?$_Uhash_compare@UPoint@@U?$hash@UPoint@@@std@@U?$equal_to@UPoint@@@3@@std@@V?$allocator@U?$pair@$$CBUPoint@@U1@@std@@@3@$0A@@std@@@std@@IAE@ABV?$_Uhash_compare@UPoint@@U?$hash@UPoint@@@std@@U?$equal_to@UPoint@@@3@@1@ABV?$allocator@U?$pair@$$CBUPoint@@U1@@std@@@1@@Z 0040fe00 f i AStar.obj
 0001:0000eef0       ??0?$_List_const_iterator@V?$_List_val@U?$_List_simple_types@U?$pair@$$CBUPoint@@U1@@std@@@std@@@std@@@std@@QAE@$$QAV01@@Z 0040fef0 f i AStar.obj
 0001:0000ef20       ??0?$_List_const_iterator@V?$_List_val@U?$_List_simple_types@U?$pair@$$CBUPoint@@U1@@std@@@std@@@std@@@std@@QAE@PAU?$_List_node@U?$pair@$$CBUPoint@@U1@@std@@PAX@1@PBV?$_List_val@U?$_List_simple_types@U?$pair@$$CBUPoint@@U1@@std@@@std@@@1@@Z 0040ff20 f i AStar.obj
 0001:0000ef50       ??0?$_List_iterator@V?$_List_val@U?$_List_simple_types@U?$pair@$$CBUPoint@@U1@@std@@@std@@@std@@@std@@QAE@$$QAV01@@Z 0040ff50 f i AStar.obj
 0001:0000ef80       ??0?$_List_iterator@V?$_List_val@U?$_List_simple_types@U?$pair@$$CBUPoint@@U1@@std@@@std@@@std@@@std@@QAE@PAU?$_List_node@U?$pair@$$CBUPoint@@U1@@std@@PAX@1@PBV?$_List_val@U?$_List_simple_types@U?$pair@$$CBUPoint@@U1@@std@@@std@@@1@@Z 0040ff80 f i AStar.obj
 0001:0000efb0       ??0?$_List_unchecked_const_iterator@V?$_List_val@U?$_List_simple_types@U?$pair@$$CBUPoint@@N@std@@@std@@@std@@U_Iterator_base0@2@@std@@QAE@PAU?$_List_node@U?$pair@$$CBUPoint@@N@std@@PAX@1@PBV?$_List_val@U?$_List_simple_types@U?$pair@$$CBUPoint@@N@std@@@std@@@1@@Z 0040ffb0 f i AStar.obj
 0001:0000efe0       ??0?$_List_unchecked_const_iterator@V?$_List_val@U?$_List_simple_types@U?$pair@$$CBUPoint@@U1@@std@@@std@@@std@@U_Iterator_base0@2@@std@@QAE@PAU?$_List_node@U?$pair@$$CBUPoint@@U1@@std@@PAX@1@PBV?$_List_val@U?$_List_simple_types@U?$pair@$$CBUPoint@@U1@@std@@@std@@@1@@Z 0040ffe0 f i AStar.obj
 0001:0000f010       ??0?$_List_unchecked_const_iterator@V?$_List_val@U?$_List_simple_types@U?$pair@$$CBUPoint@@U1@@std@@@std@@@std@@U_Iterator_base12@2@@std@@QAE@$$QAV01@@Z 00410010 f i AStar.obj
 0001:0000f050       ??0?$_List_unchecked_const_iterator@V?$_List_val@U?$_List_simple_types@U?$pair@$$CBUPoint@@U1@@std@@@std@@@std@@U_Iterator_base12@2@@std@@QAE@PAU?$_List_node@U?$pair@$$CBUPoint@@U1@@std@@PAX@1@PBV?$_List_val@U?$_List_simple_types@U?$pair@$$CBUPoint@@U1@@std@@@std@@@1@@Z 00410050 f i AStar.obj
 0001:0000f090       ??0?$_List_unchecked_iterator@V?$_List_val@U?$_List_simple_types@U?$pair@$$CBUPoint@@N@std@@@std@@@std@@@std@@QAE@PAU?$_List_node@U?$pair@$$CBUPoint@@N@std@@PAX@1@PBV?$_List_val@U?$_List_simple_types@U?$pair@$$CBUPoint@@N@std@@@std@@@1@@Z 00410090 f i AStar.obj
 0001:0000f0c0       ??0?$_List_unchecked_iterator@V?$_List_val@U?$_List_simple_types@U?$pair@$$CBUPoint@@U1@@std@@@std@@@std@@@std@@QAE@PAU?$_List_node@U?$pair@$$CBUPoint@@U1@@std@@PAX@1@PBV?$_List_val@U?$_List_simple_types@U?$pair@$$CBUPoint@@U1@@std@@@std@@@1@@Z 004100c0 f i AStar.obj
 0001:0000f0f0       ??0?$_List_val@U?$_List_simple_types@U?$pair@$$CBUPoint@@N@std@@@std@@@std@@QAE@XZ 004100f0 f i AStar.obj
 0001:0000f130       ??0?$_List_val@U?$_List_simple_types@U?$pair@$$CBUPoint@@U1@@std@@@std@@@std@@QAE@XZ 00410130 f i AStar.obj
 0001:0000f170       ??0?$_Uhash_compare@UPoint@@U?$hash@UPoint@@@std@@U?$equal_to@UPoint@@@3@@std@@QAE@XZ 00410170 f i AStar.obj
 0001:0000f1b0       ??0?$_Umap_traits@UPoint@@NV?$_Uhash_compare@UPoint@@U?$hash@UPoint@@@std@@U?$equal_to@UPoint@@@3@@std@@V?$allocator@U?$pair@$$CBUPoint@@N@std@@@3@$0A@@std@@QAE@ABV?$_Uhash_compare@UPoint@@U?$hash@UPoint@@@std@@U?$equal_to@UPoint@@@3@@1@@Z 004101b0 f i AStar.obj
 0001:0000f1d0       ??0?$_Umap_traits@UPoint@@U1@V?$_Uhash_compare@UPoint@@U?$hash@UPoint@@@std@@U?$equal_to@UPoint@@@3@@std@@V?$allocator@U?$pair@$$CBUPoint@@U1@@std@@@3@$0A@@std@@QAE@ABV?$_Uhash_compare@UPoint@@U?$hash@UPoint@@@std@@U?$equal_to@UPoint@@@3@@1@@Z 004101d0 f i AStar.obj
 0001:0000f1f0       ??0?$_Uninitialized_backout@PAV?$_List_unchecked_iterator@V?$_List_val@U?$_List_simple_types@U?$pair@$$CBUPoint@@N@std@@@std@@@std@@@std@@@std@@QAE@PAV?$_List_unchecked_iterator@V?$_List_val@U?$_List_simple_types@U?$pair@$$CBUPoint@@N@std@@@std@@@std@@@1@@Z 004101f0 f i AStar.obj
 0001:0000f220       ??0?$_Uninitialized_backout@PAV?$_List_unchecked_iterator@V?$_List_val@U?$_List_simple_types@U?$pair@$$CBUPoint@@U1@@std@@@std@@@std@@@std@@@std@@QAE@PAV?$_List_unchecked_iterator@V?$_List_val@U?$_List_simple_types@U?$pair@$$CBUPoint@@U1@@std@@@std@@@std@@@1@@Z 00410220 f i AStar.obj
 0001:0000f250       ??0?$_Uninitialized_backout_al@V?$allocator@UNode@@@std@@@std@@QAE@PAUNode@@AAV?$allocator@UNode@@@1@@Z 00410250 f i AStar.obj
 0001:0000f290       ??0?$_Uninitialized_backout_al@V?$allocator@UPoint@@@std@@@std@@QAE@PAUPoint@@AAV?$allocator@UPoint@@@1@@Z 00410290 f i AStar.obj
 0001:0000f2d0       ??0?$_Vector_const_iterator@V?$_Vector_val@U?$_Simple_types@UNode@@@std@@@std@@@std@@QAE@PAUNode@@PBU_Container_base12@1@@Z 004102d0 f i AStar.obj
 0001:0000f310       ??0?$_Vector_const_iterator@V?$_Vector_val@U?$_Simple_types@UPoint@@@std@@@std@@@std@@QAE@PAUPoint@@PBU_Container_base12@1@@Z 00410310 f i AStar.obj
 0001:0000f350       ??0?$_Vector_iterator@V?$_Vector_val@U?$_Simple_types@UNode@@@std@@@std@@@std@@QAE@PAUNode@@PBU_Container_base12@1@@Z 00410350 f i AStar.obj
 0001:0000f380       ??0?$_Vector_iterator@V?$_Vector_val@U?$_Simple_types@UPoint@@@std@@@std@@@std@@QAE@PAUPoint@@PBU_Container_base12@1@@Z 00410380 f i AStar.obj
 0001:0000f3b0       ??0?$_Vector_val@U?$_Simple_types@UNode@@@std@@@std@@QAE@XZ 004103b0 f i AStar.obj
 0001:0000f400       ??0?$_Vector_val@U?$_Simple_types@UPoint@@@std@@@std@@QAE@PAUPoint@@00@Z 00410400 f i AStar.obj
 0001:0000f440       ??0?$_Vector_val@U?$_Simple_types@UPoint@@@std@@@std@@QAE@XZ 00410440 f i AStar.obj
 0001:0000f490       ??0?$_Vector_val@U?$_Simple_types@V?$_List_unchecked_iterator@V?$_List_val@U?$_List_simple_types@U?$pair@$$CBUPoint@@N@std@@@std@@@std@@@std@@@std@@@std@@QAE@XZ 00410490 f i AStar.obj
 0001:0000f4e0       ??0?$_Vector_val@U?$_Simple_types@V?$_List_unchecked_iterator@V?$_List_val@U?$_List_simple_types@U?$pair@$$CBUPoint@@U1@@std@@@std@@@std@@@std@@@std@@@std@@QAE@XZ 004104e0 f i AStar.obj
 0001:0000f530       ??0?$allocator@U?$pair@$$CBUPoint@@N@std@@@std@@QAE@XZ 00410530 f i AStar.obj
 0001:0000f550       ??0?$allocator@U?$pair@$$CBUPoint@@U1@@std@@@std@@QAE@XZ 00410550 f i AStar.obj
 0001:0000f570       ??0?$allocator@UNode@@@std@@QAE@XZ 00410570 f i AStar.obj
 0001:0000f590       ??0?$allocator@UPoint@@@std@@QAE@XZ 00410590 f i AStar.obj
 0001:0000f5b0       ??0?$list@U?$pair@$$CBUPoint@@N@std@@V?$allocator@U?$pair@$$CBUPoint@@N@std@@@2@@std@@QAE@ABV?$allocator@U?$pair@$$CBUPoint@@N@std@@@1@@Z 004105b0 f i AStar.obj
 0001:0000f5f0       ??0?$list@U?$pair@$$CBUPoint@@U1@@std@@V?$allocator@U?$pair@$$CBUPoint@@U1@@std@@@2@@std@@QAE@ABV?$allocator@U?$pair@$$CBUPoint@@U1@@std@@@1@@Z 004105f0 f i AStar.obj
 0001:0000f630       ??0?$priority_queue@UNode@@V?$vector@UNode@@V?$allocator@UNode@@@std@@@std@@U?$less@UNode@@@3@@std@@QAE@XZ 00410630 f i AStar.obj
 0001:0000f660       ??0?$tuple@$$V@std@@QAE@ABV01@@Z 00410660 f i AStar.obj
 0001:0000f680       ??0?$tuple@ABUPoint@@@std@@QAE@$$QAV01@@Z 00410680 f i AStar.obj
 0001:0000f6b0       ??0?$unordered_map@UPoint@@NU?$hash@UPoint@@@std@@U?$equal_to@UPoint@@@3@V?$allocator@U?$pair@$$CBUPoint@@N@std@@@3@@std@@QAE@XZ 004106b0 f i AStar.obj
 0001:0000f6f0       ??0?$unordered_map@UPoint@@U1@U?$hash@UPoint@@@std@@U?$equal_to@UPoint@@@3@V?$allocator@U?$pair@$$CBUPoint@@U1@@std@@@3@@std@@QAE@ABV01@@Z 004106f0 f i AStar.obj
 0001:0000f740       ??0?$unordered_map@UPoint@@U1@U?$hash@UPoint@@@std@@U?$equal_to@UPoint@@@3@V?$allocator@U?$pair@$$CBUPoint@@U1@@std@@@3@@std@@QAE@XZ 00410740 f i AStar.obj
 0001:0000f780       ??0?$vector@UNode@@V?$allocator@UNode@@@std@@@std@@QAE@XZ 00410780 f i AStar.obj
 0001:0000f800       ??0?$vector@UPoint@@V?$allocator@UPoint@@@std@@@std@@QAE@$$QAV01@@Z 00410800 f i AStar.obj
 0001:0000f930       ??0?$vector@UPoint@@V?$allocator@UPoint@@@std@@@std@@QAE@XZ 00410930 f i AStar.obj
 0001:0000f9b0       ??0_Basic_container_proxy_ptr12@std@@IAE@XZ 004109b0 f i AStar.obj
 0001:0000f9d0       ??0_Clear_guard@?$_Hash@V?$_Umap_traits@UPoint@@NV?$_Uhash_compare@UPoint@@U?$hash@UPoint@@@std@@U?$equal_to@UPoint@@@3@@std@@V?$allocator@U?$pair@$$CBUPoint@@N@std@@@3@$0A@@std@@@std@@QAE@QAV12@@Z 004109d0 f i AStar.obj
 0001:0000f9f0       ??0_Clear_guard@?$_Hash@V?$_Umap_traits@UPoint@@U1@V?$_Uhash_compare@UPoint@@U?$hash@UPoint@@@std@@U?$equal_to@UPoint@@@3@@std@@V?$allocator@U?$pair@$$CBUPoint@@U1@@std@@@3@$0A@@std@@@std@@QAE@QAV12@@Z 004109f0 f i AStar.obj
 0001:0000fa10       ??0_Container_base12@std@@QAE@XZ 00410a10 f i AStar.obj
 0001:0000fa30       ??0_Container_proxy@std@@QAE@PAU_Container_base12@1@@Z 00410a30 f i AStar.obj
 0001:0000fa60       ??0_Iterator_base12@std@@QAE@ABU01@@Z 00410a60 f i AStar.obj
 0001:0000faa0       ??0_Iterator_base12@std@@QAE@XZ 00410aa0 f i AStar.obj
 0001:0000fad0       ??0bad_alloc@std@@AAE@QBD@Z 00410ad0 f i AStar.obj
 0001:0000fb00       ??0bad_alloc@std@@QAE@ABV01@@Z 00410b00 f i AStar.obj
 0001:0000fb30       ??0bad_array_new_length@std@@QAE@ABV01@@Z 00410b30 f i AStar.obj
 0001:0000fb60       ??0bad_array_new_length@std@@QAE@XZ 00410b60 f i AStar.obj
 0001:0000fb90       ??0exception@std@@QAE@ABV01@@Z 00410b90 f i AStar.obj
 0001:0000fbe0       ??0exception@std@@QAE@QBDH@Z 00410be0 f i AStar.obj
 0001:0000fc20       ??1?$_Alloc_construct_ptr@V?$allocator@U?$_List_node@U?$pair@$$CBUPoint@@N@std@@PAX@std@@@std@@@std@@QAE@XZ 00410c20 f i AStar.obj
 0001:0000fc90       ??1?$_Alloc_construct_ptr@V?$allocator@U?$_List_node@U?$pair@$$CBUPoint@@U1@@std@@PAX@std@@@std@@@std@@QAE@XZ 00410c90 f i AStar.obj
 0001:0000fd00       ??1?$_Container_proxy_ptr12@V?$allocator@U_Container_proxy@std@@@std@@@std@@QAE@XZ 00410d00 f i AStar.obj
 0001:0000fd40       ??1?$_Hash@V?$_Umap_traits@UPoint@@NV?$_Uhash_compare@UPoint@@U?$hash@UPoint@@@std@@U?$equal_to@UPoint@@@3@@std@@V?$allocator@U?$pair@$$CBUPoint@@N@std@@@3@$0A@@std@@@std@@QAE@XZ 00410d40 f i AStar.obj
 0001:0000fd70       ??1?$_Hash@V?$_Umap_traits@UPoint@@U1@V?$_Uhash_compare@UPoint@@U?$hash@UPoint@@@std@@U?$equal_to@UPoint@@@3@@std@@V?$allocator@U?$pair@$$CBUPoint@@U1@@std@@@3@$0A@@std@@@std@@QAE@XZ 00410d70 f i AStar.obj
 0001:0000fda0       ??1?$_Hash_vec@V?$allocator@V?$_List_unchecked_iterator@V?$_List_val@U?$_List_simple_types@U?$pair@$$CBUPoint@@N@std@@@std@@@std@@@std@@@std@@@std@@QAE@XZ 00410da0 f i AStar.obj
 0001:0000fe10       ??1?$_Hash_vec@V?$allocator@V?$_List_unchecked_iterator@V?$_List_val@U?$_List_simple_types@U?$pair@$$CBUPoint@@U1@@std@@@std@@@std@@@std@@@std@@@std@@QAE@XZ 00410e10 f i AStar.obj
 0001:0000fe80       ??1?$_List_const_iterator@V?$_List_val@U?$_List_simple_types@U?$pair@$$CBUPoint@@U1@@std@@@std@@@std@@@std@@QAE@XZ 00410e80 f i AStar.obj
 0001:0000fea0       ??1?$_List_iterator@V?$_List_val@U?$_List_simple_types@U?$pair@$$CBUPoint@@U1@@std@@@std@@@std@@@std@@QAE@XZ 00410ea0 f i AStar.obj
 0001:0000fec0       ??1?$_List_node_emplace_op2@V?$allocator@U?$_List_node@U?$pair@$$CBUPoint@@N@std@@PAX@std@@@std@@@std@@QAE@XZ 00410ec0 f i AStar.obj
 0001:0000ff50       ??1?$_List_node_emplace_op2@V?$allocator@U?$_List_node@U?$pair@$$CBUPoint@@U1@@std@@PAX@std@@@std@@@std@@QAE@XZ 00410f50 f i AStar.obj
 0001:0000ffe0       ??1?$_List_unchecked_const_iterator@V?$_List_val@U?$_List_simple_types@U?$pair@$$CBUPoint@@U1@@std@@@std@@@std@@U_Iterator_base12@2@@std@@QAE@XZ 00410fe0 f i AStar.obj
 0001:00010000       ??1?$_Uninitialized_backout@PAV?$_List_unchecked_iterator@V?$_List_val@U?$_List_simple_types@U?$pair@$$CBUPoint@@N@std@@@std@@@std@@@std@@@std@@QAE@XZ 00411000 f i AStar.obj
 0001:00010030       ??1?$_Uninitialized_backout@PAV?$_List_unchecked_iterator@V?$_List_val@U?$_List_simple_types@U?$pair@$$CBUPoint@@U1@@std@@@std@@@std@@@std@@@std@@QAE@XZ 00411030 f i AStar.obj
 0001:00010060       ??1?$_Uninitialized_backout_al@V?$allocator@UNode@@@std@@@std@@QAE@XZ 00411060 f i AStar.obj
 0001:00010090       ??1?$_Uninitialized_backout_al@V?$allocator@UPoint@@@std@@@std@@QAE@XZ 00411090 f i AStar.obj
 0001:000100c0       ??1?$_Vector_const_iterator@V?$_Vector_val@U?$_Simple_types@UNode@@@std@@@std@@@std@@QAE@XZ 004110c0 f i AStar.obj
 0001:000100e0       ??1?$_Vector_const_iterator@V?$_Vector_val@U?$_Simple_types@UPoint@@@std@@@std@@@std@@QAE@XZ 004110e0 f i AStar.obj
 0001:00010100       ??1?$_Vector_iterator@V?$_Vector_val@U?$_Simple_types@UNode@@@std@@@std@@@std@@QAE@XZ 00411100 f i AStar.obj
 0001:00010120       ??1?$_Vector_iterator@V?$_Vector_val@U?$_Simple_types@UPoint@@@std@@@std@@@std@@QAE@XZ 00411120 f i AStar.obj
 0001:00010140       ??1?$list@U?$pair@$$CBUPoint@@N@std@@V?$allocator@U?$pair@$$CBUPoint@@N@std@@@2@@std@@QAE@XZ 00411140 f i AStar.obj
 0001:00010190       ??1?$list@U?$pair@$$CBUPoint@@U1@@std@@V?$allocator@U?$pair@$$CBUPoint@@U1@@std@@@2@@std@@QAE@XZ 00411190 f i AStar.obj
 0001:000101e0       ??1?$pair@V?$_List_iterator@V?$_List_val@U?$_List_simple_types@U?$pair@$$CBUPoint@@U1@@std@@@std@@@std@@@std@@_N@std@@QAE@XZ 004111e0 f i AStar.obj
 0001:00010200       ??1?$priority_queue@UNode@@V?$vector@UNode@@V?$allocator@UNode@@@std@@@std@@U?$less@UNode@@@3@@std@@QAE@XZ 00411200 f i AStar.obj
 0001:00010220       ??1?$unordered_map@UPoint@@NU?$hash@UPoint@@@std@@U?$equal_to@UPoint@@@3@V?$allocator@U?$pair@$$CBUPoint@@N@std@@@3@@std@@QAE@XZ 00411220 f i AStar.obj
 0001:00010240       ??1?$unordered_map@UPoint@@U1@U?$hash@UPoint@@@std@@U?$equal_to@UPoint@@@3@V?$allocator@U?$pair@$$CBUPoint@@U1@@std@@@3@@std@@QAE@XZ 00411240 f i AStar.obj
 0001:00010260       ??1?$vector@UNode@@V?$allocator@UNode@@@std@@@std@@QAE@XZ 00411260 f i AStar.obj
 0001:000102d0       ??1?$vector@UPoint@@V?$allocator@UPoint@@@std@@@std@@QAE@XZ 004112d0 f i AStar.obj
 0001:00010340       ??1_Clear_guard@?$_Hash@V?$_Umap_traits@UPoint@@NV?$_Uhash_compare@UPoint@@U?$hash@UPoint@@@std@@U?$equal_to@UPoint@@@3@@std@@V?$allocator@U?$pair@$$CBUPoint@@N@std@@@3@$0A@@std@@@std@@QAE@XZ 00411340 f i AStar.obj
 0001:00010370       ??1_Clear_guard@?$_Hash@V?$_Umap_traits@UPoint@@U1@V?$_Uhash_compare@UPoint@@U?$hash@UPoint@@@std@@U?$equal_to@UPoint@@@3@@std@@V?$allocator@U?$pair@$$CBUPoint@@U1@@std@@@3@$0A@@std@@@std@@QAE@XZ 00411370 f i AStar.obj
 0001:000103a0       ??1_Iterator_base12@std@@QAE@XZ 004113a0 f i AStar.obj
 0001:000103c0       ??1bad_alloc@std@@UAE@XZ   004113c0 f i AStar.obj
 0001:000103e0       ??1bad_array_new_length@std@@UAE@XZ 004113e0 f i AStar.obj
 0001:00010400       ??1exception@std@@UAE@XZ   00411400 f i AStar.obj
 0001:00010430       ??2@YAPAXIPAX@Z            00411430 f i AStar.obj
 0001:00010440       ??4_Iterator_base12@std@@QAEAAU01@ABU01@@Z 00411440 f i AStar.obj
 0001:00010470       ??8?$_List_unchecked_const_iterator@V?$_List_val@U?$_List_simple_types@U?$pair@$$CBUPoint@@N@std@@@std@@@std@@U_Iterator_base0@2@@std@@QBE_NABV01@@Z 00411470 f i AStar.obj
 0001:000104b0       ??8?$_List_unchecked_const_iterator@V?$_List_val@U?$_List_simple_types@U?$pair@$$CBUPoint@@U1@@std@@@std@@@std@@U_Iterator_base0@2@@std@@QBE_NABV01@@Z 004114b0 f i AStar.obj
 0001:000104f0       ??8Point@@QBE_NABU0@@Z     004114f0 f i AStar.obj
 0001:00010540       ??9?$_List_unchecked_const_iterator@V?$_List_val@U?$_List_simple_types@U?$pair@$$CBUPoint@@N@std@@@std@@@std@@U_Iterator_base0@2@@std@@QBE_NABV01@@Z 00411540 f i AStar.obj
 0001:00010590       ??9?$_List_unchecked_const_iterator@V?$_List_val@U?$_List_simple_types@U?$pair@$$CBUPoint@@U1@@std@@@std@@@std@@U_Iterator_base0@2@@std@@QBE_NABV01@@Z 00411590 f i AStar.obj
 0001:000105e0       ??9Point@@QBE_NABU0@@Z     004115e0 f i AStar.obj
 0001:00010630       ??A?$unordered_map@UPoint@@NU?$hash@UPoint@@@std@@U?$equal_to@UPoint@@@3@V?$allocator@U?$pair@$$CBUPoint@@N@std@@@3@@std@@QAEAANABUPoint@@@Z 00411630 f i AStar.obj
 0001:00010660       ??A?$unordered_map@UPoint@@U1@U?$hash@UPoint@@@std@@U?$equal_to@UPoint@@@3@V?$allocator@U?$pair@$$CBUPoint@@U1@@std@@@3@@std@@QAEAAUPoint@@ABU2@@Z 00411660 f i AStar.obj
 0001:00010690       ??A?$vector@UPoint@@V?$allocator@UPoint@@@std@@@std@@QAEAAUPoint@@I@Z 00411690 f i AStar.obj
 0001:00010740       ??D?$_List_unchecked_const_iterator@V?$_List_val@U?$_List_simple_types@U?$pair@$$CBUPoint@@N@std@@@std@@@std@@U_Iterator_base0@2@@std@@QBEABU?$pair@$$CBUPoint@@N@1@XZ 00411740 f i AStar.obj
 0001:00010760       ??D?$_List_unchecked_const_iterator@V?$_List_val@U?$_List_simple_types@U?$pair@$$CBUPoint@@U1@@std@@@std@@@std@@U_Iterator_base0@2@@std@@QBEABU?$pair@$$CBUPoint@@U1@@1@XZ 00411760 f i AStar.obj
 0001:00010780       ??D?$_List_unchecked_iterator@V?$_List_val@U?$_List_simple_types@U?$pair@$$CBUPoint@@N@std@@@std@@@std@@@std@@QBEAAU?$pair@$$CBUPoint@@N@1@XZ 00411780 f i AStar.obj
 0001:000107a0       ??D?$_List_unchecked_iterator@V?$_List_val@U?$_List_simple_types@U?$pair@$$CBUPoint@@U1@@std@@@std@@@std@@@std@@QBEAAU?$pair@$$CBUPoint@@U1@@1@XZ 004117a0 f i AStar.obj
 0001:000107c0       ??E?$_List_unchecked_const_iterator@V?$_List_val@U?$_List_simple_types@U?$pair@$$CBUPoint@@N@std@@@std@@@std@@U_Iterator_base0@2@@std@@QAEAAV01@XZ 004117c0 f i AStar.obj
 0001:000107e0       ??E?$_List_unchecked_const_iterator@V?$_List_val@U?$_List_simple_types@U?$pair@$$CBUPoint@@U1@@std@@@std@@@std@@U_Iterator_base0@2@@std@@QAEAAV01@XZ 004117e0 f i AStar.obj
 0001:00010800       ??E?$_List_unchecked_iterator@V?$_List_val@U?$_List_simple_types@U?$pair@$$CBUPoint@@N@std@@@std@@@std@@@std@@QAEAAV01@XZ 00411800 f i AStar.obj
 0001:00010820       ??E?$_List_unchecked_iterator@V?$_List_val@U?$_List_simple_types@U?$pair@$$CBUPoint@@U1@@std@@@std@@@std@@@std@@QAEAAV01@XZ 00411820 f i AStar.obj
 0001:00010840       ??F?$_List_unchecked_const_iterator@V?$_List_val@U?$_List_simple_types@U?$pair@$$CBUPoint@@N@std@@@std@@@std@@U_Iterator_base0@2@@std@@QAEAAV01@XZ 00411840 f i AStar.obj
 0001:00010870       ??F?$_List_unchecked_const_iterator@V?$_List_val@U?$_List_simple_types@U?$pair@$$CBUPoint@@U1@@std@@@std@@@std@@U_Iterator_base0@2@@std@@QAEAAV01@XZ 00411870 f i AStar.obj
 0001:000108a0       ??MNode@@QBE_NABU0@@Z      004118a0 f i AStar.obj
 0001:000108f0       ??R?$_Conditionally_enabled_hash@H$00@std@@QBEIABH@Z 004118f0 f i AStar.obj
 0001:00010910       ??R?$equal_to@UPoint@@@std@@QBE_NABUPoint@@0@Z 00411910 f i AStar.obj
 0001:00010930       ??R?$hash@UPoint@@@std@@QBEIABUPoint@@@Z 00411930 f i AStar.obj
 0001:00010970       ??R?$less@UNode@@@std@@QBE_NABUNode@@0@Z 00411970 f i AStar.obj
 0001:00010990       ??_Ebad_alloc@std@@UAEPAXI@Z 00411990 f i AStar.obj
 0001:00010990       ??_Gbad_alloc@std@@UAEPAXI@Z 00411990 f i AStar.obj
 0001:000109d0       ??_Gbad_array_new_length@std@@UAEPAXI@Z 004119d0 f i AStar.obj
 0001:000109d0       ??_Ebad_array_new_length@std@@UAEPAXI@Z 004119d0 f i AStar.obj
 0001:00010a10       ??_Gexception@std@@UAEPAXI@Z 00411a10 f i AStar.obj
 0001:00010a10       ??_Eexception@std@@UAEPAXI@Z 00411a10 f i AStar.obj
 0001:00010a50       ?_Adjust_manually_vector_aligned@std@@YAXAAPAXAAI@Z 00411a50 f i AStar.obj
 0001:00010ba0       ?_Adopt@_Iterator_base0@std@@QAEXPBX@Z 00411ba0 f i AStar.obj
 0001:00010bb0       ?_Adopt@_Iterator_base12@std@@QAEXPBU_Container_base12@2@@Z 00411bb0 f i AStar.obj
 0001:00010bd0       ?_Adopt_locked@_Iterator_base12@std@@AAEXPBU_Container_base12@2@@Z 00411bd0 f i AStar.obj
 0001:00010c10       ?_Adopt_unlocked@_Iterator_base12@std@@AAEXPBU_Container_base12@2@@Z 00411c10 f i AStar.obj
 0001:00010c90       ?_Alloc_sentinel_and_proxy@?$list@U?$pair@$$CBUPoint@@N@std@@V?$allocator@U?$pair@$$CBUPoint@@N@std@@@2@@std@@AAEXXZ 00411c90 f i AStar.obj
 0001:00010d80       ?_Alloc_sentinel_and_proxy@?$list@U?$pair@$$CBUPoint@@U1@@std@@V?$allocator@U?$pair@$$CBUPoint@@U1@@std@@@2@@std@@AAEXXZ 00411d80 f i AStar.obj
 0001:00010e70       ?_Allocate@?$_Alloc_construct_ptr@V?$allocator@U?$_List_node@U?$pair@$$CBUPoint@@N@std@@PAX@std@@@std@@@std@@QAEXXZ 00411e70 f i AStar.obj
 0001:00010ea0       ?_Allocate@?$_Alloc_construct_ptr@V?$allocator@U?$_List_node@U?$pair@$$CBUPoint@@U1@@std@@PAX@std@@@std@@@std@@QAEXXZ 00411ea0 f i AStar.obj
 0001:00010ed0       ?_Allocate@_Default_allocate_traits@std@@SAPAXI@Z 00411ed0 f i AStar.obj
 0001:00010ef0       ?_Assign_grow@?$_Hash_vec@V?$allocator@V?$_List_unchecked_iterator@V?$_List_val@U?$_List_simple_types@U?$pair@$$CBUPoint@@N@std@@@std@@@std@@@std@@@std@@@std@@QAEXIV?$_List_unchecked_iterator@V?$_List_val@U?$_List_simple_types@U?$pair@$$CBUPoint@@N@std@@@std@@@std@@@2@@Z 00411ef0 f i AStar.obj
 0001:00010ff0       ?_Assign_grow@?$_Hash_vec@V?$allocator@V?$_List_unchecked_iterator@V?$_List_val@U?$_List_simple_types@U?$pair@$$CBUPoint@@U1@@std@@@std@@@std@@@std@@@std@@@std@@QAEXIV?$_List_unchecked_iterator@V?$_List_val@U?$_List_simple_types@U?$pair@$$CBUPoint@@U1@@std@@@std@@@std@@@2@@Z 00411ff0 f i AStar.obj
 0001:000110f0       ?_Assign_locked@_Iterator_base12@std@@AAEXABU12@@Z 004120f0 f i AStar.obj
 0001:00011130       ?_Assign_unlocked@_Iterator_base12@std@@AAEXABU12@@Z 00412130 f i AStar.obj
 0001:00011180       ?_Calculate_growth@?$vector@UNode@@V?$allocator@UNode@@@std@@@std@@ABEII@Z 00412180 f i AStar.obj
 0001:000111f0       ?_Calculate_growth@?$vector@UPoint@@V?$allocator@UPoint@@@std@@@std@@ABEII@Z 004121f0 f i AStar.obj
 0001:00011260       ?_Ceiling_of_log_2@std@@YAKI@Z 00412260 f i AStar.obj
 0001:00011280       ?_Change_array@?$vector@UNode@@V?$allocator@UNode@@@std@@@std@@AAEXQAUNode@@II@Z 00412280 f i AStar.obj
 0001:00011350       ?_Change_array@?$vector@UPoint@@V?$allocator@UPoint@@@std@@@std@@AAEXQAUPoint@@II@Z 00412350 f i AStar.obj
 0001:00011420       ?_Check_max_size@?$_Hash@V?$_Umap_traits@UPoint@@NV?$_Uhash_compare@UPoint@@U?$hash@UPoint@@@std@@U?$equal_to@UPoint@@@3@@std@@V?$allocator@U?$pair@$$CBUPoint@@N@std@@@3@$0A@@std@@@std@@IBEXXZ 00412420 f i AStar.obj
 0001:00011460       ?_Check_max_size@?$_Hash@V?$_Umap_traits@UPoint@@U1@V?$_Uhash_compare@UPoint@@U?$hash@UPoint@@@std@@U?$equal_to@UPoint@@@3@@std@@V?$allocator@U?$pair@$$CBUPoint@@U1@@std@@@3@$0A@@std@@@std@@IBEXXZ 00412460 f i AStar.obj
 0001:000114a0       ?_Check_rehash_required_1@?$_Hash@V?$_Umap_traits@UPoint@@NV?$_Uhash_compare@UPoint@@U?$hash@UPoint@@@std@@U?$equal_to@UPoint@@@3@@std@@V?$allocator@U?$pair@$$CBUPoint@@N@std@@@3@$0A@@std@@@std@@IBE_NXZ 004124a0 f i AStar.obj
 0001:00011580       ?_Check_rehash_required_1@?$_Hash@V?$_Umap_traits@UPoint@@U1@V?$_Uhash_compare@UPoint@@U?$hash@UPoint@@@std@@U?$equal_to@UPoint@@@3@@std@@V?$allocator@U?$pair@$$CBUPoint@@U1@@std@@@3@$0A@@std@@@std@@IBE_NXZ 00412580 f i AStar.obj
 0001:00011660       ?_Desired_grow_bucket_count@?$_Hash@V?$_Umap_traits@UPoint@@NV?$_Uhash_compare@UPoint@@U?$hash@UPoint@@@std@@U?$equal_to@UPoint@@@3@@std@@V?$allocator@U?$pair@$$CBUPoint@@N@std@@@3@$0A@@std@@@std@@IBEII@Z 00412660 f i AStar.obj
 0001:000116f0       ?_Desired_grow_bucket_count@?$_Hash@V?$_Umap_traits@UPoint@@U1@V?$_Uhash_compare@UPoint@@U?$hash@UPoint@@@std@@U?$equal_to@UPoint@@@3@@std@@V?$allocator@U?$pair@$$CBUPoint@@U1@@std@@@3@$0A@@std@@@std@@IBEII@Z 004126f0 f i AStar.obj
 0001:00011780       ?_Destroy@?$vector@UNode@@V?$allocator@UNode@@@std@@@std@@AAEXPAUNode@@0@Z 00412780 f i AStar.obj
 0001:000117b0       ?_Destroy@?$vector@UPoint@@V?$allocator@UPoint@@@std@@@std@@AAEXPAUPoint@@0@Z 004127b0 f i AStar.obj
 0001:000117e0       ?_Do_hash@?$hash@H@std@@SAIABH@Z 004127e0 f i AStar.obj
 0001:00011800       ?_Extract@?$_In_place_key_extract_map@UPoint@@U?$pair@$$CBUPoint@@U1@@std@@@std@@SAABUPoint@@ABU?$pair@$$CBUPoint@@U1@@2@@Z 00412800 f i AStar.obj
 0001:00011810       ?_Floor_of_log_2@std@@YAKI@Z 00412810 f i AStar.obj
 0001:00011840       ?_Fnv1a_append_bytes@std@@YAIIQBEI@Z 00412840 f i AStar.obj
 0001:00011890       ?_Forced_rehash@?$_Hash@V?$_Umap_traits@UPoint@@NV?$_Uhash_compare@UPoint@@U?$hash@UPoint@@@std@@U?$equal_to@UPoint@@@3@@std@@V?$allocator@U?$pair@$$CBUPoint@@N@std@@@3@$0A@@std@@@std@@IAEXI@Z 00412890 f i AStar.obj
 0001:00011bb0       ?_Forced_rehash@?$_Hash@V?$_Umap_traits@UPoint@@U1@V?$_Uhash_compare@UPoint@@U?$hash@UPoint@@@std@@U?$equal_to@UPoint@@@3@@std@@V?$allocator@U?$pair@$$CBUPoint@@U1@@std@@@3@$0A@@std@@@std@@IAEXI@Z 00412bb0 f i AStar.obj
 0001:00011ed0       ?_Get_first@?$_Compressed_pair@U?$equal_to@UPoint@@@std@@M$00@std@@QBEABU?$equal_to@UPoint@@@2@XZ 00412ed0 f i AStar.obj
 0001:00011ef0       ?_Get_first@?$_Compressed_pair@U?$hash@UPoint@@@std@@V?$_Compressed_pair@U?$equal_to@UPoint@@@std@@M$00@2@$00@std@@QBEABU?$hash@UPoint@@@2@XZ 00412ef0 f i AStar.obj
 0001:00011f10       ?_Get_first@?$_Compressed_pair@V?$allocator@U?$_List_node@U?$pair@$$CBUPoint@@N@std@@PAX@std@@@std@@V?$_List_val@U?$_List_simple_types@U?$pair@$$CBUPoint@@N@std@@@std@@@2@$00@std@@QAEAAV?$allocator@U?$_List_node@U?$pair@$$CBUPoint@@N@std@@PAX@std@@@2@XZ 00412f10 f i AStar.obj
 0001:00011f30       ?_Get_first@?$_Compressed_pair@V?$allocator@U?$_List_node@U?$pair@$$CBUPoint@@N@std@@PAX@std@@@std@@V?$_List_val@U?$_List_simple_types@U?$pair@$$CBUPoint@@N@std@@@std@@@2@$00@std@@QBEABV?$allocator@U?$_List_node@U?$pair@$$CBUPoint@@N@std@@PAX@std@@@2@XZ 00412f30 f i AStar.obj
 0001:00011f50       ?_Get_first@?$_Compressed_pair@V?$allocator@U?$_List_node@U?$pair@$$CBUPoint@@U1@@std@@PAX@std@@@std@@V?$_List_val@U?$_List_simple_types@U?$pair@$$CBUPoint@@U1@@std@@@std@@@2@$00@std@@QAEAAV?$allocator@U?$_List_node@U?$pair@$$CBUPoint@@U1@@std@@PAX@std@@@2@XZ 00412f50 f i AStar.obj
 0001:00011f70       ?_Get_first@?$_Compressed_pair@V?$allocator@U?$_List_node@U?$pair@$$CBUPoint@@U1@@std@@PAX@std@@@std@@V?$_List_val@U?$_List_simple_types@U?$pair@$$CBUPoint@@U1@@std@@@std@@@2@$00@std@@QBEABV?$allocator@U?$_List_node@U?$pair@$$CBUPoint@@U1@@std@@PAX@std@@@2@XZ 00412f70 f i AStar.obj
 0001:00011f90       ?_Get_first@?$_Compressed_pair@V?$allocator@UNode@@@std@@V?$_Vector_val@U?$_Simple_types@UNode@@@std@@@2@$00@std@@QAEAAV?$allocator@UNode@@@2@XZ 00412f90 f i AStar.obj
 0001:00011fb0       ?_Get_first@?$_Compressed_pair@V?$allocator@UNode@@@std@@V?$_Vector_val@U?$_Simple_types@UNode@@@std@@@2@$00@std@@QBEABV?$allocator@UNode@@@2@XZ 00412fb0 f i AStar.obj
 0001:00011fd0       ?_Get_first@?$_Compressed_pair@V?$allocator@UPoint@@@std@@V?$_Vector_val@U?$_Simple_types@UPoint@@@std@@@2@$00@std@@QAEAAV?$allocator@UPoint@@@2@XZ 00412fd0 f i AStar.obj
 0001:00011ff0       ?_Get_first@?$_Compressed_pair@V?$allocator@UPoint@@@std@@V?$_Vector_val@U?$_Simple_types@UPoint@@@std@@@2@$00@std@@QBEABV?$allocator@UPoint@@@2@XZ 00412ff0 f i AStar.obj
 0001:00012010       ?_Get_first@?$_Compressed_pair@V?$allocator@V?$_List_unchecked_iterator@V?$_List_val@U?$_List_simple_types@U?$pair@$$CBUPoint@@N@std@@@std@@@std@@@std@@@std@@V?$_Vector_val@U?$_Simple_types@V?$_List_unchecked_iterator@V?$_List_val@U?$_List_simple_types@U?$pair@$$CBUPoint@@N@std@@@std@@@std@@@std@@@std@@@2@$00@std@@QAEAAV?$allocator@V?$_List_unchecked_iterator@V?$_List_val@U?$_List_simple_types@U?$pair@$$CBUPoint@@N@std@@@std@@@std@@@std@@@2@XZ 00413010 f i AStar.obj
 0001:00012030       ?_Get_first@?$_Compressed_pair@V?$allocator@V?$_List_unchecked_iterator@V?$_List_val@U?$_List_simple_types@U?$pair@$$CBUPoint@@N@std@@@std@@@std@@@std@@@std@@V?$_Vector_val@U?$_Simple_types@V?$_List_unchecked_iterator@V?$_List_val@U?$_List_simple_types@U?$pair@$$CBUPoint@@N@std@@@std@@@std@@@std@@@std@@@2@$00@std@@QBEABV?$allocator@V?$_List_unchecked_iterator@V?$_List_val@U?$_List_simple_types@U?$pair@$$CBUPoint@@N@std@@@std@@@std@@@std@@@2@XZ 00413030 f i AStar.obj
 0001:00012050       ?_Get_first@?$_Compressed_pair@V?$allocator@V?$_List_unchecked_iterator@V?$_List_val@U?$_List_simple_types@U?$pair@$$CBUPoint@@U1@@std@@@std@@@std@@@std@@@std@@V?$_Vector_val@U?$_Simple_types@V?$_List_unchecked_iterator@V?$_List_val@U?$_List_simple_types@U?$pair@$$CBUPoint@@U1@@std@@@std@@@std@@@std@@@std@@@2@$00@std@@QAEAAV?$allocator@V?$_List_unchecked_iterator@V?$_List_val@U?$_List_simple_types@U?$pair@$$CBUPoint@@U1@@std@@@std@@@std@@@std@@@2@XZ 00413050 f i AStar.obj
 0001:00012070       ?_Get_first@?$_Compressed_pair@V?$allocator@V?$_List_unchecked_iterator@V?$_List_val@U?$_List_simple_types@U?$pair@$$CBUPoint@@U1@@std@@@std@@@std@@@std@@@std@@V?$_Vector_val@U?$_Simple_types@V?$_List_unchecked_iterator@V?$_List_val@U?$_List_simple_types@U?$pair@$$CBUPoint@@U1@@std@@@std@@@std@@@std@@@std@@@2@$00@std@@QBEABV?$allocator@V?$_List_unchecked_iterator@V?$_List_val@U?$_List_simple_types@U?$pair@$$CBUPoint@@U1@@std@@@std@@@std@@@std@@@2@XZ 00413070 f i AStar.obj
 0001:00012090       ?_Get_max_bucket_size@?$_Uhash_compare@UPoint@@U?$hash@UPoint@@@std@@U?$equal_to@UPoint@@@3@@std@@QAEAAMXZ 00413090 f i AStar.obj
 0001:000120b0       ?_Get_max_bucket_size@?$_Uhash_compare@UPoint@@U?$hash@UPoint@@@std@@U?$equal_to@UPoint@@@3@@std@@QBEABMXZ 004130b0 f i AStar.obj
 0001:000120d0       ?_Getal@?$_Hash@V?$_Umap_traits@UPoint@@U1@V?$_Uhash_compare@UPoint@@U?$hash@UPoint@@@std@@U?$equal_to@UPoint@@@3@@std@@V?$allocator@U?$pair@$$CBUPoint@@U1@@std@@@3@$0A@@std@@@std@@IBEABV?$allocator@U?$_List_node@U?$pair@$$CBUPoint@@U1@@std@@PAX@std@@@2@XZ 004130d0 f i AStar.obj
 0001:000120f0       ?_Getal@?$list@U?$pair@$$CBUPoint@@N@std@@V?$allocator@U?$pair@$$CBUPoint@@N@std@@@2@@std@@AAEAAV?$allocator@U?$_List_node@U?$pair@$$CBUPoint@@N@std@@PAX@std@@@2@XZ 004130f0 f i AStar.obj
 0001:00012110       ?_Getal@?$list@U?$pair@$$CBUPoint@@N@std@@V?$allocator@U?$pair@$$CBUPoint@@N@std@@@2@@std@@ABEABV?$allocator@U?$_List_node@U?$pair@$$CBUPoint@@N@std@@PAX@std@@@2@XZ 00413110 f i AStar.obj
 0001:00012130       ?_Getal@?$list@U?$pair@$$CBUPoint@@U1@@std@@V?$allocator@U?$pair@$$CBUPoint@@U1@@std@@@2@@std@@AAEAAV?$allocator@U?$_List_node@U?$pair@$$CBUPoint@@U1@@std@@PAX@std@@@2@XZ 00413130 f i AStar.obj
 0001:00012150       ?_Getal@?$list@U?$pair@$$CBUPoint@@U1@@std@@V?$allocator@U?$pair@$$CBUPoint@@U1@@std@@@2@@std@@ABEABV?$allocator@U?$_List_node@U?$pair@$$CBUPoint@@U1@@std@@PAX@std@@@2@XZ 00413150 f i AStar.obj
 0001:00012170       ?_Getal@?$vector@UNode@@V?$allocator@UNode@@@std@@@std@@AAEAAV?$allocator@UNode@@@2@XZ 00413170 f i AStar.obj
 0001:00012190       ?_Getal@?$vector@UNode@@V?$allocator@UNode@@@std@@@std@@ABEABV?$allocator@UNode@@@2@XZ 00413190 f i AStar.obj
 0001:000121b0       ?_Getal@?$vector@UPoint@@V?$allocator@UPoint@@@std@@@std@@AAEAAV?$allocator@UPoint@@@2@XZ 004131b0 f i AStar.obj
 0001:000121d0       ?_Getal@?$vector@UPoint@@V?$allocator@UPoint@@@std@@@std@@ABEABV?$allocator@UPoint@@@2@XZ 004131d0 f i AStar.obj
 0001:000121f0       ?_Getcont@_Iterator_base12@std@@QBEPBU_Container_base12@2@XZ 004131f0 f i AStar.obj
 0001:00012230       ?_Insert_new_node_before@?$_Hash@V?$_Umap_traits@UPoint@@NV?$_Uhash_compare@UPoint@@U?$hash@UPoint@@@std@@U?$equal_to@UPoint@@@3@@std@@V?$allocator@U?$pair@$$CBUPoint@@N@std@@@3@$0A@@std@@@std@@IAEPAU?$_List_node@U?$pair@$$CBUPoint@@N@std@@PAX@2@IQAU32@0@Z 00413230 f i AStar.obj
 0001:00012350       ?_Insert_new_node_before@?$_Hash@V?$_Umap_traits@UPoint@@U1@V?$_Uhash_compare@UPoint@@U?$hash@UPoint@@@std@@U?$equal_to@UPoint@@@3@@std@@V?$allocator@U?$pair@$$CBUPoint@@U1@@std@@@3@$0A@@std@@@std@@IAEPAU?$_List_node@U?$pair@$$CBUPoint@@U1@@std@@PAX@2@IQAU32@0@Z 00413350 f i AStar.obj
 0001:00012470       ?_Make_iter@?$list@U?$pair@$$CBUPoint@@U1@@std@@V?$allocator@U?$pair@$$CBUPoint@@U1@@std@@@2@@std@@QBE?AV?$_List_iterator@V?$_List_val@U?$_List_simple_types@U?$pair@$$CBUPoint@@U1@@std@@@std@@@std@@@2@PAU?$_List_node@U?$pair@$$CBUPoint@@U1@@std@@PAX@2@@Z 00413470 f i AStar.obj
 0001:000124b0       ?_Max_bucket_size@?$_Hash@V?$_Umap_traits@UPoint@@NV?$_Uhash_compare@UPoint@@U?$hash@UPoint@@@std@@U?$equal_to@UPoint@@@3@@std@@V?$allocator@U?$pair@$$CBUPoint@@N@std@@@3@$0A@@std@@@std@@IAEAAMXZ 004134b0 f i AStar.obj
 0001:000124d0       ?_Max_bucket_size@?$_Hash@V?$_Umap_traits@UPoint@@NV?$_Uhash_compare@UPoint@@U?$hash@UPoint@@@std@@U?$equal_to@UPoint@@@3@@std@@V?$allocator@U?$pair@$$CBUPoint@@N@std@@@3@$0A@@std@@@std@@IBEABMXZ 004134d0 f i AStar.obj
 0001:000124f0       ?_Max_bucket_size@?$_Hash@V?$_Umap_traits@UPoint@@U1@V?$_Uhash_compare@UPoint@@U?$hash@UPoint@@@std@@U?$equal_to@UPoint@@@3@@std@@V?$allocator@U?$pair@$$CBUPoint@@U1@@std@@@3@$0A@@std@@@std@@IAEAAMXZ 004134f0 f i AStar.obj
 0001:00012510       ?_Max_bucket_size@?$_Hash@V?$_Umap_traits@UPoint@@U1@V?$_Uhash_compare@UPoint@@U?$hash@UPoint@@@std@@U?$equal_to@UPoint@@@3@@std@@V?$allocator@U?$pair@$$CBUPoint@@U1@@std@@@3@$0A@@std@@@std@@IBEABMXZ 00413510 f i AStar.obj
 0001:00012530       ?_Min_load_factor_buckets@?$_Hash@V?$_Umap_traits@UPoint@@NV?$_Uhash_compare@UPoint@@U?$hash@UPoint@@@std@@U?$equal_to@UPoint@@@3@@std@@V?$allocator@U?$pair@$$CBUPoint@@N@std@@@3@$0A@@std@@@std@@IBEII@Z 00413530 f i AStar.obj
 0001:000125c0       ?_Min_load_factor_buckets@?$_Hash@V?$_Umap_traits@UPoint@@U1@V?$_Uhash_compare@UPoint@@U?$hash@UPoint@@@std@@U?$equal_to@UPoint@@@3@@std@@V?$allocator@U?$pair@$$CBUPoint@@U1@@std@@@3@$0A@@std@@@std@@IBEII@Z 004135c0 f i AStar.obj
 0001:00012650       ?_Orphan_all@_Container_base12@std@@QAEXXZ 00413650 f i AStar.obj
 0001:00012670       ?_Orphan_all_locked_v3@_Container_base12@std@@AAEXXZ 00413670 f i AStar.obj
 0001:000126b0       ?_Orphan_all_unlocked_v3@_Container_base12@std@@AAEXXZ 004136b0 f i AStar.obj
 0001:00012720       ?_Orphan_me_locked_v3@_Iterator_base12@std@@AAEXXZ 00413720 f i AStar.obj
 0001:00012760       ?_Orphan_me_unlocked_v3@_Iterator_base12@std@@AAEXXZ 00413760 f i AStar.obj
 0001:00012850       ?_Orphan_non_end@?$_List_val@U?$_List_simple_types@U?$pair@$$CBUPoint@@N@std@@@std@@@std@@QAEXXZ 00413850 f i AStar.obj
 0001:000128f0       ?_Orphan_non_end@?$_List_val@U?$_List_simple_types@U?$pair@$$CBUPoint@@U1@@std@@@std@@@std@@QAEXXZ 004138f0 f i AStar.obj
 0001:00012990       ?_Orphan_range@?$vector@UNode@@V?$allocator@UNode@@@std@@@std@@ABEXPAUNode@@0@Z 00413990 f i AStar.obj
 0001:000129c0       ?_Orphan_range@?$vector@UPoint@@V?$allocator@UPoint@@@std@@@std@@ABEXPAUPoint@@0@Z 004139c0 f i AStar.obj
 0001:000129f0       ?_Orphan_range_locked@?$vector@UNode@@V?$allocator@UNode@@@std@@@std@@ABEXPAUNode@@0@Z 004139f0 f i AStar.obj
 0001:00012a80       ?_Orphan_range_locked@?$vector@UPoint@@V?$allocator@UPoint@@@std@@@std@@ABEXPAUPoint@@0@Z 00413a80 f i AStar.obj
 0001:00012b10       ?_Orphan_range_unlocked@?$vector@UNode@@V?$allocator@UNode@@@std@@@std@@ABEXPAUNode@@0@Z 00413b10 f i AStar.obj
 0001:00012ba0       ?_Orphan_range_unlocked@?$vector@UPoint@@V?$allocator@UPoint@@@std@@@std@@ABEXPAUPoint@@0@Z 00413ba0 f i AStar.obj
 0001:00012c30       ?_Rehash_for_1@?$_Hash@V?$_Umap_traits@UPoint@@NV?$_Uhash_compare@UPoint@@U?$hash@UPoint@@@std@@U?$equal_to@UPoint@@@3@@std@@V?$allocator@U?$pair@$$CBUPoint@@N@std@@@3@$0A@@std@@@std@@IAEXXZ 00413c30 f i AStar.obj
 0001:00012c80       ?_Rehash_for_1@?$_Hash@V?$_Umap_traits@UPoint@@U1@V?$_Uhash_compare@UPoint@@U?$hash@UPoint@@@std@@U?$equal_to@UPoint@@@3@@std@@V?$allocator@U?$pair@$$CBUPoint@@U1@@std@@@3@$0A@@std@@@std@@IAEXXZ 00413c80 f i AStar.obj
 0001:00012cd0       ?_Release@?$_Alloc_construct_ptr@V?$allocator@U?$_List_node@U?$pair@$$CBUPoint@@N@std@@PAX@std@@@std@@@std@@QAEPAU?$_List_node@U?$pair@$$CBUPoint@@N@std@@PAX@2@XZ 00413cd0 f i AStar.obj
 0001:00012d00       ?_Release@?$_Alloc_construct_ptr@V?$allocator@U?$_List_node@U?$pair@$$CBUPoint@@U1@@std@@PAX@std@@@std@@@std@@QAEPAU?$_List_node@U?$pair@$$CBUPoint@@U1@@std@@PAX@2@XZ 00413d00 f i AStar.obj
 0001:00012d30       ?_Release@?$_Uninitialized_backout@PAV?$_List_unchecked_iterator@V?$_List_val@U?$_List_simple_types@U?$pair@$$CBUPoint@@N@std@@@std@@@std@@@std@@@std@@QAEPAV?$_List_unchecked_iterator@V?$_List_val@U?$_List_simple_types@U?$pair@$$CBUPoint@@N@std@@@std@@@std@@@2@XZ 00413d30 f i AStar.obj
 0001:00012d60       ?_Release@?$_Uninitialized_backout@PAV?$_List_unchecked_iterator@V?$_List_val@U?$_List_simple_types@U?$pair@$$CBUPoint@@U1@@std@@@std@@@std@@@std@@@std@@QAEPAV?$_List_unchecked_iterator@V?$_List_val@U?$_List_simple_types@U?$pair@$$CBUPoint@@U1@@std@@@std@@@std@@@2@XZ 00413d60 f i AStar.obj
 0001:00012d90       ?_Release@?$_Uninitialized_backout_al@V?$allocator@UNode@@@std@@@std@@QAEPAUNode@@XZ 00413d90 f i AStar.obj
 0001:00012dc0       ?_Release@?$_Uninitialized_backout_al@V?$allocator@UPoint@@@std@@@std@@QAEPAUPoint@@XZ 00413dc0 f i AStar.obj
 0001:00012df0       ?_Release@_Basic_container_proxy_ptr12@std@@QAEXXZ 00413df0 f i AStar.obj
 0001:00012e10       ?_Swap_proxy_and_iterators@_Container_base12@std@@QAEXAAU12@@Z 00413e10 f i AStar.obj
 0001:00012e30       ?_Swap_proxy_and_iterators_locked@_Container_base12@std@@AAEXAAU12@@Z 00413e30 f i AStar.obj
 0001:00012e70       ?_Swap_proxy_and_iterators_unlocked@_Container_base12@std@@AAEXAAU12@@Z 00413e70 f i AStar.obj
 0001:00012ed0       ?_Throw_bad_array_new_length@std@@YAXXZ 00413ed0 f i AStar.obj
 0001:00012f00       ?_Tidy@?$_Hash_vec@V?$allocator@V?$_List_unchecked_iterator@V?$_List_val@U?$_List_simple_types@U?$pair@$$CBUPoint@@N@std@@@std@@@std@@@std@@@std@@@std@@QAEXXZ 00413f00 f i AStar.obj
 0001:00012fb0       ?_Tidy@?$_Hash_vec@V?$allocator@V?$_List_unchecked_iterator@V?$_List_val@U?$_List_simple_types@U?$pair@$$CBUPoint@@U1@@std@@@std@@@std@@@std@@@std@@@std@@QAEXXZ 00413fb0 f i AStar.obj
 0001:00013060       ?_Tidy@?$list@U?$pair@$$CBUPoint@@N@std@@V?$allocator@U?$pair@$$CBUPoint@@N@std@@@2@@std@@AAEXXZ 00414060 f i AStar.obj
 0001:000130c0       ?_Tidy@?$list@U?$pair@$$CBUPoint@@U1@@std@@V?$allocator@U?$pair@$$CBUPoint@@U1@@std@@@2@@std@@AAEXXZ 004140c0 f i AStar.obj
 0001:00013120       ?_Tidy@?$vector@UNode@@V?$allocator@UNode@@@std@@@std@@AAEXXZ 00414120 f i AStar.obj
 0001:00013210       ?_Tidy@?$vector@UPoint@@V?$allocator@UPoint@@@std@@@std@@AAEXXZ 00414210 f i AStar.obj
 0001:00013300       ?_Umove@?$vector@UNode@@V?$allocator@UNode@@@std@@@std@@AAEPAUNode@@PAU3@00@Z 00414300 f i AStar.obj
 0001:00013340       ?_Umove@?$vector@UPoint@@V?$allocator@UPoint@@@std@@@std@@AAEPAUPoint@@PAU3@00@Z 00414340 f i AStar.obj
 0001:00013380       ?_Umove_if_noexcept1@?$vector@UNode@@V?$allocator@UNode@@@std@@@std@@AAEXPAUNode@@00U?$integral_constant@_N$00@2@@Z 00414380 f i AStar.obj
 0001:000133c0       ?_Umove_if_noexcept1@?$vector@UPoint@@V?$allocator@UPoint@@@std@@@std@@AAEXPAUPoint@@00U?$integral_constant@_N$00@2@@Z 004143c0 f i AStar.obj
 0001:00013400       ?_Umove_if_noexcept@?$vector@UNode@@V?$allocator@UNode@@@std@@@std@@AAEXPAUNode@@00@Z 00414400 f i AStar.obj
 0001:00013440       ?_Umove_if_noexcept@?$vector@UPoint@@V?$allocator@UPoint@@@std@@@std@@AAEXPAUPoint@@00@Z 00414440 f i AStar.obj
 0001:00013480       ?_Unchecked_begin@?$_Hash@V?$_Umap_traits@UPoint@@NV?$_Uhash_compare@UPoint@@U?$hash@UPoint@@@std@@U?$equal_to@UPoint@@@3@@std@@V?$allocator@U?$pair@$$CBUPoint@@N@std@@@3@$0A@@std@@@std@@QAE?AV?$_List_unchecked_iterator@V?$_List_val@U?$_List_simple_types@U?$pair@$$CBUPoint@@N@std@@@std@@@std@@@2@XZ 00414480 f i AStar.obj
 0001:000134b0       ?_Unchecked_begin@?$_Hash@V?$_Umap_traits@UPoint@@U1@V?$_Uhash_compare@UPoint@@U?$hash@UPoint@@@std@@U?$equal_to@UPoint@@@3@@std@@V?$allocator@U?$pair@$$CBUPoint@@U1@@std@@@3@$0A@@std@@@std@@QAE?AV?$_List_unchecked_iterator@V?$_List_val@U?$_List_simple_types@U?$pair@$$CBUPoint@@U1@@std@@@std@@@std@@@2@XZ 004144b0 f i AStar.obj
 0001:000134e0       ?_Unchecked_begin@?$_Hash@V?$_Umap_traits@UPoint@@U1@V?$_Uhash_compare@UPoint@@U?$hash@UPoint@@@std@@U?$equal_to@UPoint@@@3@@std@@V?$allocator@U?$pair@$$CBUPoint@@U1@@std@@@3@$0A@@std@@@std@@QBE?AV?$_List_unchecked_const_iterator@V?$_List_val@U?$_List_simple_types@U?$pair@$$CBUPoint@@U1@@std@@@std@@@std@@U_Iterator_base0@2@@2@XZ 004144e0 f i AStar.obj
 0001:00013510       ?_Unchecked_begin@?$list@U?$pair@$$CBUPoint@@N@std@@V?$allocator@U?$pair@$$CBUPoint@@N@std@@@2@@std@@QAE?AV?$_List_unchecked_iterator@V?$_List_val@U?$_List_simple_types@U?$pair@$$CBUPoint@@N@std@@@std@@@std@@@2@XZ 00414510 f i AStar.obj
 0001:00013540       ?_Unchecked_begin@?$list@U?$pair@$$CBUPoint@@U1@@std@@V?$allocator@U?$pair@$$CBUPoint@@U1@@std@@@2@@std@@QAE?AV?$_List_unchecked_iterator@V?$_List_val@U?$_List_simple_types@U?$pair@$$CBUPoint@@U1@@std@@@std@@@std@@@2@XZ 00414540 f i AStar.obj
 0001:00013570       ?_Unchecked_begin@?$list@U?$pair@$$CBUPoint@@U1@@std@@V?$allocator@U?$pair@$$CBUPoint@@U1@@std@@@2@@std@@QBE?AV?$_List_unchecked_const_iterator@V?$_List_val@U?$_List_simple_types@U?$pair@$$CBUPoint@@U1@@std@@@std@@@std@@U_Iterator_base0@2@@2@XZ 00414570 f i AStar.obj
 0001:000135a0       ?_Unchecked_begin@?$vector@UPoint@@V?$allocator@UPoint@@@std@@@std@@QAEPAUPoint@@XZ 004145a0 f i AStar.obj
 0001:000135c0       ?_Unchecked_begin@?$vector@UPoint@@V?$allocator@UPoint@@@std@@@std@@QBEPBUPoint@@XZ 004145c0 f i AStar.obj
 0001:000135e0       ?_Unchecked_end@?$_Hash@V?$_Umap_traits@UPoint@@NV?$_Uhash_compare@UPoint@@U?$hash@UPoint@@@std@@U?$equal_to@UPoint@@@3@@std@@V?$allocator@U?$pair@$$CBUPoint@@N@std@@@3@$0A@@std@@@std@@QAE?AV?$_List_unchecked_iterator@V?$_List_val@U?$_List_simple_types@U?$pair@$$CBUPoint@@N@std@@@std@@@std@@@2@XZ 004145e0 f i AStar.obj
 0001:00013610       ?_Unchecked_end@?$_Hash@V?$_Umap_traits@UPoint@@U1@V?$_Uhash_compare@UPoint@@U?$hash@UPoint@@@std@@U?$equal_to@UPoint@@@3@@std@@V?$allocator@U?$pair@$$CBUPoint@@U1@@std@@@3@$0A@@std@@@std@@QAE?AV?$_List_unchecked_iterator@V?$_List_val@U?$_List_simple_types@U?$pair@$$CBUPoint@@U1@@std@@@std@@@std@@@2@XZ 00414610 f i AStar.obj
 0001:00013640       ?_Unchecked_end@?$_Hash@V?$_Umap_traits@UPoint@@U1@V?$_Uhash_compare@UPoint@@U?$hash@UPoint@@@std@@U?$equal_to@UPoint@@@3@@std@@V?$allocator@U?$pair@$$CBUPoint@@U1@@std@@@3@$0A@@std@@@std@@QBE?AV?$_List_unchecked_const_iterator@V?$_List_val@U?$_List_simple_types@U?$pair@$$CBUPoint@@U1@@std@@@std@@@std@@U_Iterator_base0@2@@2@XZ 00414640 f i AStar.obj
 0001:00013670       ?_Unchecked_end@?$list@U?$pair@$$CBUPoint@@N@std@@V?$allocator@U?$pair@$$CBUPoint@@N@std@@@2@@std@@QAE?AV?$_List_unchecked_iterator@V?$_List_val@U?$_List_simple_types@U?$pair@$$CBUPoint@@N@std@@@std@@@std@@@2@XZ 00414670 f i AStar.obj
 0001:000136a0       ?_Unchecked_end@?$list@U?$pair@$$CBUPoint@@U1@@std@@V?$allocator@U?$pair@$$CBUPoint@@U1@@std@@@2@@std@@QAE?AV?$_List_unchecked_iterator@V?$_List_val@U?$_List_simple_types@U?$pair@$$CBUPoint@@U1@@std@@@std@@@std@@@2@XZ 004146a0 f i AStar.obj
 0001:000136d0       ?_Unchecked_end@?$list@U?$pair@$$CBUPoint@@U1@@std@@V?$allocator@U?$pair@$$CBUPoint@@U1@@std@@@2@@std@@QBE?AV?$_List_unchecked_const_iterator@V?$_List_val@U?$_List_simple_types@U?$pair@$$CBUPoint@@U1@@std@@@std@@@std@@U_Iterator_base0@2@@2@XZ 004146d0 f i AStar.obj
 0001:00013700       ?_Unchecked_end@?$vector@UPoint@@V?$allocator@UPoint@@@std@@@std@@QAEPAUPoint@@XZ 00414700 f i AStar.obj
 0001:00013720       ?_Unchecked_end@?$vector@UPoint@@V?$allocator@UPoint@@@std@@@std@@QBEPBUPoint@@XZ 00414720 f i AStar.obj
 0001:00013740       ?_Unchecked_splice@?$_List_val@U?$_List_simple_types@U?$pair@$$CBUPoint@@N@std@@@std@@@std@@SAPAU?$_List_node@U?$pair@$$CBUPoint@@N@std@@PAX@2@QAU32@00@Z 00414740 f i AStar.obj
 0001:000137c0       ?_Unchecked_splice@?$_List_val@U?$_List_simple_types@U?$pair@$$CBUPoint@@U1@@std@@@std@@@std@@SAPAU?$_List_node@U?$pair@$$CBUPoint@@U1@@std@@PAX@2@QAU32@00@Z 004147c0 f i AStar.obj
 0001:00013840       ?_Unwrapped@?$_Vector_iterator@V?$_Vector_val@U?$_Simple_types@UNode@@@std@@@std@@@std@@QBEPAUNode@@XZ 00414840 f i AStar.obj
 0001:00013860       ?_Unwrapped@?$_Vector_iterator@V?$_Vector_val@U?$_Simple_types@UPoint@@@std@@@std@@@std@@QBEPAUPoint@@XZ 00414860 f i AStar.obj
 0001:00013880       ?_Verify_range@std@@YAXABV?$_Vector_const_iterator@V?$_Vector_val@U?$_Simple_types@UNode@@@std@@@std@@@1@0@Z 00414880 f i AStar.obj
 0001:00013980       ?_Verify_range@std@@YAXABV?$_Vector_const_iterator@V?$_Vector_val@U?$_Simple_types@UPoint@@@std@@@std@@@1@0@Z 00414980 f i AStar.obj
 0001:00013a80       ?_Xlength@?$vector@UNode@@V?$allocator@UNode@@@std@@@std@@CAXXZ 00414a80 f i AStar.obj
 0001:00013aa0       ?_Xlength@?$vector@UPoint@@V?$allocator@UPoint@@@std@@@std@@CAXXZ 00414aa0 f i AStar.obj
 0001:00013ac0       ?__empty_global_delete@@YAXPAX@Z 00414ac0 f i AStar.obj
 0001:00013ad0       ?__empty_global_delete@@YAXPAXI@Z 00414ad0 f i AStar.obj
 0001:00013ad0       ?__global_delete@@YAXPAXI@Z 00414ad0 f i AStar.obj
 0001:00013ae0       ?allocate@?$allocator@U?$_List_node@U?$pair@$$CBUPoint@@N@std@@PAX@std@@@std@@QAEPAU?$_List_node@U?$pair@$$CBUPoint@@N@std@@PAX@2@I@Z 00414ae0 f i AStar.obj
 0001:00013b10       ?allocate@?$allocator@U?$_List_node@U?$pair@$$CBUPoint@@U1@@std@@PAX@std@@@std@@QAEPAU?$_List_node@U?$pair@$$CBUPoint@@U1@@std@@PAX@2@I@Z 00414b10 f i AStar.obj
 0001:00013b40       ?allocate@?$allocator@UNode@@@std@@QAEPAUNode@@I@Z 00414b40 f i AStar.obj
 0001:00013b70       ?allocate@?$allocator@UPoint@@@std@@QAEPAUPoint@@I@Z 00414b70 f i AStar.obj
 0001:00013ba0       ?allocate@?$allocator@U_Container_proxy@std@@@std@@QAEPAU_Container_proxy@2@I@Z 00414ba0 f i AStar.obj
 0001:00013bd0       ?allocate@?$allocator@V?$_List_unchecked_iterator@V?$_List_val@U?$_List_simple_types@U?$pair@$$CBUPoint@@N@std@@@std@@@std@@@std@@@std@@QAEPAV?$_List_unchecked_iterator@V?$_List_val@U?$_List_simple_types@U?$pair@$$CBUPoint@@N@std@@@std@@@std@@@2@I@Z 00414bd0 f i AStar.obj
 0001:00013c00       ?allocate@?$allocator@V?$_List_unchecked_iterator@V?$_List_val@U?$_List_simple_types@U?$pair@$$CBUPoint@@U1@@std@@@std@@@std@@@std@@@std@@QAEPAV?$_List_unchecked_iterator@V?$_List_val@U?$_List_simple_types@U?$pair@$$CBUPoint@@U1@@std@@@std@@@std@@@2@I@Z 00414c00 f i AStar.obj
 0001:00013c30       ?begin@?$vector@UNode@@V?$allocator@UNode@@@std@@@std@@QAE?AV?$_Vector_iterator@V?$_Vector_val@U?$_Simple_types@UNode@@@std@@@std@@@2@XZ 00414c30 f i AStar.obj
 0001:00013c80       ?begin@?$vector@UPoint@@V?$allocator@UPoint@@@std@@@std@@QAE?AV?$_Vector_iterator@V?$_Vector_val@U?$_Simple_types@UPoint@@@std@@@std@@@2@XZ 00414c80 f i AStar.obj
 0001:00013cd0       ?bucket@?$_Hash@V?$_Umap_traits@UPoint@@NV?$_Uhash_compare@UPoint@@U?$hash@UPoint@@@std@@U?$equal_to@UPoint@@@3@@std@@V?$allocator@U?$pair@$$CBUPoint@@N@std@@@3@$0A@@std@@@std@@QBEIABUPoint@@@Z 00414cd0 f i AStar.obj
 0001:00013d00       ?bucket@?$_Hash@V?$_Umap_traits@UPoint@@U1@V?$_Uhash_compare@UPoint@@U?$hash@UPoint@@@std@@U?$equal_to@UPoint@@@3@@std@@V?$allocator@U?$pair@$$CBUPoint@@U1@@std@@@3@$0A@@std@@@std@@QBEIABUPoint@@@Z 00414d00 f i AStar.obj
 0001:00013d30       ?bucket_count@?$_Hash@V?$_Umap_traits@UPoint@@NV?$_Uhash_compare@UPoint@@U?$hash@UPoint@@@std@@U?$equal_to@UPoint@@@3@@std@@V?$allocator@U?$pair@$$CBUPoint@@N@std@@@3@$0A@@std@@@std@@QBEIXZ 00414d30 f i AStar.obj
 0001:00013d50       ?bucket_count@?$_Hash@V?$_Umap_traits@UPoint@@U1@V?$_Uhash_compare@UPoint@@U?$hash@UPoint@@@std@@U?$equal_to@UPoint@@@3@@std@@V?$allocator@U?$pair@$$CBUPoint@@U1@@std@@@3@$0A@@std@@@std@@QBEIXZ 00414d50 f i AStar.obj
 0001:00013d70       ?capacity@?$vector@UNode@@V?$allocator@UNode@@@std@@@std@@QBEIXZ 00414d70 f i AStar.obj
 0001:00013da0       ?capacity@?$vector@UPoint@@V?$allocator@UPoint@@@std@@@std@@QBEIXZ 00414da0 f i AStar.obj
 0001:00013dd0       ?clear@?$_Hash@V?$_Umap_traits@UPoint@@NV?$_Uhash_compare@UPoint@@U?$hash@UPoint@@@std@@U?$equal_to@UPoint@@@3@@std@@V?$allocator@U?$pair@$$CBUPoint@@N@std@@@3@$0A@@std@@@std@@QAEXXZ 00414dd0 f i AStar.obj
 0001:00013e70       ?clear@?$_Hash@V?$_Umap_traits@UPoint@@U1@V?$_Uhash_compare@UPoint@@U?$hash@UPoint@@@std@@U?$equal_to@UPoint@@@3@@std@@V?$allocator@U?$pair@$$CBUPoint@@U1@@std@@@3@$0A@@std@@@std@@QAEXXZ 00414e70 f i AStar.obj
 0001:00013f10       ?clear@?$list@U?$pair@$$CBUPoint@@N@std@@V?$allocator@U?$pair@$$CBUPoint@@N@std@@@2@@std@@QAEXXZ 00414f10 f i AStar.obj
 0001:00013f80       ?clear@?$list@U?$pair@$$CBUPoint@@U1@@std@@V?$allocator@U?$pair@$$CBUPoint@@U1@@std@@@2@@std@@QAEXXZ 00414f80 f i AStar.obj
 0001:00013ff0       ?deallocate@?$_Default_allocator_traits@V?$allocator@U?$_List_node@U?$pair@$$CBUPoint@@N@std@@PAX@std@@@std@@@std@@SAXAAV?$allocator@U?$_List_node@U?$pair@$$CBUPoint@@N@std@@PAX@std@@@2@QAU?$_List_node@U?$pair@$$CBUPoint@@N@std@@PAX@2@I@Z 00414ff0 f i AStar.obj
 0001:00014010       ?deallocate@?$_Default_allocator_traits@V?$allocator@U?$_List_node@U?$pair@$$CBUPoint@@U1@@std@@PAX@std@@@std@@@std@@SAXAAV?$allocator@U?$_List_node@U?$pair@$$CBUPoint@@U1@@std@@PAX@std@@@2@QAU?$_List_node@U?$pair@$$CBUPoint@@U1@@std@@PAX@2@I@Z 00415010 f i AStar.obj
 0001:00014030       ?deallocate@?$_Default_allocator_traits@V?$allocator@U_Container_proxy@std@@@std@@@std@@SAXAAV?$allocator@U_Container_proxy@std@@@2@QAU_Container_proxy@2@I@Z 00415030 f i AStar.obj
 0001:00014050       ?deallocate@?$allocator@U?$_List_node@U?$pair@$$CBUPoint@@N@std@@PAX@std@@@std@@QAEXQAU?$_List_node@U?$pair@$$CBUPoint@@N@std@@PAX@2@I@Z 00415050 f i AStar.obj
 0001:00014080       ?deallocate@?$allocator@U?$_List_node@U?$pair@$$CBUPoint@@U1@@std@@PAX@std@@@std@@QAEXQAU?$_List_node@U?$pair@$$CBUPoint@@U1@@std@@PAX@2@I@Z 00415080 f i AStar.obj
 0001:000140b0       ?deallocate@?$allocator@UNode@@@std@@QAEXQAUNode@@I@Z 004150b0 f i AStar.obj
 0001:000140e0       ?deallocate@?$allocator@UPoint@@@std@@QAEXQAUPoint@@I@Z 004150e0 f i AStar.obj
 0001:00014110       ?deallocate@?$allocator@V?$_List_unchecked_iterator@V?$_List_val@U?$_List_simple_types@U?$pair@$$CBUPoint@@N@std@@@std@@@std@@@std@@@std@@QAEXQAV?$_List_unchecked_iterator@V?$_List_val@U?$_List_simple_types@U?$pair@$$CBUPoint@@N@std@@@std@@@std@@@2@I@Z 00415110 f i AStar.obj
 0001:00014140       ?deallocate@?$allocator@V?$_List_unchecked_iterator@V?$_List_val@U?$_List_simple_types@U?$pair@$$CBUPoint@@U1@@std@@@std@@@std@@@std@@@std@@QAEXQAV?$_List_unchecked_iterator@V?$_List_val@U?$_List_simple_types@U?$pair@$$CBUPoint@@U1@@std@@@std@@@std@@@2@I@Z 00415140 f i AStar.obj
 0001:00014170       ?empty@?$priority_queue@UNode@@V?$vector@UNode@@V?$allocator@UNode@@@std@@@std@@U?$less@UNode@@@3@@std@@QBE_NXZ 00415170 f i AStar.obj
 0001:00014190       ?empty@?$vector@UNode@@V?$allocator@UNode@@@std@@@std@@QBE_NXZ 00415190 f i AStar.obj
 0001:000141e0       ?end@?$vector@UNode@@V?$allocator@UNode@@@std@@@std@@QAE?AV?$_Vector_iterator@V?$_Vector_val@U?$_Simple_types@UNode@@@std@@@std@@@2@XZ 004151e0 f i AStar.obj
 0001:00014230       ?end@?$vector@UPoint@@V?$allocator@UPoint@@@std@@@std@@QAE?AV?$_Vector_iterator@V?$_Vector_val@U?$_Simple_types@UPoint@@@std@@@std@@@2@XZ 00415230 f i AStar.obj
 0001:00014280       ?front@?$vector@UNode@@V?$allocator@UNode@@@std@@@std@@QBEABUNode@@XZ 00415280 f i AStar.obj
 0001:00014320       ?getMapHeight@TileManager@@QBEHXZ 00415320 f i AStar.obj
 0001:00014340       ?getMapValue@TileManager@@QBEHHH@Z 00415340 f i AStar.obj
 0001:00014370       ?getMapWidth@TileManager@@QBEHXZ 00415370 f i AStar.obj
 0001:00014390       ?heuristic@@YANUPoint@@0@Z 00415390 f i AStar.obj
 0001:00014400       ?max@?$numeric_limits@H@std@@SAHXZ 00415400 f i AStar.obj
 0001:00014410       ?max_load_factor@?$_Hash@V?$_Umap_traits@UPoint@@NV?$_Uhash_compare@UPoint@@U?$hash@UPoint@@@std@@U?$equal_to@UPoint@@@3@@std@@V?$allocator@U?$pair@$$CBUPoint@@N@std@@@3@$0A@@std@@@std@@QBEMXZ 00415410 f i AStar.obj
 0001:00014430       ?max_load_factor@?$_Hash@V?$_Umap_traits@UPoint@@U1@V?$_Uhash_compare@UPoint@@U?$hash@UPoint@@@std@@U?$equal_to@UPoint@@@3@@std@@V?$allocator@U?$pair@$$CBUPoint@@U1@@std@@@3@$0A@@std@@@std@@QBEMXZ 00415430 f i AStar.obj
 0001:00014450       ?max_size@?$_Default_allocator_traits@V?$allocator@U?$_List_node@U?$pair@$$CBUPoint@@N@std@@PAX@std@@@std@@@std@@SAIABV?$allocator@U?$_List_node@U?$pair@$$CBUPoint@@N@std@@PAX@std@@@2@@Z 00415450 f i AStar.obj
 0001:00014460       ?max_size@?$_Default_allocator_traits@V?$allocator@U?$_List_node@U?$pair@$$CBUPoint@@U1@@std@@PAX@std@@@std@@@std@@SAIABV?$allocator@U?$_List_node@U?$pair@$$CBUPoint@@U1@@std@@PAX@std@@@2@@Z 00415460 f i AStar.obj
 0001:00014470       ?max_size@?$_Default_allocator_traits@V?$allocator@UNode@@@std@@@std@@SAIABV?$allocator@UNode@@@2@@Z 00415470 f i AStar.obj
 0001:00014480       ?max_size@?$_Default_allocator_traits@V?$allocator@UPoint@@@std@@@std@@SAIABV?$allocator@UPoint@@@2@@Z 00415480 f i AStar.obj
 0001:00014490       ?max_size@?$_Default_allocator_traits@V?$allocator@V?$_List_unchecked_iterator@V?$_List_val@U?$_List_simple_types@U?$pair@$$CBUPoint@@N@std@@@std@@@std@@@std@@@std@@@std@@SAIABV?$allocator@V?$_List_unchecked_iterator@V?$_List_val@U?$_List_simple_types@U?$pair@$$CBUPoint@@N@std@@@std@@@std@@@std@@@2@@Z 00415490 f i AStar.obj
 0001:000144a0       ?max_size@?$_Default_allocator_traits@V?$allocator@V?$_List_unchecked_iterator@V?$_List_val@U?$_List_simple_types@U?$pair@$$CBUPoint@@U1@@std@@@std@@@std@@@std@@@std@@@std@@SAIABV?$allocator@V?$_List_unchecked_iterator@V?$_List_val@U?$_List_simple_types@U?$pair@$$CBUPoint@@U1@@std@@@std@@@std@@@std@@@2@@Z 004154a0 f i AStar.obj
 0001:000144b0       ?max_size@?$_Hash_vec@V?$allocator@V?$_List_unchecked_iterator@V?$_List_val@U?$_List_simple_types@U?$pair@$$CBUPoint@@N@std@@@std@@@std@@@std@@@std@@@std@@QBEIXZ 004154b0 f i AStar.obj
 0001:00014500       ?max_size@?$_Hash_vec@V?$allocator@V?$_List_unchecked_iterator@V?$_List_val@U?$_List_simple_types@U?$pair@$$CBUPoint@@U1@@std@@@std@@@std@@@std@@@std@@@std@@QBEIXZ 00415500 f i AStar.obj
 0001:00014550       ?max_size@?$list@U?$pair@$$CBUPoint@@N@std@@V?$allocator@U?$pair@$$CBUPoint@@N@std@@@2@@std@@QBEIXZ 00415550 f i AStar.obj
 0001:000145a0       ?max_size@?$list@U?$pair@$$CBUPoint@@U1@@std@@V?$allocator@U?$pair@$$CBUPoint@@U1@@std@@@2@@std@@QBEIXZ 004155a0 f i AStar.obj
 0001:000145f0       ?max_size@?$vector@UNode@@V?$allocator@UNode@@@std@@@std@@QBEIXZ 004155f0 f i AStar.obj
 0001:00014640       ?max_size@?$vector@UPoint@@V?$allocator@UPoint@@@std@@@std@@QBEIXZ 00415640 f i AStar.obj
 0001:00014690       ?pop@?$priority_queue@UNode@@V?$vector@UNode@@V?$allocator@UNode@@@std@@@std@@U?$less@UNode@@@3@@std@@QAEXXZ 00415690 f i AStar.obj
 0001:000146f0       ?pop_back@?$vector@UNode@@V?$allocator@UNode@@@std@@@std@@QAEXXZ 004156f0 f i AStar.obj
 0001:00014820       ?push@?$priority_queue@UNode@@V?$vector@UNode@@V?$allocator@UNode@@@std@@@std@@U?$less@UNode@@@3@@std@@QAEX$$QAUNode@@@Z 00415820 f i AStar.obj
 0001:00014890       ?push_back@?$vector@UNode@@V?$allocator@UNode@@@std@@@std@@QAEX$$QAUNode@@@Z 00415890 f i AStar.obj
 0001:000148c0       ?push_back@?$vector@UPoint@@V?$allocator@UPoint@@@std@@@std@@QAEXABUPoint@@@Z 004158c0 f i AStar.obj
 0001:000148e0       ?select_on_container_copy_construction@?$_Default_allocator_traits@V?$allocator@U?$_List_node@U?$pair@$$CBUPoint@@U1@@std@@PAX@std@@@std@@@std@@SA?AV?$allocator@U?$_List_node@U?$pair@$$CBUPoint@@U1@@std@@PAX@std@@@2@ABV32@@Z 004158e0 f i AStar.obj
 0001:000148f0       ?size@?$_Hash_vec@V?$allocator@V?$_List_unchecked_iterator@V?$_List_val@U?$_List_simple_types@U?$pair@$$CBUPoint@@N@std@@@std@@@std@@@std@@@std@@@std@@QBEIXZ 004158f0 f i AStar.obj
 0001:00014910       ?size@?$_Hash_vec@V?$allocator@V?$_List_unchecked_iterator@V?$_List_val@U?$_List_simple_types@U?$pair@$$CBUPoint@@U1@@std@@@std@@@std@@@std@@@std@@@std@@QBEIXZ 00415910 f i AStar.obj
 0001:00014930       ?size@?$vector@UPoint@@V?$allocator@UPoint@@@std@@@std@@QBEIXZ 00415930 f i AStar.obj
 0001:00014960       ?top@?$priority_queue@UNode@@V?$vector@UNode@@V?$allocator@UNode@@@std@@@std@@U?$less@UNode@@@3@@std@@QBEABUNode@@XZ 00415960 f i AStar.obj
 0001:00014980       ?what@exception@std@@UBEPBDXZ 00415980 f i AStar.obj
 0001:000149c0       _ceilf                     004159c0 f i AStar.obj
 0001:000149f0       ?virtMouseDown@Button@@UAEXHHH@Z 004159f0 f   Button.obj
 0001:00014a20       ?virtMouseUp@Button@@UAEXHHH@Z 00415a20 f   Button.obj
 0001:00014a70       ?getClickTimes@Button@@QAEHXZ 00415a70 f   Button.obj
 0001:00014a90       ?isInClickArea@Button@@QAE_NXZ 00415a90 f   Button.obj
 0001:00014ad0       ?virtDraw@Button@@UAEXXZ   00415ad0 f   Button.obj
 0001:00014bd0       ?virtDoUpdate@Button@@UAEXH@Z 00415bd0 f   Button.obj
 0001:00014d60       ??$?9VScyjz14RawImageData@@@std@@YA_NABV?$shared_ptr@VScyjz14RawImageData@@@0@$$T@Z 00415d60 f i Button.obj
 0001:00014d90       ?exists@Scyjz14Image@@QBE_NXZ 00415d90 f i Button.obj
 0001:00014dc0       ?get@?$_Ptr_base@VScyjz14RawImageData@@@std@@IBEPAVScyjz14RawImageData@@XZ 00415dc0 f i Button.obj
 0001:00014de0       ?getCurrentMouseX@BaseEngine@@QBEHXZ 00415de0 f i Button.obj
 0001:00014e00       ?getCurrentMouseY@BaseEngine@@QBEHXZ 00415e00 f i Button.obj
 0001:00014e20       ?getEngine@DisplayableObject@@QBEPAVBaseEngine@@XZ 00415e20 f i Button.obj
 0001:00014e40       ?getForegroundSurface@BaseEngine@@QAEPAVDrawingSurface@@XZ 00415e40 f i Button.obj
 0001:00014e60       ?isVisible@DisplayableObject@@QBE_NXZ 00415e60 f i Button.obj
 0001:00014e80       ?virtDraw@Door@@UAEXXZ     00415e80 f   Door.obj
 0001:00014f30       ?virtDraw@Door@@QAEXHH@Z   00415f30 f   Door.obj
 0001:00014fe0       ?virtDoUpdate@Door@@UAEXH@Z 00415fe0 f   Door.obj
 0001:000152d0       ??$?CVScyjz14RawImageData@@$0A@@?$shared_ptr@VScyjz14RawImageData@@@std@@QBEPAVScyjz14RawImageData@@XZ 004162d0 f i Door.obj
 0001:000152f0       ??$_Copy_construct_from@VRawImageData@@@?$_Ptr_base@VRawImageData@@@std@@IAEXABV?$shared_ptr@VRawImageData@@@1@@Z 004162f0 f i Door.obj
 0001:00015330       ??$_Copy_construct_from@VScyjz14RawImageData@@@?$_Ptr_base@VScyjz14RawImageData@@@std@@IAEXABV?$shared_ptr@VScyjz14RawImageData@@@1@@Z 00416330 f i Door.obj
 0001:00015370       ??$_Copy_construct_from@VState@@@?$_Ptr_base@VState@@@std@@IAEXABV?$shared_ptr@VState@@@1@@Z 00416370 f i Door.obj
 0001:000153b0       ??0?$_Ptr_base@VRawImageData@@@std@@IAE@XZ 004163b0 f i Door.obj
 0001:000153e0       ??0?$_Ptr_base@VScyjz14RawImageData@@@std@@IAE@XZ 004163e0 f i Door.obj
 0001:00015410       ??0?$_Ptr_base@VState@@@std@@IAE@XZ 00416410 f i Door.obj
 0001:00015440       ??0?$shared_ptr@VRawImageData@@@std@@QAE@ABV01@@Z 00416440 f i Door.obj
 0001:00015470       ??0?$shared_ptr@VScyjz14RawImageData@@@std@@QAE@ABV01@@Z 00416470 f i Door.obj
 0001:000154a0       ??0?$shared_ptr@VState@@@std@@QAE@ABV01@@Z 004164a0 f i Door.obj
 0001:000154d0       ??0Scyjz14Image@@QAE@ABV0@@Z 004164d0 f i Door.obj
 0001:00015510       ??0SimpleImage@@QAE@ABV0@@Z 00416510 f i Door.obj
 0001:00015560       ??1?$shared_ptr@VRawImageData@@@std@@QAE@XZ 00416560 f i Door.obj
 0001:00015580       ??1?$shared_ptr@VScyjz14RawImageData@@@std@@QAE@XZ 00416580 f i Door.obj
 0001:000155a0       ??1Scyjz14Image@@QAE@XZ    004165a0 f i Door.obj
 0001:000155d0       ??1SimpleImage@@QAE@XZ     004165d0 f i Door.obj
 0001:00015620       ??A?$vector@HV?$allocator@H@std@@@std@@QBEABHI@Z 00416620 f i Door.obj
 0001:000156d0       ??A?$vector@PAVDisplayableObject@@V?$allocator@PAVDisplayableObject@@@std@@@std@@QBEABQAVDisplayableObject@@I@Z 004166d0 f i Door.obj
 0001:00015780       ??D?$unique_ptr@V?$vector@HV?$allocator@H@std@@@std@@U?$default_delete@V?$vector@HV?$allocator@H@std@@@std@@@2@@std@@QBEAAV?$vector@HV?$allocator@H@std@@@1@XZ 00416780 f i Door.obj
 0001:000157a0       ?_Decref@?$_Ptr_base@VRawImageData@@@std@@IAEXXZ 004167a0 f i Door.obj
 0001:000157d0       ?_Decref@?$_Ptr_base@VScyjz14RawImageData@@@std@@IAEXXZ 004167d0 f i Door.obj
 0001:00015800       ?_Decref@_Ref_count_base@std@@QAEXXZ 00416800 f i Door.obj
 0001:00015840       ?_Decwref@_Ref_count_base@std@@QAEXXZ 00416840 f i Door.obj
 0001:00015880       ?_Incref@?$_Ptr_base@VRawImageData@@@std@@IBEXXZ 00416880 f i Door.obj
 0001:000158b0       ?_Incref@?$_Ptr_base@VScyjz14RawImageData@@@std@@IBEXXZ 004168b0 f i Door.obj
 0001:000158e0       ?_Incref@?$_Ptr_base@VState@@@std@@IBEXXZ 004168e0 f i Door.obj
 0001:00015910       ?_Incref@_Ref_count_base@std@@QAEXXZ 00416910 f i Door.obj
 0001:00015930       ?_Unchecked_begin@?$vector@HV?$allocator@H@std@@@std@@QBEPBHXZ 00416930 f i Door.obj
 0001:00015950       ?_Unchecked_end@?$vector@HV?$allocator@H@std@@@std@@QBEPBHXZ 00416950 f i Door.obj
 0001:00015970       ?checkPixelIsImg2InImg1@Scyjz14CollisionDetection@@SA_NVScyjz14Image@@HHHHHH0HHHHHH@Z 00416970 f i Door.obj
 0001:00015b70       ?getBackgroundSurface@BaseEngine@@QAEPAVDrawingSurface@@XZ 00416b70 f i Door.obj
 0001:00015b90       ?getCurrentFrameX@SpriteObject@@QAEHXZ 00416b90 f i Door.obj
 0001:00015bb0       ?getDirection@AgentBaseObject@@QAE?AW4Direction@SpriteObject@@XZ 00416bb0 f i Door.obj
 0001:00015bd0       ?getDisplayableObject@DisplayableObjectContainer@@QBEPAVDisplayableObject@@H@Z 00416bd0 f i Door.obj
 0001:00015c10       ?getDrawHeight@DisplayableObject@@QBEHXZ 00416c10 f i Door.obj
 0001:00015c30       ?getDrawWidth@DisplayableObject@@QBEHXZ 00416c30 f i Door.obj
 0001:00015c50       ?getDrawingRegionLeft@DisplayableObject@@QBEHXZ 00416c50 f i Door.obj
 0001:00015c70       ?getDrawingRegionTop@DisplayableObject@@QBEHXZ 00416c70 f i Door.obj
 0001:00015c90       ?getImage@Scyjz14ImageObject@@QAE?AVScyjz14Image@@XZ 00416c90 f i Door.obj
 0001:00015cd0       ?getPixelColour@Scyjz14Image@@QBEHHH@Z 00416cd0 f i Door.obj
 0001:00015d00       ?getPlayerIndexes@ObjectIndexes@@SAABV?$vector@HV?$allocator@H@std@@@std@@XZ 00416d00 f i Door.obj
 0001:00015d20       ?getZombieIndexes@ObjectIndexes@@SAABV?$vector@HV?$allocator@H@std@@@std@@XZ 00416d20 f i Door.obj
 0001:00015d40       ?isDied@AgentBaseObject@@QAE_NXZ 00416d40 f i Door.obj
 0001:00015d80       ?isImageContained@Scyjz14CollisionDetection@@SA_NHHHHHHHH@Z 00416d80 f i Door.obj
 0001:00015e00       ?lockBackgroundForDrawing@BaseEngine@@QAEXXZ 00416e00 f i Door.obj
 0001:00015e20       ?mySDLLockSurface@DrawingSurface@@QAEXXZ 00416e20 f i Door.obj
 0001:00015e70       ?mySDLUnlockSurface@DrawingSurface@@QAEXXZ 00416e70 f i Door.obj
 0001:00015ec0       ?setCurrentFrame@SpriteObject@@QAEXHH@Z 00416ec0 f i Door.obj
 0001:00015ef0       ?size@?$vector@PAVDisplayableObject@@V?$allocator@PAVDisplayableObject@@@std@@@std@@QBEIXZ 00416ef0 f i Door.obj
 0001:00015f20       ?unlockBackgroundForDrawing@BaseEngine@@QAEXXZ 00416f20 f i Door.obj
 0001:00015f40       ?virtSetupBackgroundBuffer@DraggingDemo@@UAEXXZ 00416f40 f   DraggingDemo.obj
 0001:00016080       ?virtInitialiseObjects@DraggingDemo@@UAEHXZ 00417080 f   DraggingDemo.obj
 0001:000162d0       ?virtKeyDown@DraggingDemo@@UAEXH@Z 004172d0 f   DraggingDemo.obj
 0001:000163f0       ??$?0$$V@?$_Compressed_pair@V?$allocator@D@std@@V?$_String_val@U?$_Simple_types@D@std@@@2@$00@std@@QAE@U_Zero_then_variadic_args_t@1@@Z 004173f0 f i DraggingDemo.obj
 0001:00016420       ??$?0$$V@?$_Compressed_pair@V?$allocator@U?$_Tree_node@U?$pair@$$CBV?$basic_string@DU?$char_traits@D@std@@V?$allocator@D@2@@std@@V?$shared_ptr@VRawImageData@@@2@@std@@PAX@std@@@std@@V?$_Tree_val@U?$_Tree_simple_types@U?$pair@$$CBV?$basic_string@DU?$char_traits@D@std@@V?$allocator@D@2@@std@@V?$shared_ptr@VRawImageData@@@2@@std@@@std@@@2@$00@std@@QAE@U_Zero_then_variadic_args_t@1@@Z 00417420 f i DraggingDemo.obj
 0001:00016450       ??$?0$$V@?$_Compressed_pair@V?$allocator@U?$_Tree_node@U?$pair@$$CBV?$basic_string@DU?$char_traits@D@std@@V?$allocator@D@2@@std@@V?$weak_ptr@VRawImageData@@@2@@std@@PAX@std@@@std@@V?$_Tree_val@U?$_Tree_simple_types@U?$pair@$$CBV?$basic_string@DU?$char_traits@D@std@@V?$allocator@D@2@@std@@V?$weak_ptr@VRawImageData@@@2@@std@@@std@@@2@$00@std@@QAE@U_Zero_then_variadic_args_t@1@@Z 00417450 f i DraggingDemo.obj
 0001:00016480       ??$?0AAPAU?$_Tree_node@U?$pair@$$CBV?$basic_string@DU?$char_traits@D@std@@V?$allocator@D@2@@std@@V?$shared_ptr@VRawImageData@@@2@@std@@PAX@std@@_N$0A@@?$pair@PAU?$_Tree_node@U?$pair@$$CBV?$basic_string@DU?$char_traits@D@std@@V?$allocator@D@2@@std@@V?$shared_ptr@VRawImageData@@@2@@std@@PAX@std@@_N@std@@QAE@AAPAU?$_Tree_node@U?$pair@$$CBV?$basic_string@DU?$char_traits@D@std@@V?$allocator@D@2@@std@@V?$shared_ptr@VRawImageData@@@2@@std@@PAX@1@$$QA_N@Z 00417480 f i DraggingDemo.obj
 0001:000164d0       ??$?0AAPAU?$_Tree_node@U?$pair@$$CBV?$basic_string@DU?$char_traits@D@std@@V?$allocator@D@2@@std@@V?$weak_ptr@VRawImageData@@@2@@std@@PAX@std@@_N$0A@@?$pair@PAU?$_Tree_node@U?$pair@$$CBV?$basic_string@DU?$char_traits@D@std@@V?$allocator@D@2@@std@@V?$weak_ptr@VRawImageData@@@2@@std@@PAX@std@@_N@std@@QAE@AAPAU?$_Tree_node@U?$pair@$$CBV?$basic_string@DU?$char_traits@D@std@@V?$allocator@D@2@@std@@V?$weak_ptr@VRawImageData@@@2@@std@@PAX@1@$$QA_N@Z 004174d0 f i DraggingDemo.obj
 0001:00016520       ??$?0AAV?$basic_string@DU?$char_traits@D@std@@V?$allocator@D@2@@std@@AAV?$shared_ptr@VRawImageData@@@1@$0A@@?$pair@V?$basic_string@DU?$char_traits@D@std@@V?$allocator@D@2@@std@@V?$shared_ptr@VRawImageData@@@2@@std@@QAE@AAV?$basic_string@DU?$char_traits@D@std@@V?$allocator@D@2@@1@AAV?$shared_ptr@VRawImageData@@@1@@Z 00417520 f i DraggingDemo.obj
 0001:00016570       ??$?0AAV?$basic_string@DU?$char_traits@D@std@@V?$allocator@D@2@@std@@AAV?$weak_ptr@VRawImageData@@@1@$0A@@?$pair@V?$basic_string@DU?$char_traits@D@std@@V?$allocator@D@2@@std@@V?$weak_ptr@VRawImageData@@@2@@std@@QAE@AAV?$basic_string@DU?$char_traits@D@std@@V?$allocator@D@2@@1@AAV?$weak_ptr@VRawImageData@@@1@@Z 00417570 f i DraggingDemo.obj
 0001:000165c0       ??$?0ABU?$less@V?$basic_string@DU?$char_traits@D@std@@V?$allocator@D@2@@std@@@std@@U_Zero_then_variadic_args_t@1@@?$_Compressed_pair@U?$less@V?$basic_string@DU?$char_traits@D@std@@V?$allocator@D@2@@std@@@std@@V?$_Compressed_pair@V?$allocator@U?$_Tree_node@U?$pair@$$CBV?$basic_string@DU?$char_traits@D@std@@V?$allocator@D@2@@std@@V?$shared_ptr@VRawImageData@@@2@@std@@PAX@std@@@std@@V?$_Tree_val@U?$_Tree_simple_types@U?$pair@$$CBV?$basic_string@DU?$char_traits@D@std@@V?$allocator@D@2@@std@@V?$shared_ptr@VRawImageData@@@2@@std@@@std@@@2@$00@2@$00@std@@QAE@U_One_then_variadic_args_t@1@ABU?$less@V?$basic_string@DU?$char_traits@D@std@@V?$allocator@D@2@@std@@@1@$$QAU_Zero_then_variadic_args_t@1@@Z 004175c0 f i DraggingDemo.obj
 0001:00016610       ??$?0ABU?$less@V?$basic_string@DU?$char_traits@D@std@@V?$allocator@D@2@@std@@@std@@U_Zero_then_variadic_args_t@1@@?$_Compressed_pair@U?$less@V?$basic_string@DU?$char_traits@D@std@@V?$allocator@D@2@@std@@@std@@V?$_Compressed_pair@V?$allocator@U?$_Tree_node@U?$pair@$$CBV?$basic_string@DU?$char_traits@D@std@@V?$allocator@D@2@@std@@V?$weak_ptr@VRawImageData@@@2@@std@@PAX@std@@@std@@V?$_Tree_val@U?$_Tree_simple_types@U?$pair@$$CBV?$basic_string@DU?$char_traits@D@std@@V?$allocator@D@2@@std@@V?$weak_ptr@VRawImageData@@@2@@std@@@std@@@2@$00@2@$00@std@@QAE@U_One_then_variadic_args_t@1@ABU?$less@V?$basic_string@DU?$char_traits@D@std@@V?$allocator@D@2@@std@@@1@$$QAU_Zero_then_variadic_args_t@1@@Z 00417610 f i DraggingDemo.obj
 0001:00016660       ??$?0D@?$allocator@U_Container_proxy@std@@@std@@QAE@ABV?$allocator@D@1@@Z 00417660 f i DraggingDemo.obj
 0001:00016680       ??$?0PAU?$_Tree_node@U?$pair@$$CBV?$basic_string@DU?$char_traits@D@std@@V?$allocator@D@2@@std@@V?$shared_ptr@VRawImageData@@@2@@std@@PAX@std@@_N$0A@@?$pair@PAU?$_Tree_node@U?$pair@$$CBV?$basic_string@DU?$char_traits@D@std@@V?$allocator@D@2@@std@@V?$shared_ptr@VRawImageData@@@2@@std@@PAX@std@@_N@std@@QAE@$$QAPAU?$_Tree_node@U?$pair@$$CBV?$basic_string@DU?$char_traits@D@std@@V?$allocator@D@2@@std@@V?$shared_ptr@VRawImageData@@@2@@std@@PAX@1@$$QA_N@Z 00417680 f i DraggingDemo.obj
 0001:000166d0       ??$?0PAU?$_Tree_node@U?$pair@$$CBV?$basic_string@DU?$char_traits@D@std@@V?$allocator@D@2@@std@@V?$weak_ptr@VRawImageData@@@2@@std@@PAX@std@@_N$0A@@?$pair@PAU?$_Tree_node@U?$pair@$$CBV?$basic_string@DU?$char_traits@D@std@@V?$allocator@D@2@@std@@V?$weak_ptr@VRawImageData@@@2@@std@@PAX@std@@_N@std@@QAE@$$QAPAU?$_Tree_node@U?$pair@$$CBV?$basic_string@DU?$char_traits@D@std@@V?$allocator@D@2@@std@@V?$weak_ptr@VRawImageData@@@2@@std@@PAX@1@$$QA_N@Z 004176d0 f i DraggingDemo.obj
 0001:00016720       ??$?0U?$_Tree_node@U?$pair@$$CBV?$basic_string@DU?$char_traits@D@std@@V?$allocator@D@2@@std@@V?$shared_ptr@VRawImageData@@@2@@std@@PAX@std@@@?$allocator@U_Container_proxy@std@@@std@@QAE@ABV?$allocator@U?$_Tree_node@U?$pair@$$CBV?$basic_string@DU?$char_traits@D@std@@V?$allocator@D@2@@std@@V?$shared_ptr@VRawImageData@@@2@@std@@PAX@std@@@1@@Z 00417720 f i DraggingDemo.obj
 0001:00016740       ??$?0U?$_Tree_node@U?$pair@$$CBV?$basic_string@DU?$char_traits@D@std@@V?$allocator@D@2@@std@@V?$weak_ptr@VRawImageData@@@2@@std@@PAX@std@@@?$allocator@U_Container_proxy@std@@@std@@QAE@ABV?$allocator@U?$_Tree_node@U?$pair@$$CBV?$basic_string@DU?$char_traits@D@std@@V?$allocator@D@2@@std@@V?$weak_ptr@VRawImageData@@@2@@std@@PAX@std@@@1@@Z 00417740 f i DraggingDemo.obj
 0001:00016760       ??$?0U?$pair@V?$basic_string@DU?$char_traits@D@std@@V?$allocator@D@2@@std@@V?$shared_ptr@VRawImageData@@@2@@std@@@?$_Tree_temp_node@V?$allocator@U?$_Tree_node@U?$pair@$$CBV?$basic_string@DU?$char_traits@D@std@@V?$allocator@D@2@@std@@V?$shared_ptr@VRawImageData@@@2@@std@@PAX@std@@@std@@@std@@QAE@AAV?$allocator@U?$_Tree_node@U?$pair@$$CBV?$basic_string@DU?$char_traits@D@std@@V?$allocator@D@2@@std@@V?$shared_ptr@VRawImageData@@@2@@std@@PAX@std@@@1@PAU?$_Tree_node@U?$pair@$$CBV?$basic_string@DU?$char_traits@D@std@@V?$allocator@D@2@@std@@V?$shared_ptr@VRawImageData@@@2@@std@@PAX@1@$$QAU?$pair@V?$basic_string@DU?$char_traits@D@std@@V?$allocator@D@2@@std@@V?$shared_ptr@VRawImageData@@@2@@1@@Z 00417760 f i DraggingDemo.obj
 0001:00016870       ??$?0U?$pair@V?$basic_string@DU?$char_traits@D@std@@V?$allocator@D@2@@std@@V?$weak_ptr@VRawImageData@@@2@@std@@@?$_Tree_temp_node@V?$allocator@U?$_Tree_node@U?$pair@$$CBV?$basic_string@DU?$char_traits@D@std@@V?$allocator@D@2@@std@@V?$weak_ptr@VRawImageData@@@2@@std@@PAX@std@@@std@@@std@@QAE@AAV?$allocator@U?$_Tree_node@U?$pair@$$CBV?$basic_string@DU?$char_traits@D@std@@V?$allocator@D@2@@std@@V?$weak_ptr@VRawImageData@@@2@@std@@PAX@std@@@1@PAU?$_Tree_node@U?$pair@$$CBV?$basic_string@DU?$char_traits@D@std@@V?$allocator@D@2@@std@@V?$weak_ptr@VRawImageData@@@2@@std@@PAX@1@$$QAU?$pair@V?$basic_string@DU?$char_traits@D@std@@V?$allocator@D@2@@std@@V?$weak_ptr@VRawImageData@@@2@@1@@Z 00417870 f i DraggingDemo.obj
 0001:00016980       ??$?0V?$_Tree_iterator@V?$_Tree_val@U?$_Tree_simple_types@U?$pair@$$CBV?$basic_string@DU?$char_traits@D@std@@V?$allocator@D@2@@std@@V?$shared_ptr@VRawImageData@@@2@@std@@@std@@@std@@@std@@AB_N$0A@@?$pair@V?$_Tree_iterator@V?$_Tree_val@U?$_Tree_simple_types@U?$pair@$$CBV?$basic_string@DU?$char_traits@D@std@@V?$allocator@D@2@@std@@V?$shared_ptr@VRawImageData@@@2@@std@@@std@@@std@@@std@@_N@std@@QAE@$$QAV?$_Tree_iterator@V?$_Tree_val@U?$_Tree_simple_types@U?$pair@$$CBV?$basic_string@DU?$char_traits@D@std@@V?$allocator@D@2@@std@@V?$shared_ptr@VRawImageData@@@2@@std@@@std@@@std@@@1@AB_N@Z 00417980 f i DraggingDemo.obj
 0001:000169d0       ??$?0V?$_Tree_iterator@V?$_Tree_val@U?$_Tree_simple_types@U?$pair@$$CBV?$basic_string@DU?$char_traits@D@std@@V?$allocator@D@2@@std@@V?$weak_ptr@VRawImageData@@@2@@std@@@std@@@std@@@std@@AB_N$0A@@?$pair@V?$_Tree_iterator@V?$_Tree_val@U?$_Tree_simple_types@U?$pair@$$CBV?$basic_string@DU?$char_traits@D@std@@V?$allocator@D@2@@std@@V?$weak_ptr@VRawImageData@@@2@@std@@@std@@@std@@@std@@_N@std@@QAE@$$QAV?$_Tree_iterator@V?$_Tree_val@U?$_Tree_simple_types@U?$pair@$$CBV?$basic_string@DU?$char_traits@D@std@@V?$allocator@D@2@@std@@V?$weak_ptr@VRawImageData@@@2@@std@@@std@@@std@@@1@AB_N@Z 004179d0 f i DraggingDemo.obj
 0001:00016a20       ??$?0V?$allocator@D@std@@$$V@?$_Compressed_pair@V?$allocator@D@std@@V?$_String_val@U?$_Simple_types@D@std@@@2@$00@std@@QAE@U_One_then_variadic_args_t@1@$$QAV?$allocator@D@1@@Z 00417a20 f i DraggingDemo.obj
 0001:00016a50       ??$?0V?$basic_string@DU?$char_traits@D@std@@V?$allocator@D@2@@std@@V?$shared_ptr@VRawImageData@@@1@$0A@@?$pair@$$CBV?$basic_string@DU?$char_traits@D@std@@V?$allocator@D@2@@std@@V?$shared_ptr@VRawImageData@@@2@@std@@QAE@$$QAU?$pair@V?$basic_string@DU?$char_traits@D@std@@V?$allocator@D@2@@std@@V?$shared_ptr@VRawImageData@@@2@@1@@Z 00417a50 f i DraggingDemo.obj
 0001:00016aa0       ??$?0V?$basic_string@DU?$char_traits@D@std@@V?$allocator@D@2@@std@@V?$weak_ptr@VRawImageData@@@1@$0A@@?$pair@$$CBV?$basic_string@DU?$char_traits@D@std@@V?$allocator@D@2@@std@@V?$weak_ptr@VRawImageData@@@2@@std@@QAE@$$QAU?$pair@V?$basic_string@DU?$char_traits@D@std@@V?$allocator@D@2@@std@@V?$weak_ptr@VRawImageData@@@2@@1@@Z 00417aa0 f i DraggingDemo.obj
 0001:00016af0       ??$?0VRawImageData@@$0A@@?$shared_ptr@VRawImageData@@@std@@QAE@PAVRawImageData@@@Z 00417af0 f i DraggingDemo.obj
 0001:00016be0       ??$?0VRawImageData@@$0A@@?$weak_ptr@VRawImageData@@@std@@QAE@ABV?$shared_ptr@VRawImageData@@@1@@Z 00417be0 f i DraggingDemo.obj
 0001:00016c10       ??$?6DU?$char_traits@D@std@@V?$allocator@D@1@@std@@YAAAV?$basic_ostream@DU?$char_traits@D@std@@@0@AAV10@ABV?$basic_string@DU?$char_traits@D@std@@V?$allocator@D@2@@0@@Z 00417c10 f i DraggingDemo.obj
 0001:00016c40       ??$?6U?$char_traits@D@std@@@std@@YAAAV?$basic_ostream@DU?$char_traits@D@std@@@0@AAV10@PBD@Z 00417c40 f i DraggingDemo.obj
 0001:00017040       ??$?9VRawImageData@@@std@@YA_NABV?$shared_ptr@VRawImageData@@@0@$$T@Z 00418040 f i DraggingDemo.obj
 0001:00017070       ??$?CVRawImageData@@$0A@@?$shared_ptr@VRawImageData@@@std@@QBEPAVRawImageData@@XZ 00418070 f i DraggingDemo.obj
 0001:00017090       ??$?MDU?$char_traits@D@std@@V?$allocator@D@1@@std@@YA_NABV?$basic_string@DU?$char_traits@D@std@@V?$allocator@D@2@@0@0@Z 00418090 f i DraggingDemo.obj
 0001:000170d0       ??$_Buyheadnode@V?$allocator@U?$_Tree_node@U?$pair@$$CBV?$basic_string@DU?$char_traits@D@std@@V?$allocator@D@2@@std@@V?$shared_ptr@VRawImageData@@@2@@std@@PAX@std@@@std@@@?$_Tree_node@U?$pair@$$CBV?$basic_string@DU?$char_traits@D@std@@V?$allocator@D@2@@std@@V?$shared_ptr@VRawImageData@@@2@@std@@PAX@std@@SAPAU01@AAV?$allocator@U?$_Tree_node@U?$pair@$$CBV?$basic_string@DU?$char_traits@D@std@@V?$allocator@D@2@@std@@V?$shared_ptr@VRawImageData@@@2@@std@@PAX@std@@@1@@Z 004180d0 f i DraggingDemo.obj
 0001:00017150       ??$_Buyheadnode@V?$allocator@U?$_Tree_node@U?$pair@$$CBV?$basic_string@DU?$char_traits@D@std@@V?$allocator@D@2@@std@@V?$weak_ptr@VRawImageData@@@2@@std@@PAX@std@@@std@@@?$_Tree_node@U?$pair@$$CBV?$basic_string@DU?$char_traits@D@std@@V?$allocator@D@2@@std@@V?$weak_ptr@VRawImageData@@@2@@std@@PAX@std@@SAPAU01@AAV?$allocator@U?$_Tree_node@U?$pair@$$CBV?$basic_string@DU?$char_traits@D@std@@V?$allocator@D@2@@std@@V?$weak_ptr@VRawImageData@@@2@@std@@PAX@std@@@1@@Z 00418150 f i DraggingDemo.obj
 0001:000171d0       ??$_Construct_from_weak@VRawImageData@@@?$_Ptr_base@VRawImageData@@@std@@IAE_NABV?$weak_ptr@VRawImageData@@@1@@Z 004181d0 f i DraggingDemo.obj
 0001:00017230       ??$_Construct_in_place@PADAAPAD@std@@YAXAAPAD0@Z 00418230 f i DraggingDemo.obj
 0001:00017280       ??$_Construct_in_place@PADABQAD@std@@YAXAAPADABQAD@Z 00418280 f i DraggingDemo.obj
 0001:000172d0       ??$_Construct_in_place@PAU?$_Tree_node@U?$pair@$$CBV?$basic_string@DU?$char_traits@D@std@@V?$allocator@D@2@@std@@V?$shared_ptr@VRawImageData@@@2@@std@@PAX@std@@AAPAU12@@std@@YAXAAPAU?$_Tree_node@U?$pair@$$CBV?$basic_string@DU?$char_traits@D@std@@V?$allocator@D@2@@std@@V?$shared_ptr@VRawImageData@@@2@@std@@PAX@0@0@Z 004182d0 f i DraggingDemo.obj
 0001:00017320       ??$_Construct_in_place@PAU?$_Tree_node@U?$pair@$$CBV?$basic_string@DU?$char_traits@D@std@@V?$allocator@D@2@@std@@V?$shared_ptr@VRawImageData@@@2@@std@@PAX@std@@ABQAU12@@std@@YAXAAPAU?$_Tree_node@U?$pair@$$CBV?$basic_string@DU?$char_traits@D@std@@V?$allocator@D@2@@std@@V?$shared_ptr@VRawImageData@@@2@@std@@PAX@0@ABQAU10@@Z 00418320 f i DraggingDemo.obj
 0001:00017370       ??$_Construct_in_place@PAU?$_Tree_node@U?$pair@$$CBV?$basic_string@DU?$char_traits@D@std@@V?$allocator@D@2@@std@@V?$weak_ptr@VRawImageData@@@2@@std@@PAX@std@@AAPAU12@@std@@YAXAAPAU?$_Tree_node@U?$pair@$$CBV?$basic_string@DU?$char_traits@D@std@@V?$allocator@D@2@@std@@V?$weak_ptr@VRawImageData@@@2@@std@@PAX@0@0@Z 00418370 f i DraggingDemo.obj
 0001:000173c0       ??$_Construct_in_place@PAU?$_Tree_node@U?$pair@$$CBV?$basic_string@DU?$char_traits@D@std@@V?$allocator@D@2@@std@@V?$weak_ptr@VRawImageData@@@2@@std@@PAX@std@@ABQAU12@@std@@YAXAAPAU?$_Tree_node@U?$pair@$$CBV?$basic_string@DU?$char_traits@D@std@@V?$allocator@D@2@@std@@V?$weak_ptr@VRawImageData@@@2@@std@@PAX@0@ABQAU10@@Z 004183c0 f i DraggingDemo.obj
 0001:00017410       ??$_Convert_size@I@std@@YAII@Z 00418410 f i DraggingDemo.obj
 0001:00017420       ??$_Copy_memmove@PAPAVDisplayableObject@@PAPAV1@@std@@YAPAPAVDisplayableObject@@PAPAV1@00@Z 00418420 f i DraggingDemo.obj
 0001:000174b0       ??$_Debug_lt_pred@ABU?$less@V?$basic_string@DU?$char_traits@D@std@@V?$allocator@D@2@@std@@@std@@ABV?$basic_string@DU?$char_traits@D@std@@V?$allocator@D@2@@2@ABV32@$0A@@std@@YA_NABU?$less@V?$basic_string@DU?$char_traits@D@std@@V?$allocator@D@2@@std@@@0@ABV?$basic_string@DU?$char_traits@D@std@@V?$allocator@D@2@@0@1@Z 004184b0 f i DraggingDemo.obj
 0001:00017560       ??$_Destroy_in_place@PAD@std@@YAXAAPAD@Z 00418560 f i DraggingDemo.obj
 0001:00017570       ??$_Destroy_in_place@PAU?$_Tree_node@U?$pair@$$CBV?$basic_string@DU?$char_traits@D@std@@V?$allocator@D@2@@std@@V?$shared_ptr@VRawImageData@@@2@@std@@PAX@std@@@std@@YAXAAPAU?$_Tree_node@U?$pair@$$CBV?$basic_string@DU?$char_traits@D@std@@V?$allocator@D@2@@std@@V?$shared_ptr@VRawImageData@@@2@@std@@PAX@0@@Z 00418570 f i DraggingDemo.obj
 0001:00017580       ??$_Destroy_in_place@PAU?$_Tree_node@U?$pair@$$CBV?$basic_string@DU?$char_traits@D@std@@V?$allocator@D@2@@std@@V?$weak_ptr@VRawImageData@@@2@@std@@PAX@std@@@std@@YAXAAPAU?$_Tree_node@U?$pair@$$CBV?$basic_string@DU?$char_traits@D@std@@V?$allocator@D@2@@std@@V?$weak_ptr@VRawImageData@@@2@@std@@PAX@0@@Z 00418580 f i DraggingDemo.obj
 0001:00017590       ??$_Destroy_range@V?$allocator@PAVDisplayableObject@@@std@@@std@@YAXPAPAVDisplayableObject@@QAPAV1@AAV?$allocator@PAVDisplayableObject@@@0@@Z 00418590 f i DraggingDemo.obj
 0001:000175a0       ??$_Emplace@U?$pair@V?$basic_string@DU?$char_traits@D@std@@V?$allocator@D@2@@std@@V?$shared_ptr@VRawImageData@@@2@@std@@@?$_Tree@V?$_Tmap_traits@V?$basic_string@DU?$char_traits@D@std@@V?$allocator@D@2@@std@@V?$shared_ptr@VRawImageData@@@2@U?$less@V?$basic_string@DU?$char_traits@D@std@@V?$allocator@D@2@@std@@@2@V?$allocator@U?$pair@$$CBV?$basic_string@DU?$char_traits@D@std@@V?$allocator@D@2@@std@@V?$shared_ptr@VRawImageData@@@2@@std@@@2@$0A@@std@@@std@@IAE?AU?$pair@PAU?$_Tree_node@U?$pair@$$CBV?$basic_string@DU?$char_traits@D@std@@V?$allocator@D@2@@std@@V?$shared_ptr@VRawImageData@@@2@@std@@PAX@std@@_N@1@$$QAU?$pair@V?$basic_string@DU?$char_traits@D@std@@V?$allocator@D@2@@std@@V?$shared_ptr@VRawImageData@@@2@@1@@Z 004185a0 f i DraggingDemo.obj
 0001:000176d0       ??$_Emplace@U?$pair@V?$basic_string@DU?$char_traits@D@std@@V?$allocator@D@2@@std@@V?$weak_ptr@VRawImageData@@@2@@std@@@?$_Tree@V?$_Tmap_traits@V?$basic_string@DU?$char_traits@D@std@@V?$allocator@D@2@@std@@V?$weak_ptr@VRawImageData@@@2@U?$less@V?$basic_string@DU?$char_traits@D@std@@V?$allocator@D@2@@std@@@2@V?$allocator@U?$pair@$$CBV?$basic_string@DU?$char_traits@D@std@@V?$allocator@D@2@@std@@V?$weak_ptr@VRawImageData@@@2@@std@@@2@$0A@@std@@@std@@IAE?AU?$pair@PAU?$_Tree_node@U?$pair@$$CBV?$basic_string@DU?$char_traits@D@std@@V?$allocator@D@2@@std@@V?$weak_ptr@VRawImageData@@@2@@std@@PAX@std@@_N@1@$$QAU?$pair@V?$basic_string@DU?$char_traits@D@std@@V?$allocator@D@2@@std@@V?$weak_ptr@VRawImageData@@@2@@1@@Z 004186d0 f i DraggingDemo.obj
 0001:00017800       ??$_Emplace_back@$$V@?$_Uninitialized_backout_al@V?$allocator@PAVDisplayableObject@@@std@@@std@@QAEXXZ 00418800 f i DraggingDemo.obj
 0001:00017850       ??$_Emplace_back@PAVDisplayableObject@@@?$_Uninitialized_backout_al@V?$allocator@PAVDisplayableObject@@@std@@@std@@QAEX$$QAPAVDisplayableObject@@@Z 00418850 f i DraggingDemo.obj
 0001:000178b0       ??$_Erase_head@V?$allocator@U?$_Tree_node@U?$pair@$$CBV?$basic_string@DU?$char_traits@D@std@@V?$allocator@D@2@@std@@V?$weak_ptr@VRawImageData@@@2@@std@@PAX@std@@@std@@@?$_Tree_val@U?$_Tree_simple_types@U?$pair@$$CBV?$basic_string@DU?$char_traits@D@std@@V?$allocator@D@2@@std@@V?$weak_ptr@VRawImageData@@@2@@std@@@std@@@std@@QAEXAAV?$allocator@U?$_Tree_node@U?$pair@$$CBV?$basic_string@DU?$char_traits@D@std@@V?$allocator@D@2@@std@@V?$weak_ptr@VRawImageData@@@2@@std@@PAX@std@@@1@@Z 004188b0 f i DraggingDemo.obj
 0001:00017900       ??$_Erase_tree@V?$allocator@U?$_Tree_node@U?$pair@$$CBV?$basic_string@DU?$char_traits@D@std@@V?$allocator@D@2@@std@@V?$weak_ptr@VRawImageData@@@2@@std@@PAX@std@@@std@@@?$_Tree_val@U?$_Tree_simple_types@U?$pair@$$CBV?$basic_string@DU?$char_traits@D@std@@V?$allocator@D@2@@std@@V?$weak_ptr@VRawImageData@@@2@@std@@@std@@@std@@QAEXAAV?$allocator@U?$_Tree_node@U?$pair@$$CBV?$basic_string@DU?$char_traits@D@std@@V?$allocator@D@2@@std@@V?$weak_ptr@VRawImageData@@@2@@std@@PAX@std@@@1@PAU?$_Tree_node@U?$pair@$$CBV?$basic_string@DU?$char_traits@D@std@@V?$allocator@D@2@@std@@V?$weak_ptr@VRawImageData@@@2@@std@@PAX@1@@Z 00418900 f i DraggingDemo.obj
 0001:00017960       ??$_Find@V?$basic_string@DU?$char_traits@D@std@@V?$allocator@D@2@@std@@@?$_Tree@V?$_Tmap_traits@V?$basic_string@DU?$char_traits@D@std@@V?$allocator@D@2@@std@@V?$weak_ptr@VRawImageData@@@2@U?$less@V?$basic_string@DU?$char_traits@D@std@@V?$allocator@D@2@@std@@@2@V?$allocator@U?$pair@$$CBV?$basic_string@DU?$char_traits@D@std@@V?$allocator@D@2@@std@@V?$weak_ptr@VRawImageData@@@2@@std@@@2@$0A@@std@@@std@@ABEPAU?$_Tree_node@U?$pair@$$CBV?$basic_string@DU?$char_traits@D@std@@V?$allocator@D@2@@std@@V?$weak_ptr@VRawImageData@@@2@@std@@PAX@1@ABV?$basic_string@DU?$char_traits@D@std@@V?$allocator@D@2@@1@@Z 00418960 f i DraggingDemo.obj
 0001:000179c0       ??$_Find_lower_bound@V?$basic_string@DU?$char_traits@D@std@@V?$allocator@D@2@@std@@@?$_Tree@V?$_Tmap_traits@V?$basic_string@DU?$char_traits@D@std@@V?$allocator@D@2@@std@@V?$shared_ptr@VRawImageData@@@2@U?$less@V?$basic_string@DU?$char_traits@D@std@@V?$allocator@D@2@@std@@@2@V?$allocator@U?$pair@$$CBV?$basic_string@DU?$char_traits@D@std@@V?$allocator@D@2@@std@@V?$shared_ptr@VRawImageData@@@2@@std@@@2@$0A@@std@@@std@@IBE?AU?$_Tree_find_result@PAU?$_Tree_node@U?$pair@$$CBV?$basic_string@DU?$char_traits@D@std@@V?$allocator@D@2@@std@@V?$shared_ptr@VRawImageData@@@2@@std@@PAX@std@@@1@ABV?$basic_string@DU?$char_traits@D@std@@V?$allocator@D@2@@1@@Z 004189c0 f i DraggingDemo.obj
 0001:00017ab0       ??$_Find_lower_bound@V?$basic_string@DU?$char_traits@D@std@@V?$allocator@D@2@@std@@@?$_Tree@V?$_Tmap_traits@V?$basic_string@DU?$char_traits@D@std@@V?$allocator@D@2@@std@@V?$weak_ptr@VRawImageData@@@2@U?$less@V?$basic_string@DU?$char_traits@D@std@@V?$allocator@D@2@@std@@@2@V?$allocator@U?$pair@$$CBV?$basic_string@DU?$char_traits@D@std@@V?$allocator@D@2@@std@@V?$weak_ptr@VRawImageData@@@2@@std@@@2@$0A@@std@@@std@@IBE?AU?$_Tree_find_result@PAU?$_Tree_node@U?$pair@$$CBV?$basic_string@DU?$char_traits@D@std@@V?$allocator@D@2@@std@@V?$weak_ptr@VRawImageData@@@2@@std@@PAX@std@@@1@ABV?$basic_string@DU?$char_traits@D@std@@V?$allocator@D@2@@1@@Z 00418ab0 f i DraggingDemo.obj
 0001:00017ba0       ??$_Freenode0@V?$allocator@U?$_Tree_node@U?$pair@$$CBV?$basic_string@DU?$char_traits@D@std@@V?$allocator@D@2@@std@@V?$weak_ptr@VRawImageData@@@2@@std@@PAX@std@@@std@@@?$_Tree_node@U?$pair@$$CBV?$basic_string@DU?$char_traits@D@std@@V?$allocator@D@2@@std@@V?$weak_ptr@VRawImageData@@@2@@std@@PAX@std@@SAXAAV?$allocator@U?$_Tree_node@U?$pair@$$CBV?$basic_string@DU?$char_traits@D@std@@V?$allocator@D@2@@std@@V?$weak_ptr@VRawImageData@@@2@@std@@PAX@std@@@1@PAU01@@Z 00418ba0 f i DraggingDemo.obj
 0001:00017c30       ??$_Freenode@V?$allocator@U?$_Tree_node@U?$pair@$$CBV?$basic_string@DU?$char_traits@D@std@@V?$allocator@D@2@@std@@V?$weak_ptr@VRawImageData@@@2@@std@@PAX@std@@@std@@@?$_Tree_node@U?$pair@$$CBV?$basic_string@DU?$char_traits@D@std@@V?$allocator@D@2@@std@@V?$weak_ptr@VRawImageData@@@2@@std@@PAX@std@@SAXAAV?$allocator@U?$_Tree_node@U?$pair@$$CBV?$basic_string@DU?$char_traits@D@std@@V?$allocator@D@2@@std@@V?$weak_ptr@VRawImageData@@@2@@std@@PAX@std@@@1@PAU01@@Z 00418c30 f i DraggingDemo.obj
 0001:00017cb0       ??$_Get_size_of_n@$00@std@@YAII@Z 00418cb0 f i DraggingDemo.obj
 0001:00017cd0       ??$_Get_size_of_n@$0DE@@std@@YAII@Z 00418cd0 f i DraggingDemo.obj
 0001:00017d00       ??$_Get_unwrapped@ABQAPAVDisplayableObject@@@std@@YA?A_TABQAPAVDisplayableObject@@@Z 00418d00 f i DraggingDemo.obj
 0001:00017d10       ??$_Insert_string@DU?$char_traits@D@std@@I@std@@YAAAV?$basic_ostream@DU?$char_traits@D@std@@@0@AAV10@QBDI@Z 00418d10 f i DraggingDemo.obj
 0001:00018090       ??$_Kfn@$$CBV?$basic_string@DU?$char_traits@D@std@@V?$allocator@D@2@@std@@V?$shared_ptr@VRawImageData@@@2@@?$_Tmap_traits@V?$basic_string@DU?$char_traits@D@std@@V?$allocator@D@2@@std@@V?$shared_ptr@VRawImageData@@@2@U?$less@V?$basic_string@DU?$char_traits@D@std@@V?$allocator@D@2@@std@@@2@V?$allocator@U?$pair@$$CBV?$basic_string@DU?$char_traits@D@std@@V?$allocator@D@2@@std@@V?$shared_ptr@VRawImageData@@@2@@std@@@2@$0A@@std@@SAABV?$basic_string@DU?$char_traits@D@std@@V?$allocator@D@2@@1@ABU?$pair@$$CBV?$basic_string@DU?$char_traits@D@std@@V?$allocator@D@2@@std@@V?$shared_ptr@VRawImageData@@@2@@1@@Z 00419090 f i DraggingDemo.obj
 0001:000180a0       ??$_Kfn@$$CBV?$basic_string@DU?$char_traits@D@std@@V?$allocator@D@2@@std@@V?$weak_ptr@VRawImageData@@@2@@?$_Tmap_traits@V?$basic_string@DU?$char_traits@D@std@@V?$allocator@D@2@@std@@V?$weak_ptr@VRawImageData@@@2@U?$less@V?$basic_string@DU?$char_traits@D@std@@V?$allocator@D@2@@std@@@2@V?$allocator@U?$pair@$$CBV?$basic_string@DU?$char_traits@D@std@@V?$allocator@D@2@@std@@V?$weak_ptr@VRawImageData@@@2@@std@@@2@$0A@@std@@SAABV?$basic_string@DU?$char_traits@D@std@@V?$allocator@D@2@@1@ABU?$pair@$$CBV?$basic_string@DU?$char_traits@D@std@@V?$allocator@D@2@@std@@V?$weak_ptr@VRawImageData@@@2@@1@@Z 004190a0 f i DraggingDemo.obj
 0001:000180b0       ??$_Lower_bound_duplicate@V?$basic_string@DU?$char_traits@D@std@@V?$allocator@D@2@@std@@@?$_Tree@V?$_Tmap_traits@V?$basic_string@DU?$char_traits@D@std@@V?$allocator@D@2@@std@@V?$shared_ptr@VRawImageData@@@2@U?$less@V?$basic_string@DU?$char_traits@D@std@@V?$allocator@D@2@@std@@@2@V?$allocator@U?$pair@$$CBV?$basic_string@DU?$char_traits@D@std@@V?$allocator@D@2@@std@@V?$shared_ptr@VRawImageData@@@2@@std@@@2@$0A@@std@@@std@@IBE_NQAU?$_Tree_node@U?$pair@$$CBV?$basic_string@DU?$char_traits@D@std@@V?$allocator@D@2@@std@@V?$shared_ptr@VRawImageData@@@2@@std@@PAX@1@ABV?$basic_string@DU?$char_traits@D@std@@V?$allocator@D@2@@1@@Z 004190b0 f i DraggingDemo.obj
 0001:00018120       ??$_Lower_bound_duplicate@V?$basic_string@DU?$char_traits@D@std@@V?$allocator@D@2@@std@@@?$_Tree@V?$_Tmap_traits@V?$basic_string@DU?$char_traits@D@std@@V?$allocator@D@2@@std@@V?$weak_ptr@VRawImageData@@@2@U?$less@V?$basic_string@DU?$char_traits@D@std@@V?$allocator@D@2@@std@@@2@V?$allocator@U?$pair@$$CBV?$basic_string@DU?$char_traits@D@std@@V?$allocator@D@2@@std@@V?$weak_ptr@VRawImageData@@@2@@std@@@2@$0A@@std@@@std@@IBE_NQAU?$_Tree_node@U?$pair@$$CBV?$basic_string@DU?$char_traits@D@std@@V?$allocator@D@2@@std@@V?$weak_ptr@VRawImageData@@@2@@std@@PAX@1@ABV?$basic_string@DU?$char_traits@D@std@@V?$allocator@D@2@@1@@Z 00419120 f i DraggingDemo.obj
 0001:00018190       ??$_Move_construct_from@VRawImageData@@@?$_Ptr_base@VRawImageData@@@std@@IAEX$$QAV01@@Z 00419190 f i DraggingDemo.obj
 0001:000181e0       ??$_Reallocate_for@V<lambda_9366063389c5f42a00a5088cf24e69de>@@PBD@?$basic_string@DU?$char_traits@D@std@@V?$allocator@D@2@@std@@AAEAAV01@IV<lambda_9366063389c5f42a00a5088cf24e69de>@@PBD@Z 004191e0 f i DraggingDemo.obj
 0001:000182e0       ??$_Resize@U_Value_init_tag@std@@@?$vector@PAVDisplayableObject@@V?$allocator@PAVDisplayableObject@@@std@@@std@@AAEXIABU_Value_init_tag@1@@Z 004192e0 f i DraggingDemo.obj
 0001:00018400       ??$_Resize_reallocate@U_Value_init_tag@std@@@?$vector@PAVDisplayableObject@@V?$allocator@PAVDisplayableObject@@@std@@@std@@AAEXIABU_Value_init_tag@1@@Z 00419400 f i DraggingDemo.obj
 0001:000185b0       ??$_Set_ptr_rep_and_enable_shared@VRawImageData@@@?$shared_ptr@VRawImageData@@@std@@AAEXQAVRawImageData@@QAV_Ref_count_base@1@@Z 004195b0 f i DraggingDemo.obj
 0001:000185e0       ??$_To_address@PAPAVDisplayableObject@@@std@@YA?A_PABQAPAVDisplayableObject@@@Z 004195e0 f i DraggingDemo.obj
 0001:000185f0       ??$_Traits_compare@U?$char_traits@D@std@@@std@@YAHQBDI0I@Z 004195f0 f i DraggingDemo.obj
 0001:00018660       ??$_Unfancy@D@std@@YAPADPAD@Z 00419660 f i DraggingDemo.obj
 0001:00018670       ??$_Unfancy@PAVDisplayableObject@@@std@@YAPAPAVDisplayableObject@@PAPAV1@@Z 00419670 f i DraggingDemo.obj
 0001:00018680       ??$_Uninitialized_move@PAPAVDisplayableObject@@V?$allocator@PAVDisplayableObject@@@std@@@std@@YAPAPAVDisplayableObject@@QAPAV1@0PAPAV1@AAV?$allocator@PAVDisplayableObject@@@0@@Z 00419680 f i DraggingDemo.obj
 0001:000187a0       ??$_Uninitialized_value_construct_n@V?$allocator@PAVDisplayableObject@@@std@@@std@@YAPAPAVDisplayableObject@@PAPAV1@IAAV?$allocator@PAVDisplayableObject@@@0@@Z 004197a0 f i DraggingDemo.obj
 0001:00018880       ??$_Voidify_iter@PAPAD@std@@YAPAXPAPAD@Z 00419880 f i DraggingDemo.obj
 0001:00018890       ??$_Voidify_iter@PAPAU?$_Tree_node@U?$pair@$$CBV?$basic_string@DU?$char_traits@D@std@@V?$allocator@D@2@@std@@V?$shared_ptr@VRawImageData@@@2@@std@@PAX@std@@@std@@YAPAXPAPAU?$_Tree_node@U?$pair@$$CBV?$basic_string@DU?$char_traits@D@std@@V?$allocator@D@2@@std@@V?$shared_ptr@VRawImageData@@@2@@std@@PAX@0@@Z 00419890 f i DraggingDemo.obj
 0001:000188a0       ??$_Voidify_iter@PAPAU?$_Tree_node@U?$pair@$$CBV?$basic_string@DU?$char_traits@D@std@@V?$allocator@D@2@@std@@V?$weak_ptr@VRawImageData@@@2@@std@@PAX@std@@@std@@YAPAXPAPAU?$_Tree_node@U?$pair@$$CBV?$basic_string@DU?$char_traits@D@std@@V?$allocator@D@2@@std@@V?$weak_ptr@VRawImageData@@@2@@std@@PAX@0@@Z 004198a0 f i DraggingDemo.obj
 0001:000188b0       ??$_Voidify_iter@PAPAVDisplayableObject@@@std@@YAPAXPAPAVDisplayableObject@@@Z 004198b0 f i DraggingDemo.obj
 0001:000188c0       ??$_Voidify_iter@PAU?$pair@$$CBV?$basic_string@DU?$char_traits@D@std@@V?$allocator@D@2@@std@@V?$shared_ptr@VRawImageData@@@2@@std@@@std@@YAPAXPAU?$pair@$$CBV?$basic_string@DU?$char_traits@D@std@@V?$allocator@D@2@@std@@V?$shared_ptr@VRawImageData@@@2@@0@@Z 004198c0 f i DraggingDemo.obj
 0001:000188d0       ??$_Voidify_iter@PAU?$pair@$$CBV?$basic_string@DU?$char_traits@D@std@@V?$allocator@D@2@@std@@V?$weak_ptr@VRawImageData@@@2@@std@@@std@@YAPAXPAU?$pair@$$CBV?$basic_string@DU?$char_traits@D@std@@V?$allocator@D@2@@std@@V?$weak_ptr@VRawImageData@@@2@@0@@Z 004198d0 f i DraggingDemo.obj
 0001:000188e0       ??$_Weakly_construct_from@VRawImageData@@@?$_Ptr_base@VRawImageData@@@std@@IAEXABV01@@Z 004198e0 f i DraggingDemo.obj
 0001:00018930       ??$_Zero_range@PAPAVDisplayableObject@@@std@@YAPAPAVDisplayableObject@@QAPAV1@0@Z 00419930 f i DraggingDemo.obj
 0001:00018980       ??$addressof@$$CBV?$_String_val@U?$_Simple_types@D@std@@@std@@@std@@YAPBV?$_String_val@U?$_Simple_types@D@std@@@0@ABV10@@Z 00419980 f i DraggingDemo.obj
 0001:00018990       ??$addressof@$$CBV?$_Tree_val@U?$_Tree_simple_types@U?$pair@$$CBV?$basic_string@DU?$char_traits@D@std@@V?$allocator@D@2@@std@@V?$shared_ptr@VRawImageData@@@2@@std@@@std@@@std@@@std@@YAPBV?$_Tree_val@U?$_Tree_simple_types@U?$pair@$$CBV?$basic_string@DU?$char_traits@D@std@@V?$allocator@D@2@@std@@V?$shared_ptr@VRawImageData@@@2@@std@@@std@@@0@ABV10@@Z 00419990 f i DraggingDemo.obj
 0001:000189a0       ??$addressof@$$CBV?$_Tree_val@U?$_Tree_simple_types@U?$pair@$$CBV?$basic_string@DU?$char_traits@D@std@@V?$allocator@D@2@@std@@V?$weak_ptr@VRawImageData@@@2@@std@@@std@@@std@@@std@@YAPBV?$_Tree_val@U?$_Tree_simple_types@U?$pair@$$CBV?$basic_string@DU?$char_traits@D@std@@V?$allocator@D@2@@std@@V?$weak_ptr@VRawImageData@@@2@@std@@@std@@@0@ABV10@@Z 004199a0 f i DraggingDemo.obj
 0001:000189b0       ??$addressof@PAD@std@@YAPAPADAAPAD@Z 004199b0 f i DraggingDemo.obj
 0001:000189c0       ??$addressof@PAU?$_Tree_node@U?$pair@$$CBV?$basic_string@DU?$char_traits@D@std@@V?$allocator@D@2@@std@@V?$shared_ptr@VRawImageData@@@2@@std@@PAX@std@@@std@@YAPAPAU?$_Tree_node@U?$pair@$$CBV?$basic_string@DU?$char_traits@D@std@@V?$allocator@D@2@@std@@V?$shared_ptr@VRawImageData@@@2@@std@@PAX@0@AAPAU10@@Z 004199c0 f i DraggingDemo.obj
 0001:000189d0       ??$addressof@PAU?$_Tree_node@U?$pair@$$CBV?$basic_string@DU?$char_traits@D@std@@V?$allocator@D@2@@std@@V?$weak_ptr@VRawImageData@@@2@@std@@PAX@std@@@std@@YAPAPAU?$_Tree_node@U?$pair@$$CBV?$basic_string@DU?$char_traits@D@std@@V?$allocator@D@2@@std@@V?$weak_ptr@VRawImageData@@@2@@std@@PAX@0@AAPAU10@@Z 004199d0 f i DraggingDemo.obj
 0001:000189e0       ??$addressof@U?$pair@$$CBV?$basic_string@DU?$char_traits@D@std@@V?$allocator@D@2@@std@@V?$shared_ptr@VRawImageData@@@2@@std@@@std@@YAPAU?$pair@$$CBV?$basic_string@DU?$char_traits@D@std@@V?$allocator@D@2@@std@@V?$shared_ptr@VRawImageData@@@2@@0@AAU10@@Z 004199e0 f i DraggingDemo.obj
 0001:000189f0       ??$addressof@U?$pair@$$CBV?$basic_string@DU?$char_traits@D@std@@V?$allocator@D@2@@std@@V?$weak_ptr@VRawImageData@@@2@@std@@@std@@YAPAU?$pair@$$CBV?$basic_string@DU?$char_traits@D@std@@V?$allocator@D@2@@std@@V?$weak_ptr@VRawImageData@@@2@@0@AAU10@@Z 004199f0 f i DraggingDemo.obj
 0001:00018a00       ??$addressof@V?$_String_val@U?$_Simple_types@D@std@@@std@@@std@@YAPAV?$_String_val@U?$_Simple_types@D@std@@@0@AAV10@@Z 00419a00 f i DraggingDemo.obj
 0001:00018a10       ??$addressof@V?$_Tree_val@U?$_Tree_simple_types@U?$pair@$$CBV?$basic_string@DU?$char_traits@D@std@@V?$allocator@D@2@@std@@V?$shared_ptr@VRawImageData@@@2@@std@@@std@@@std@@@std@@YAPAV?$_Tree_val@U?$_Tree_simple_types@U?$pair@$$CBV?$basic_string@DU?$char_traits@D@std@@V?$allocator@D@2@@std@@V?$shared_ptr@VRawImageData@@@2@@std@@@std@@@0@AAV10@@Z 00419a10 f i DraggingDemo.obj
 0001:00018a20       ??$addressof@V?$_Tree_val@U?$_Tree_simple_types@U?$pair@$$CBV?$basic_string@DU?$char_traits@D@std@@V?$allocator@D@2@@std@@V?$weak_ptr@VRawImageData@@@2@@std@@@std@@@std@@@std@@YAPAV?$_Tree_val@U?$_Tree_simple_types@U?$pair@$$CBV?$basic_string@DU?$char_traits@D@std@@V?$allocator@D@2@@std@@V?$weak_ptr@VRawImageData@@@2@@std@@@std@@@0@AAV10@@Z 00419a20 f i DraggingDemo.obj
 0001:00018a30       ??$construct@PAVDisplayableObject@@$$V@?$_Default_allocator_traits@V?$allocator@PAVDisplayableObject@@@std@@@std@@SAXAAV?$allocator@PAVDisplayableObject@@@1@QAPAVDisplayableObject@@@Z 00419a30 f i DraggingDemo.obj
 0001:00018a80       ??$construct@PAVDisplayableObject@@PAV1@@?$_Default_allocator_traits@V?$allocator@PAVDisplayableObject@@@std@@@std@@SAXAAV?$allocator@PAVDisplayableObject@@@1@QAPAVDisplayableObject@@$$QAPAV3@@Z 00419a80 f i DraggingDemo.obj
 0001:00018ad0       ??$construct@U?$pair@$$CBV?$basic_string@DU?$char_traits@D@std@@V?$allocator@D@2@@std@@V?$shared_ptr@VRawImageData@@@2@@std@@U?$pair@V?$basic_string@DU?$char_traits@D@std@@V?$allocator@D@2@@std@@V?$shared_ptr@VRawImageData@@@2@@2@@?$_Default_allocator_traits@V?$allocator@U?$_Tree_node@U?$pair@$$CBV?$basic_string@DU?$char_traits@D@std@@V?$allocator@D@2@@std@@V?$shared_ptr@VRawImageData@@@2@@std@@PAX@std@@@std@@@std@@SAXAAV?$allocator@U?$_Tree_node@U?$pair@$$CBV?$basic_string@DU?$char_traits@D@std@@V?$allocator@D@2@@std@@V?$shared_ptr@VRawImageData@@@2@@std@@PAX@std@@@1@QAU?$pair@$$CBV?$basic_string@DU?$char_traits@D@std@@V?$allocator@D@2@@std@@V?$shared_ptr@VRawImageData@@@2@@1@$$QAU?$pair@V?$basic_string@DU?$char_traits@D@std@@V?$allocator@D@2@@std@@V?$shared_ptr@VRawImageData@@@2@@1@@Z 00419ad0 f i DraggingDemo.obj
 0001:00018b20       ??$construct@U?$pair@$$CBV?$basic_string@DU?$char_traits@D@std@@V?$allocator@D@2@@std@@V?$weak_ptr@VRawImageData@@@2@@std@@U?$pair@V?$basic_string@DU?$char_traits@D@std@@V?$allocator@D@2@@std@@V?$weak_ptr@VRawImageData@@@2@@2@@?$_Default_allocator_traits@V?$allocator@U?$_Tree_node@U?$pair@$$CBV?$basic_string@DU?$char_traits@D@std@@V?$allocator@D@2@@std@@V?$weak_ptr@VRawImageData@@@2@@std@@PAX@std@@@std@@@std@@SAXAAV?$allocator@U?$_Tree_node@U?$pair@$$CBV?$basic_string@DU?$char_traits@D@std@@V?$allocator@D@2@@std@@V?$weak_ptr@VRawImageData@@@2@@std@@PAX@std@@@1@QAU?$pair@$$CBV?$basic_string@DU?$char_traits@D@std@@V?$allocator@D@2@@std@@V?$weak_ptr@VRawImageData@@@2@@1@$$QAU?$pair@V?$basic_string@DU?$char_traits@D@std@@V?$allocator@D@2@@std@@V?$weak_ptr@VRawImageData@@@2@@1@@Z 00419b20 f i DraggingDemo.obj
 0001:00018b70       ??$destroy@U?$pair@$$CBV?$basic_string@DU?$char_traits@D@std@@V?$allocator@D@2@@std@@V?$shared_ptr@VRawImageData@@@2@@std@@@?$_Default_allocator_traits@V?$allocator@U?$_Tree_node@U?$pair@$$CBV?$basic_string@DU?$char_traits@D@std@@V?$allocator@D@2@@std@@V?$shared_ptr@VRawImageData@@@2@@std@@PAX@std@@@std@@@std@@SAXAAV?$allocator@U?$_Tree_node@U?$pair@$$CBV?$basic_string@DU?$char_traits@D@std@@V?$allocator@D@2@@std@@V?$shared_ptr@VRawImageData@@@2@@std@@PAX@std@@@1@QAU?$pair@$$CBV?$basic_string@DU?$char_traits@D@std@@V?$allocator@D@2@@std@@V?$shared_ptr@VRawImageData@@@2@@1@@Z 00419b70 f i DraggingDemo.obj
 0001:00018b90       ??$destroy@U?$pair@$$CBV?$basic_string@DU?$char_traits@D@std@@V?$allocator@D@2@@std@@V?$weak_ptr@VRawImageData@@@2@@std@@@?$_Default_allocator_traits@V?$allocator@U?$_Tree_node@U?$pair@$$CBV?$basic_string@DU?$char_traits@D@std@@V?$allocator@D@2@@std@@V?$weak_ptr@VRawImageData@@@2@@std@@PAX@std@@@std@@@std@@SAXAAV?$allocator@U?$_Tree_node@U?$pair@$$CBV?$basic_string@DU?$char_traits@D@std@@V?$allocator@D@2@@std@@V?$weak_ptr@VRawImageData@@@2@@std@@PAX@std@@@1@QAU?$pair@$$CBV?$basic_string@DU?$char_traits@D@std@@V?$allocator@D@2@@std@@V?$weak_ptr@VRawImageData@@@2@@1@@Z 00419b90 f i DraggingDemo.obj
 0001:00018bb0       ??$emplace@U?$pair@V?$basic_string@DU?$char_traits@D@std@@V?$allocator@D@2@@std@@V?$shared_ptr@VRawImageData@@@2@@std@@@?$_Tree@V?$_Tmap_traits@V?$basic_string@DU?$char_traits@D@std@@V?$allocator@D@2@@std@@V?$shared_ptr@VRawImageData@@@2@U?$less@V?$basic_string@DU?$char_traits@D@std@@V?$allocator@D@2@@std@@@2@V?$allocator@U?$pair@$$CBV?$basic_string@DU?$char_traits@D@std@@V?$allocator@D@2@@std@@V?$shared_ptr@VRawImageData@@@2@@std@@@2@$0A@@std@@@std@@QAE?AU?$pair@V?$_Tree_iterator@V?$_Tree_val@U?$_Tree_simple_types@U?$pair@$$CBV?$basic_string@DU?$char_traits@D@std@@V?$allocator@D@2@@std@@V?$shared_ptr@VRawImageData@@@2@@std@@@std@@@std@@@std@@_N@1@$$QAU?$pair@V?$basic_string@DU?$char_traits@D@std@@V?$allocator@D@2@@std@@V?$shared_ptr@VRawImageData@@@2@@1@@Z 00419bb0 f i DraggingDemo.obj
 0001:00018c40       ??$emplace@U?$pair@V?$basic_string@DU?$char_traits@D@std@@V?$allocator@D@2@@std@@V?$weak_ptr@VRawImageData@@@2@@std@@@?$_Tree@V?$_Tmap_traits@V?$basic_string@DU?$char_traits@D@std@@V?$allocator@D@2@@std@@V?$weak_ptr@VRawImageData@@@2@U?$less@V?$basic_string@DU?$char_traits@D@std@@V?$allocator@D@2@@std@@@2@V?$allocator@U?$pair@$$CBV?$basic_string@DU?$char_traits@D@std@@V?$allocator@D@2@@std@@V?$weak_ptr@VRawImageData@@@2@@std@@@2@$0A@@std@@@std@@QAE?AU?$pair@V?$_Tree_iterator@V?$_Tree_val@U?$_Tree_simple_types@U?$pair@$$CBV?$basic_string@DU?$char_traits@D@std@@V?$allocator@D@2@@std@@V?$weak_ptr@VRawImageData@@@2@@std@@@std@@@std@@@std@@_N@1@$$QAU?$pair@V?$basic_string@DU?$char_traits@D@std@@V?$allocator@D@2@@std@@V?$weak_ptr@VRawImageData@@@2@@1@@Z 00419c40 f i DraggingDemo.obj
 0001:00018cd0       ??$endl@DU?$char_traits@D@std@@@std@@YAAAV?$basic_ostream@DU?$char_traits@D@std@@@0@AAV10@@Z 00419cd0 f i DraggingDemo.obj
 0001:00018d10       ??$erase@V?$_Tree_iterator@V?$_Tree_val@U?$_Tree_simple_types@U?$pair@$$CBV?$basic_string@DU?$char_traits@D@std@@V?$allocator@D@2@@std@@V?$weak_ptr@VRawImageData@@@2@@std@@@std@@@std@@@std@@$0A@@?$_Tree@V?$_Tmap_traits@V?$basic_string@DU?$char_traits@D@std@@V?$allocator@D@2@@std@@V?$weak_ptr@VRawImageData@@@2@U?$less@V?$basic_string@DU?$char_traits@D@std@@V?$allocator@D@2@@std@@@2@V?$allocator@U?$pair@$$CBV?$basic_string@DU?$char_traits@D@std@@V?$allocator@D@2@@std@@V?$weak_ptr@VRawImageData@@@2@@std@@@2@$0A@@std@@@std@@QAE?AV?$_Tree_iterator@V?$_Tree_val@U?$_Tree_simple_types@U?$pair@$$CBV?$basic_string@DU?$char_traits@D@std@@V?$allocator@D@2@@std@@V?$weak_ptr@VRawImageData@@@2@@std@@@std@@@std@@@1@V21@@Z 00419d10 f i DraggingDemo.obj
 0001:00018e60       ??$exchange@PAU?$_Tree_node@U?$pair@$$CBV?$basic_string@DU?$char_traits@D@std@@V?$allocator@D@2@@std@@V?$shared_ptr@VRawImageData@@@2@@std@@PAX@std@@$$T@std@@YAPAU?$_Tree_node@U?$pair@$$CBV?$basic_string@DU?$char_traits@D@std@@V?$allocator@D@2@@std@@V?$shared_ptr@VRawImageData@@@2@@std@@PAX@0@AAPAU10@$$QA$$T@Z 00419e60 f i DraggingDemo.obj
 0001:00018e90       ??$exchange@PAU?$_Tree_node@U?$pair@$$CBV?$basic_string@DU?$char_traits@D@std@@V?$allocator@D@2@@std@@V?$weak_ptr@VRawImageData@@@2@@std@@PAX@std@@$$T@std@@YAPAU?$_Tree_node@U?$pair@$$CBV?$basic_string@DU?$char_traits@D@std@@V?$allocator@D@2@@std@@V?$weak_ptr@VRawImageData@@@2@@std@@PAX@0@AAPAU10@$$QA$$T@Z 00419e90 f i DraggingDemo.obj
 0001:00018ec0       ??$exchange@PAU?$_Tree_node@U?$pair@$$CBV?$basic_string@DU?$char_traits@D@std@@V?$allocator@D@2@@std@@V?$weak_ptr@VRawImageData@@@2@@std@@PAX@std@@AAPAU12@@std@@YAPAU?$_Tree_node@U?$pair@$$CBV?$basic_string@DU?$char_traits@D@std@@V?$allocator@D@2@@std@@V?$weak_ptr@VRawImageData@@@2@@std@@PAX@0@AAPAU10@0@Z 00419ec0 f i DraggingDemo.obj
 0001:00018ef0       ??$forward@AAPAD@std@@YAAAPADAAPAD@Z 00419ef0 f i DraggingDemo.obj
 0001:00018f00       ??$forward@AAPAU?$_Tree_node@U?$pair@$$CBV?$basic_string@DU?$char_traits@D@std@@V?$allocator@D@2@@std@@V?$shared_ptr@VRawImageData@@@2@@std@@PAX@std@@@std@@YAAAPAU?$_Tree_node@U?$pair@$$CBV?$basic_string@DU?$char_traits@D@std@@V?$allocator@D@2@@std@@V?$shared_ptr@VRawImageData@@@2@@std@@PAX@0@AAPAU10@@Z 00419f00 f i DraggingDemo.obj
 0001:00018f10       ??$forward@AAPAU?$_Tree_node@U?$pair@$$CBV?$basic_string@DU?$char_traits@D@std@@V?$allocator@D@2@@std@@V?$weak_ptr@VRawImageData@@@2@@std@@PAX@std@@@std@@YAAAPAU?$_Tree_node@U?$pair@$$CBV?$basic_string@DU?$char_traits@D@std@@V?$allocator@D@2@@std@@V?$weak_ptr@VRawImageData@@@2@@std@@PAX@0@AAPAU10@@Z 00419f10 f i DraggingDemo.obj
 0001:00018f20       ??$forward@AAV?$basic_string@DU?$char_traits@D@std@@V?$allocator@D@2@@std@@@std@@YAAAV?$basic_string@DU?$char_traits@D@std@@V?$allocator@D@2@@0@AAV10@@Z 00419f20 f i DraggingDemo.obj
 0001:00018f30       ??$forward@AAV?$shared_ptr@VRawImageData@@@std@@@std@@YAAAV?$shared_ptr@VRawImageData@@@0@AAV10@@Z 00419f30 f i DraggingDemo.obj
 0001:00018f40       ??$forward@AAV?$weak_ptr@VRawImageData@@@std@@@std@@YAAAV?$weak_ptr@VRawImageData@@@0@AAV10@@Z 00419f40 f i DraggingDemo.obj
 0001:00018f50       ??$forward@ABQAD@std@@YAABQADABQAD@Z 00419f50 f i DraggingDemo.obj
 0001:00018f60       ??$forward@ABQAU?$_Tree_node@U?$pair@$$CBV?$basic_string@DU?$char_traits@D@std@@V?$allocator@D@2@@std@@V?$shared_ptr@VRawImageData@@@2@@std@@PAX@std@@@std@@YAABQAU?$_Tree_node@U?$pair@$$CBV?$basic_string@DU?$char_traits@D@std@@V?$allocator@D@2@@std@@V?$shared_ptr@VRawImageData@@@2@@std@@PAX@0@ABQAU10@@Z 00419f60 f i DraggingDemo.obj
 0001:00018f70       ??$forward@ABQAU?$_Tree_node@U?$pair@$$CBV?$basic_string@DU?$char_traits@D@std@@V?$allocator@D@2@@std@@V?$weak_ptr@VRawImageData@@@2@@std@@PAX@std@@@std@@YAABQAU?$_Tree_node@U?$pair@$$CBV?$basic_string@DU?$char_traits@D@std@@V?$allocator@D@2@@std@@V?$weak_ptr@VRawImageData@@@2@@std@@PAX@0@ABQAU10@@Z 00419f70 f i DraggingDemo.obj
 0001:00018f80       ??$forward@ABU?$less@V?$basic_string@DU?$char_traits@D@std@@V?$allocator@D@2@@std@@@std@@@std@@YAABU?$less@V?$basic_string@DU?$char_traits@D@std@@V?$allocator@D@2@@std@@@0@ABU10@@Z 00419f80 f i DraggingDemo.obj
 0001:00018f90       ??$forward@AB_N@std@@YAAB_NAB_N@Z 00419f90 f i DraggingDemo.obj
 0001:00018fa0       ??$forward@PAU?$_Tree_node@U?$pair@$$CBV?$basic_string@DU?$char_traits@D@std@@V?$allocator@D@2@@std@@V?$shared_ptr@VRawImageData@@@2@@std@@PAX@std@@@std@@YA$$QAPAU?$_Tree_node@U?$pair@$$CBV?$basic_string@DU?$char_traits@D@std@@V?$allocator@D@2@@std@@V?$shared_ptr@VRawImageData@@@2@@std@@PAX@0@AAPAU10@@Z 00419fa0 f i DraggingDemo.obj
 0001:00018fb0       ??$forward@PAU?$_Tree_node@U?$pair@$$CBV?$basic_string@DU?$char_traits@D@std@@V?$allocator@D@2@@std@@V?$weak_ptr@VRawImageData@@@2@@std@@PAX@std@@@std@@YA$$QAPAU?$_Tree_node@U?$pair@$$CBV?$basic_string@DU?$char_traits@D@std@@V?$allocator@D@2@@std@@V?$weak_ptr@VRawImageData@@@2@@std@@PAX@0@AAPAU10@@Z 00419fb0 f i DraggingDemo.obj
 0001:00018fc0       ??$forward@PAVDisplayableObject@@@std@@YA$$QAPAVDisplayableObject@@AAPAV1@@Z 00419fc0 f i DraggingDemo.obj
 0001:00018fd0       ??$forward@U?$pair@V?$basic_string@DU?$char_traits@D@std@@V?$allocator@D@2@@std@@V?$shared_ptr@VRawImageData@@@2@@std@@@std@@YA$$QAU?$pair@V?$basic_string@DU?$char_traits@D@std@@V?$allocator@D@2@@std@@V?$shared_ptr@VRawImageData@@@2@@0@AAU10@@Z 00419fd0 f i DraggingDemo.obj
 0001:00018fe0       ??$forward@U?$pair@V?$basic_string@DU?$char_traits@D@std@@V?$allocator@D@2@@std@@V?$weak_ptr@VRawImageData@@@2@@std@@@std@@YA$$QAU?$pair@V?$basic_string@DU?$char_traits@D@std@@V?$allocator@D@2@@std@@V?$weak_ptr@VRawImageData@@@2@@0@AAU10@@Z 00419fe0 f i DraggingDemo.obj
 0001:00018ff0       ??$forward@V?$_Tree_iterator@V?$_Tree_val@U?$_Tree_simple_types@U?$pair@$$CBV?$basic_string@DU?$char_traits@D@std@@V?$allocator@D@2@@std@@V?$shared_ptr@VRawImageData@@@2@@std@@@std@@@std@@@std@@@std@@YA$$QAV?$_Tree_iterator@V?$_Tree_val@U?$_Tree_simple_types@U?$pair@$$CBV?$basic_string@DU?$char_traits@D@std@@V?$allocator@D@2@@std@@V?$shared_ptr@VRawImageData@@@2@@std@@@std@@@std@@@0@AAV10@@Z 00419ff0 f i DraggingDemo.obj
 0001:00019000       ??$forward@V?$_Tree_iterator@V?$_Tree_val@U?$_Tree_simple_types@U?$pair@$$CBV?$basic_string@DU?$char_traits@D@std@@V?$allocator@D@2@@std@@V?$weak_ptr@VRawImageData@@@2@@std@@@std@@@std@@@std@@@std@@YA$$QAV?$_Tree_iterator@V?$_Tree_val@U?$_Tree_simple_types@U?$pair@$$CBV?$basic_string@DU?$char_traits@D@std@@V?$allocator@D@2@@std@@V?$weak_ptr@VRawImageData@@@2@@std@@@std@@@std@@@0@AAV10@@Z 0041a000 f i DraggingDemo.obj
 0001:00019010       ??$forward@V?$allocator@D@std@@@std@@YA$$QAV?$allocator@D@0@AAV10@@Z 0041a010 f i DraggingDemo.obj
 0001:00019020       ??$forward@V?$basic_string@DU?$char_traits@D@std@@V?$allocator@D@2@@std@@@std@@YA$$QAV?$basic_string@DU?$char_traits@D@std@@V?$allocator@D@2@@0@AAV10@@Z 0041a020 f i DraggingDemo.obj
 0001:00019030       ??$forward@V?$shared_ptr@VRawImageData@@@std@@@std@@YA$$QAV?$shared_ptr@VRawImageData@@@0@AAV10@@Z 0041a030 f i DraggingDemo.obj
 0001:00019040       ??$forward@V?$weak_ptr@VRawImageData@@@std@@@std@@YA$$QAV?$weak_ptr@VRawImageData@@@0@AAV10@@Z 0041a040 f i DraggingDemo.obj
 0001:00019050       ??$insert@U?$pair@V?$basic_string@DU?$char_traits@D@std@@V?$allocator@D@2@@std@@V?$shared_ptr@VRawImageData@@@2@@std@@$0A@@?$map@V?$basic_string@DU?$char_traits@D@std@@V?$allocator@D@2@@std@@V?$shared_ptr@VRawImageData@@@2@U?$less@V?$basic_string@DU?$char_traits@D@std@@V?$allocator@D@2@@std@@@2@V?$allocator@U?$pair@$$CBV?$basic_string@DU?$char_traits@D@std@@V?$allocator@D@2@@std@@V?$shared_ptr@VRawImageData@@@2@@std@@@2@@std@@QAE?AU?$pair@V?$_Tree_iterator@V?$_Tree_val@U?$_Tree_simple_types@U?$pair@$$CBV?$basic_string@DU?$char_traits@D@std@@V?$allocator@D@2@@std@@V?$shared_ptr@VRawImageData@@@2@@std@@@std@@@std@@@std@@_N@1@$$QAU?$pair@V?$basic_string@DU?$char_traits@D@std@@V?$allocator@D@2@@std@@V?$shared_ptr@VRawImageData@@@2@@1@@Z 0041a050 f i DraggingDemo.obj
 0001:000190a0       ??$insert@U?$pair@V?$basic_string@DU?$char_traits@D@std@@V?$allocator@D@2@@std@@V?$weak_ptr@VRawImageData@@@2@@std@@$0A@@?$map@V?$basic_string@DU?$char_traits@D@std@@V?$allocator@D@2@@std@@V?$weak_ptr@VRawImageData@@@2@U?$less@V?$basic_string@DU?$char_traits@D@std@@V?$allocator@D@2@@std@@@2@V?$allocator@U?$pair@$$CBV?$basic_string@DU?$char_traits@D@std@@V?$allocator@D@2@@std@@V?$weak_ptr@VRawImageData@@@2@@std@@@2@@std@@QAE?AU?$pair@V?$_Tree_iterator@V?$_Tree_val@U?$_Tree_simple_types@U?$pair@$$CBV?$basic_string@DU?$char_traits@D@std@@V?$allocator@D@2@@std@@V?$weak_ptr@VRawImageData@@@2@@std@@@std@@@std@@@std@@_N@1@$$QAU?$pair@V?$basic_string@DU?$char_traits@D@std@@V?$allocator@D@2@@std@@V?$weak_ptr@VRawImageData@@@2@@1@@Z 0041a0a0 f i DraggingDemo.obj
 0001:000190f0       ??$move@AAD@std@@YA$$QADAAD@Z 0041a0f0 f i DraggingDemo.obj
 0001:00019100       ??$move@AAPAVDisplayableObject@@@std@@YA$$QAPAVDisplayableObject@@AAPAV1@@Z 0041a100 f i DraggingDemo.obj
 0001:00019110       ??$move@AAV?$allocator@D@std@@@std@@YA$$QAV?$allocator@D@0@AAV10@@Z 0041a110 f i DraggingDemo.obj
 0001:00019120       ??$move@AAV?$shared_ptr@VRawImageData@@@std@@@std@@YA$$QAV?$shared_ptr@VRawImageData@@@0@AAV10@@Z 0041a120 f i DraggingDemo.obj
 0001:00019130       ??$move@AAV?$weak_ptr@VRawImageData@@@std@@@std@@YA$$QAV?$weak_ptr@VRawImageData@@@0@AAV10@@Z 0041a130 f i DraggingDemo.obj
 0001:00019140       ??$swap@D$0A@@std@@YAXAAD0@Z 0041a140 f i DraggingDemo.obj
 0001:00019190       ??0?$_Alloc_construct_ptr@V?$allocator@U?$_Tree_node@U?$pair@$$CBV?$basic_string@DU?$char_traits@D@std@@V?$allocator@D@2@@std@@V?$shared_ptr@VRawImageData@@@2@@std@@PAX@std@@@std@@@std@@QAE@AAV?$allocator@U?$_Tree_node@U?$pair@$$CBV?$basic_string@DU?$char_traits@D@std@@V?$allocator@D@2@@std@@V?$shared_ptr@VRawImageData@@@2@@std@@PAX@std@@@1@@Z 0041a190 f i DraggingDemo.obj
 0001:000191c0       ??0?$_Alloc_construct_ptr@V?$allocator@U?$_Tree_node@U?$pair@$$CBV?$basic_string@DU?$char_traits@D@std@@V?$allocator@D@2@@std@@V?$weak_ptr@VRawImageData@@@2@@std@@PAX@std@@@std@@@std@@QAE@AAV?$allocator@U?$_Tree_node@U?$pair@$$CBV?$basic_string@DU?$char_traits@D@std@@V?$allocator@D@2@@std@@V?$weak_ptr@VRawImageData@@@2@@std@@PAX@std@@@1@@Z 0041a1c0 f i DraggingDemo.obj
 0001:000191f0       ??0?$_Ref_count@VRawImageData@@@std@@QAE@PAVRawImageData@@@Z 0041a1f0 f i DraggingDemo.obj
 0001:00019240       ??0?$_String_val@U?$_Simple_types@D@std@@@std@@QAE@XZ 0041a240 f i DraggingDemo.obj
 0001:00019290       ??0?$_Temporary_owner@VRawImageData@@@std@@QAE@QAVRawImageData@@@Z 0041a290 f i DraggingDemo.obj
 0001:000192b0       ??0?$_Tree@V?$_Tmap_traits@V?$basic_string@DU?$char_traits@D@std@@V?$allocator@D@2@@std@@V?$shared_ptr@VRawImageData@@@2@U?$less@V?$basic_string@DU?$char_traits@D@std@@V?$allocator@D@2@@std@@@2@V?$allocator@U?$pair@$$CBV?$basic_string@DU?$char_traits@D@std@@V?$allocator@D@2@@std@@V?$shared_ptr@VRawImageData@@@2@@std@@@2@$0A@@std@@@std@@QAE@ABU?$less@V?$basic_string@DU?$char_traits@D@std@@V?$allocator@D@2@@std@@@1@@Z 0041a2b0 f i DraggingDemo.obj
 0001:000192f0       ??0?$_Tree@V?$_Tmap_traits@V?$basic_string@DU?$char_traits@D@std@@V?$allocator@D@2@@std@@V?$weak_ptr@VRawImageData@@@2@U?$less@V?$basic_string@DU?$char_traits@D@std@@V?$allocator@D@2@@std@@@2@V?$allocator@U?$pair@$$CBV?$basic_string@DU?$char_traits@D@std@@V?$allocator@D@2@@std@@V?$weak_ptr@VRawImageData@@@2@@std@@@2@$0A@@std@@@std@@QAE@ABU?$less@V?$basic_string@DU?$char_traits@D@std@@V?$allocator@D@2@@std@@@1@@Z 0041a2f0 f i DraggingDemo.obj
 0001:00019330       ??0?$_Tree_const_iterator@V?$_Tree_val@U?$_Tree_simple_types@U?$pair@$$CBV?$basic_string@DU?$char_traits@D@std@@V?$allocator@D@2@@std@@V?$shared_ptr@VRawImageData@@@2@@std@@@std@@@std@@@std@@QAE@$$QAV01@@Z 0041a330 f i DraggingDemo.obj
 0001:00019360       ??0?$_Tree_const_iterator@V?$_Tree_val@U?$_Tree_simple_types@U?$pair@$$CBV?$basic_string@DU?$char_traits@D@std@@V?$allocator@D@2@@std@@V?$shared_ptr@VRawImageData@@@2@@std@@@std@@@std@@@std@@QAE@PAU?$_Tree_node@U?$pair@$$CBV?$basic_string@DU?$char_traits@D@std@@V?$allocator@D@2@@std@@V?$shared_ptr@VRawImageData@@@2@@std@@PAX@1@PBV?$_Tree_val@U?$_Tree_simple_types@U?$pair@$$CBV?$basic_string@DU?$char_traits@D@std@@V?$allocator@D@2@@std@@V?$shared_ptr@VRawImageData@@@2@@std@@@std@@@1@@Z 0041a360 f i DraggingDemo.obj
 0001:00019390       ??0?$_Tree_const_iterator@V?$_Tree_val@U?$_Tree_simple_types@U?$pair@$$CBV?$basic_string@DU?$char_traits@D@std@@V?$allocator@D@2@@std@@V?$weak_ptr@VRawImageData@@@2@@std@@@std@@@std@@@std@@QAE@$$QAV01@@Z 0041a390 f i DraggingDemo.obj
 0001:000193c0       ??0?$_Tree_const_iterator@V?$_Tree_val@U?$_Tree_simple_types@U?$pair@$$CBV?$basic_string@DU?$char_traits@D@std@@V?$allocator@D@2@@std@@V?$weak_ptr@VRawImageData@@@2@@std@@@std@@@std@@@std@@QAE@ABV01@@Z 0041a3c0 f i DraggingDemo.obj
 0001:000193f0       ??0?$_Tree_const_iterator@V?$_Tree_val@U?$_Tree_simple_types@U?$pair@$$CBV?$basic_string@DU?$char_traits@D@std@@V?$allocator@D@2@@std@@V?$weak_ptr@VRawImageData@@@2@@std@@@std@@@std@@@std@@QAE@PAU?$_Tree_node@U?$pair@$$CBV?$basic_string@DU?$char_traits@D@std@@V?$allocator@D@2@@std@@V?$weak_ptr@VRawImageData@@@2@@std@@PAX@1@PBV?$_Tree_val@U?$_Tree_simple_types@U?$pair@$$CBV?$basic_string@DU?$char_traits@D@std@@V?$allocator@D@2@@std@@V?$weak_ptr@VRawImageData@@@2@@std@@@std@@@1@@Z 0041a3f0 f i DraggingDemo.obj
 0001:00019420       ??0?$_Tree_iterator@V?$_Tree_val@U?$_Tree_simple_types@U?$pair@$$CBV?$basic_string@DU?$char_traits@D@std@@V?$allocator@D@2@@std@@V?$shared_ptr@VRawImageData@@@2@@std@@@std@@@std@@@std@@QAE@$$QAV01@@Z 0041a420 f i DraggingDemo.obj
 0001:00019450       ??0?$_Tree_iterator@V?$_Tree_val@U?$_Tree_simple_types@U?$pair@$$CBV?$basic_string@DU?$char_traits@D@std@@V?$allocator@D@2@@std@@V?$shared_ptr@VRawImageData@@@2@@std@@@std@@@std@@@std@@QAE@PAU?$_Tree_node@U?$pair@$$CBV?$basic_string@DU?$char_traits@D@std@@V?$allocator@D@2@@std@@V?$shared_ptr@VRawImageData@@@2@@std@@PAX@1@PBV?$_Tree_val@U?$_Tree_simple_types@U?$pair@$$CBV?$basic_string@DU?$char_traits@D@std@@V?$allocator@D@2@@std@@V?$shared_ptr@VRawImageData@@@2@@std@@@std@@@1@@Z 0041a450 f i DraggingDemo.obj
 0001:00019480       ??0?$_Tree_iterator@V?$_Tree_val@U?$_Tree_simple_types@U?$pair@$$CBV?$basic_string@DU?$char_traits@D@std@@V?$allocator@D@2@@std@@V?$weak_ptr@VRawImageData@@@2@@std@@@std@@@std@@@std@@QAE@$$QAV01@@Z 0041a480 f i DraggingDemo.obj
 0001:000194b0       ??0?$_Tree_iterator@V?$_Tree_val@U?$_Tree_simple_types@U?$pair@$$CBV?$basic_string@DU?$char_traits@D@std@@V?$allocator@D@2@@std@@V?$weak_ptr@VRawImageData@@@2@@std@@@std@@@std@@@std@@QAE@ABV01@@Z 0041a4b0 f i DraggingDemo.obj
 0001:000194e0       ??0?$_Tree_iterator@V?$_Tree_val@U?$_Tree_simple_types@U?$pair@$$CBV?$basic_string@DU?$char_traits@D@std@@V?$allocator@D@2@@std@@V?$weak_ptr@VRawImageData@@@2@@std@@@std@@@std@@@std@@QAE@PAU?$_Tree_node@U?$pair@$$CBV?$basic_string@DU?$char_traits@D@std@@V?$allocator@D@2@@std@@V?$weak_ptr@VRawImageData@@@2@@std@@PAX@1@PBV?$_Tree_val@U?$_Tree_simple_types@U?$pair@$$CBV?$basic_string@DU?$char_traits@D@std@@V?$allocator@D@2@@std@@V?$weak_ptr@VRawImageData@@@2@@std@@@std@@@1@@Z 0041a4e0 f i DraggingDemo.obj
 0001:00019510       ??0?$_Tree_temp_node_alloc@V?$allocator@U?$_Tree_node@U?$pair@$$CBV?$basic_string@DU?$char_traits@D@std@@V?$allocator@D@2@@std@@V?$shared_ptr@VRawImageData@@@2@@std@@PAX@std@@@std@@@std@@QAE@AAV?$allocator@U?$_Tree_node@U?$pair@$$CBV?$basic_string@DU?$char_traits@D@std@@V?$allocator@D@2@@std@@V?$shared_ptr@VRawImageData@@@2@@std@@PAX@std@@@1@@Z 0041a510 f i DraggingDemo.obj
 0001:00019590       ??0?$_Tree_temp_node_alloc@V?$allocator@U?$_Tree_node@U?$pair@$$CBV?$basic_string@DU?$char_traits@D@std@@V?$allocator@D@2@@std@@V?$weak_ptr@VRawImageData@@@2@@std@@PAX@std@@@std@@@std@@QAE@AAV?$allocator@U?$_Tree_node@U?$pair@$$CBV?$basic_string@DU?$char_traits@D@std@@V?$allocator@D@2@@std@@V?$weak_ptr@VRawImageData@@@2@@std@@PAX@std@@@1@@Z 0041a590 f i DraggingDemo.obj
 0001:00019610       ??0?$_Tree_unchecked_const_iterator@V?$_Tree_val@U?$_Tree_simple_types@U?$pair@$$CBV?$basic_string@DU?$char_traits@D@std@@V?$allocator@D@2@@std@@V?$shared_ptr@VRawImageData@@@2@@std@@@std@@@std@@U_Iterator_base12@2@@std@@QAE@$$QAV01@@Z 0041a610 f i DraggingDemo.obj
 0001:00019650       ??0?$_Tree_unchecked_const_iterator@V?$_Tree_val@U?$_Tree_simple_types@U?$pair@$$CBV?$basic_string@DU?$char_traits@D@std@@V?$allocator@D@2@@std@@V?$shared_ptr@VRawImageData@@@2@@std@@@std@@@std@@U_Iterator_base12@2@@std@@QAE@PAU?$_Tree_node@U?$pair@$$CBV?$basic_string@DU?$char_traits@D@std@@V?$allocator@D@2@@std@@V?$shared_ptr@VRawImageData@@@2@@std@@PAX@1@PBV?$_Tree_val@U?$_Tree_simple_types@U?$pair@$$CBV?$basic_string@DU?$char_traits@D@std@@V?$allocator@D@2@@std@@V?$shared_ptr@VRawImageData@@@2@@std@@@std@@@1@@Z 0041a650 f i DraggingDemo.obj
 0001:00019690       ??0?$_Tree_unchecked_const_iterator@V?$_Tree_val@U?$_Tree_simple_types@U?$pair@$$CBV?$basic_string@DU?$char_traits@D@std@@V?$allocator@D@2@@std@@V?$weak_ptr@VRawImageData@@@2@@std@@@std@@@std@@U_Iterator_base0@2@@std@@QAE@PAU?$_Tree_node@U?$pair@$$CBV?$basic_string@DU?$char_traits@D@std@@V?$allocator@D@2@@std@@V?$weak_ptr@VRawImageData@@@2@@std@@PAX@1@PBV?$_Tree_val@U?$_Tree_simple_types@U?$pair@$$CBV?$basic_string@DU?$char_traits@D@std@@V?$allocator@D@2@@std@@V?$weak_ptr@VRawImageData@@@2@@std@@@std@@@1@@Z 0041a690 f i DraggingDemo.obj
 0001:000196c0       ??0?$_Tree_unchecked_const_iterator@V?$_Tree_val@U?$_Tree_simple_types@U?$pair@$$CBV?$basic_string@DU?$char_traits@D@std@@V?$allocator@D@2@@std@@V?$weak_ptr@VRawImageData@@@2@@std@@@std@@@std@@U_Iterator_base12@2@@std@@QAE@$$QAV01@@Z 0041a6c0 f i DraggingDemo.obj
 0001:00019700       ??0?$_Tree_unchecked_const_iterator@V?$_Tree_val@U?$_Tree_simple_types@U?$pair@$$CBV?$basic_string@DU?$char_traits@D@std@@V?$allocator@D@2@@std@@V?$weak_ptr@VRawImageData@@@2@@std@@@std@@@std@@U_Iterator_base12@2@@std@@QAE@ABV01@@Z 0041a700 f i DraggingDemo.obj
 0001:00019740       ??0?$_Tree_unchecked_const_iterator@V?$_Tree_val@U?$_Tree_simple_types@U?$pair@$$CBV?$basic_string@DU?$char_traits@D@std@@V?$allocator@D@2@@std@@V?$weak_ptr@VRawImageData@@@2@@std@@@std@@@std@@U_Iterator_base12@2@@std@@QAE@PAU?$_Tree_node@U?$pair@$$CBV?$basic_string@DU?$char_traits@D@std@@V?$allocator@D@2@@std@@V?$weak_ptr@VRawImageData@@@2@@std@@PAX@1@PBV?$_Tree_val@U?$_Tree_simple_types@U?$pair@$$CBV?$basic_string@DU?$char_traits@D@std@@V?$allocator@D@2@@std@@V?$weak_ptr@VRawImageData@@@2@@std@@@std@@@1@@Z 0041a740 f i DraggingDemo.obj
 0001:00019780       ??0?$_Tree_unchecked_iterator@V?$_Tree_val@U?$_Tree_simple_types@U?$pair@$$CBV?$basic_string@DU?$char_traits@D@std@@V?$allocator@D@2@@std@@V?$weak_ptr@VRawImageData@@@2@@std@@@std@@@std@@@std@@QAE@PAU?$_Tree_node@U?$pair@$$CBV?$basic_string@DU?$char_traits@D@std@@V?$allocator@D@2@@std@@V?$weak_ptr@VRawImageData@@@2@@std@@PAX@1@PBV?$_Tree_val@U?$_Tree_simple_types@U?$pair@$$CBV?$basic_string@DU?$char_traits@D@std@@V?$allocator@D@2@@std@@V?$weak_ptr@VRawImageData@@@2@@std@@@std@@@1@@Z 0041a780 f i DraggingDemo.obj
 0001:000197b0       ??0?$_Tree_val@U?$_Tree_simple_types@U?$pair@$$CBV?$basic_string@DU?$char_traits@D@std@@V?$allocator@D@2@@std@@V?$shared_ptr@VRawImageData@@@2@@std@@@std@@@std@@QAE@XZ 0041a7b0 f i DraggingDemo.obj
 0001:000197f0       ??0?$_Tree_val@U?$_Tree_simple_types@U?$pair@$$CBV?$basic_string@DU?$char_traits@D@std@@V?$allocator@D@2@@std@@V?$weak_ptr@VRawImageData@@@2@@std@@@std@@@std@@QAE@XZ 0041a7f0 f i DraggingDemo.obj
 0001:00019830       ??0?$_Uninitialized_backout_al@V?$allocator@PAVDisplayableObject@@@std@@@std@@QAE@PAPAVDisplayableObject@@AAV?$allocator@PAVDisplayableObject@@@1@@Z 0041a830 f i DraggingDemo.obj
 0001:00019870       ??0?$allocator@D@std@@QAE@XZ 0041a870 f i DraggingDemo.obj
 0001:00019890       ??0?$allocator@U?$_Tree_node@U?$pair@$$CBV?$basic_string@DU?$char_traits@D@std@@V?$allocator@D@2@@std@@V?$shared_ptr@VRawImageData@@@2@@std@@PAX@std@@@std@@QAE@XZ 0041a890 f i DraggingDemo.obj
 0001:000198b0       ??0?$allocator@U?$_Tree_node@U?$pair@$$CBV?$basic_string@DU?$char_traits@D@std@@V?$allocator@D@2@@std@@V?$weak_ptr@VRawImageData@@@2@@std@@PAX@std@@@std@@QAE@XZ 0041a8b0 f i DraggingDemo.obj
 0001:000198d0       ??0?$basic_string@DU?$char_traits@D@std@@V?$allocator@D@2@@std@@QAE@$$QAV01@@Z 0041a8d0 f i DraggingDemo.obj
 0001:00019980       ??0?$basic_string@DU?$char_traits@D@std@@V?$allocator@D@2@@std@@QAE@ABV01@@Z 0041a980 f i DraggingDemo.obj
 0001:00019a70       ??0?$basic_string@DU?$char_traits@D@std@@V?$allocator@D@2@@std@@QAE@QBD@Z 0041aa70 f i DraggingDemo.obj
 0001:00019b50       ??0?$map@V?$basic_string@DU?$char_traits@D@std@@V?$allocator@D@2@@std@@V?$shared_ptr@VRawImageData@@@2@U?$less@V?$basic_string@DU?$char_traits@D@std@@V?$allocator@D@2@@std@@@2@V?$allocator@U?$pair@$$CBV?$basic_string@DU?$char_traits@D@std@@V?$allocator@D@2@@std@@V?$shared_ptr@VRawImageData@@@2@@std@@@2@@std@@QAE@XZ 0041ab50 f i DraggingDemo.obj
 0001:00019b80       ??0?$map@V?$basic_string@DU?$char_traits@D@std@@V?$allocator@D@2@@std@@V?$weak_ptr@VRawImageData@@@2@U?$less@V?$basic_string@DU?$char_traits@D@std@@V?$allocator@D@2@@std@@@2@V?$allocator@U?$pair@$$CBV?$basic_string@DU?$char_traits@D@std@@V?$allocator@D@2@@std@@V?$weak_ptr@VRawImageData@@@2@@std@@@2@@std@@QAE@XZ 0041ab80 f i DraggingDemo.obj
 0001:00019bb0       ??0?$shared_ptr@VRawImageData@@@std@@QAE@$$QAV01@@Z 0041abb0 f i DraggingDemo.obj
 0001:00019bf0       ??0?$shared_ptr@VRawImageData@@@std@@QAE@$$T@Z 0041abf0 f i DraggingDemo.obj
 0001:00019c10       ??0?$shared_ptr@VRawImageData@@@std@@QAE@XZ 0041ac10 f i DraggingDemo.obj
 0001:00019c30       ??0?$weak_ptr@VRawImageData@@@std@@QAE@$$QAV01@@Z 0041ac30 f i DraggingDemo.obj
 0001:00019c70       ??0?$weak_ptr@VRawImageData@@@std@@QAE@ABV01@@Z 0041ac70 f i DraggingDemo.obj
 0001:00019ca0       ??0DragableBaseClassObject@@QAE@HHPAVBaseEngine@@HH_N@Z 0041aca0 f i DraggingDemo.obj
 0001:00019d30       ??0DragableBaseClassObject@@QAE@PAVBaseEngine@@HH_N@Z 0041ad30 f i DraggingDemo.obj
 0001:00019db0       ??0DragableImageObject@@QAE@HHPAVBaseEngine@@V?$basic_string@DU?$char_traits@D@std@@V?$allocator@D@2@@std@@_N2@Z 0041adb0 f i DraggingDemo.obj
 0001:00019f50       ??0DragableObject@@QAE@HHPAVBaseEngine@@HH_N1@Z 0041af50 f i DraggingDemo.obj
 0001:0001a000       ??0DragableObject@@QAE@PAVBaseEngine@@HH_N1@Z 0041b000 f i DraggingDemo.obj
 0001:0001a0b0       ??0ImageManager@@QAE@XZ    0041b0b0 f i DraggingDemo.obj
 0001:0001a120       ??0ImageObject@@QAE@HHPAVBaseEngine@@V?$basic_string@DU?$char_traits@D@std@@V?$allocator@D@2@@std@@_N2@Z 0041b120 f i DraggingDemo.obj
 0001:0001a2b0       ??0RawImageData@@QAE@V?$basic_string@DU?$char_traits@D@std@@V?$allocator@D@2@@std@@@Z 0041b2b0 f i DraggingDemo.obj
 0001:0001a360       ??0_Bxty@?$_String_val@U?$_Simple_types@D@std@@@std@@QAE@XZ 0041b360 f i DraggingDemo.obj
 0001:0001a380       ??0_Ref_count_base@std@@IAE@XZ 0041b380 f i DraggingDemo.obj
 0001:0001a3b0       ??0_Sentry_base@?$basic_ostream@DU?$char_traits@D@std@@@std@@QAE@AAV12@@Z 0041b3b0 f i DraggingDemo.obj
 0001:0001a410       ??0sentry@?$basic_ostream@DU?$char_traits@D@std@@@std@@QAE@AAV12@@Z 0041b410 f i DraggingDemo.obj
 0001:0001a510       ??1?$_Alloc_construct_ptr@V?$allocator@U?$_Tree_node@U?$pair@$$CBV?$basic_string@DU?$char_traits@D@std@@V?$allocator@D@2@@std@@V?$shared_ptr@VRawImageData@@@2@@std@@PAX@std@@@std@@@std@@QAE@XZ 0041b510 f i DraggingDemo.obj
 0001:0001a580       ??1?$_Alloc_construct_ptr@V?$allocator@U?$_Tree_node@U?$pair@$$CBV?$basic_string@DU?$char_traits@D@std@@V?$allocator@D@2@@std@@V?$weak_ptr@VRawImageData@@@2@@std@@PAX@std@@@std@@@std@@QAE@XZ 0041b580 f i DraggingDemo.obj
 0001:0001a5f0       ??1?$_Compressed_pair@V?$allocator@D@std@@V?$_String_val@U?$_Simple_types@D@std@@@2@$00@std@@QAE@XZ 0041b5f0 f i DraggingDemo.obj
 0001:0001a610       ??1?$_Ref_count@VRawImageData@@@std@@UAE@XZ 0041b610 f i DraggingDemo.obj
 0001:0001a630       ??1?$_String_val@U?$_Simple_types@D@std@@@std@@QAE@XZ 0041b630 f i DraggingDemo.obj
 0001:0001a650       ??1?$_Temporary_owner@VRawImageData@@@std@@QAE@XZ 0041b650 f i DraggingDemo.obj
 0001:0001a690       ??1?$_Tree@V?$_Tmap_traits@V?$basic_string@DU?$char_traits@D@std@@V?$allocator@D@2@@std@@V?$weak_ptr@VRawImageData@@@2@U?$less@V?$basic_string@DU?$char_traits@D@std@@V?$allocator@D@2@@std@@@2@V?$allocator@U?$pair@$$CBV?$basic_string@DU?$char_traits@D@std@@V?$allocator@D@2@@std@@V?$weak_ptr@VRawImageData@@@2@@std@@@2@$0A@@std@@@std@@QAE@XZ 0041b690 f i DraggingDemo.obj
 0001:0001a700       ??1?$_Tree_const_iterator@V?$_Tree_val@U?$_Tree_simple_types@U?$pair@$$CBV?$basic_string@DU?$char_traits@D@std@@V?$allocator@D@2@@std@@V?$shared_ptr@VRawImageData@@@2@@std@@@std@@@std@@@std@@QAE@XZ 0041b700 f i DraggingDemo.obj
 0001:0001a720       ??1?$_Tree_const_iterator@V?$_Tree_val@U?$_Tree_simple_types@U?$pair@$$CBV?$basic_string@DU?$char_traits@D@std@@V?$allocator@D@2@@std@@V?$weak_ptr@VRawImageData@@@2@@std@@@std@@@std@@@std@@QAE@XZ 0041b720 f i DraggingDemo.obj
 0001:0001a740       ??1?$_Tree_iterator@V?$_Tree_val@U?$_Tree_simple_types@U?$pair@$$CBV?$basic_string@DU?$char_traits@D@std@@V?$allocator@D@2@@std@@V?$shared_ptr@VRawImageData@@@2@@std@@@std@@@std@@@std@@QAE@XZ 0041b740 f i DraggingDemo.obj
 0001:0001a760       ??1?$_Tree_iterator@V?$_Tree_val@U?$_Tree_simple_types@U?$pair@$$CBV?$basic_string@DU?$char_traits@D@std@@V?$allocator@D@2@@std@@V?$weak_ptr@VRawImageData@@@2@@std@@@std@@@std@@@std@@QAE@XZ 0041b760 f i DraggingDemo.obj
 0001:0001a780       ??1?$_Tree_temp_node@V?$allocator@U?$_Tree_node@U?$pair@$$CBV?$basic_string@DU?$char_traits@D@std@@V?$allocator@D@2@@std@@V?$shared_ptr@VRawImageData@@@2@@std@@PAX@std@@@std@@@std@@QAE@XZ 0041b780 f i DraggingDemo.obj
 0001:0001a850       ??1?$_Tree_temp_node@V?$allocator@U?$_Tree_node@U?$pair@$$CBV?$basic_string@DU?$char_traits@D@std@@V?$allocator@D@2@@std@@V?$weak_ptr@VRawImageData@@@2@@std@@PAX@std@@@std@@@std@@QAE@XZ 0041b850 f i DraggingDemo.obj
 0001:0001a920       ??1?$_Tree_temp_node_alloc@V?$allocator@U?$_Tree_node@U?$pair@$$CBV?$basic_string@DU?$char_traits@D@std@@V?$allocator@D@2@@std@@V?$shared_ptr@VRawImageData@@@2@@std@@PAX@std@@@std@@@std@@QAE@XZ 0041b920 f i DraggingDemo.obj
 0001:0001a940       ??1?$_Tree_temp_node_alloc@V?$allocator@U?$_Tree_node@U?$pair@$$CBV?$basic_string@DU?$char_traits@D@std@@V?$allocator@D@2@@std@@V?$weak_ptr@VRawImageData@@@2@@std@@PAX@std@@@std@@@std@@QAE@XZ 0041b940 f i DraggingDemo.obj
 0001:0001a960       ??1?$_Tree_unchecked_const_iterator@V?$_Tree_val@U?$_Tree_simple_types@U?$pair@$$CBV?$basic_string@DU?$char_traits@D@std@@V?$allocator@D@2@@std@@V?$shared_ptr@VRawImageData@@@2@@std@@@std@@@std@@U_Iterator_base12@2@@std@@QAE@XZ 0041b960 f i DraggingDemo.obj
 0001:0001a980       ??1?$_Tree_unchecked_const_iterator@V?$_Tree_val@U?$_Tree_simple_types@U?$pair@$$CBV?$basic_string@DU?$char_traits@D@std@@V?$allocator@D@2@@std@@V?$weak_ptr@VRawImageData@@@2@@std@@@std@@@std@@U_Iterator_base12@2@@std@@QAE@XZ 0041b980 f i DraggingDemo.obj
 0001:0001a9a0       ??1?$_Uninitialized_backout_al@V?$allocator@PAVDisplayableObject@@@std@@@std@@QAE@XZ 0041b9a0 f i DraggingDemo.obj
 0001:0001a9d0       ??1?$basic_string@DU?$char_traits@D@std@@V?$allocator@D@2@@std@@QAE@XZ 0041b9d0 f i DraggingDemo.obj
 0001:0001aa40       ??1?$map@V?$basic_string@DU?$char_traits@D@std@@V?$allocator@D@2@@std@@V?$weak_ptr@VRawImageData@@@2@U?$less@V?$basic_string@DU?$char_traits@D@std@@V?$allocator@D@2@@std@@@2@V?$allocator@U?$pair@$$CBV?$basic_string@DU?$char_traits@D@std@@V?$allocator@D@2@@std@@V?$weak_ptr@VRawImageData@@@2@@std@@@2@@std@@QAE@XZ 0041ba40 f i DraggingDemo.obj
 0001:0001aa60       ??1?$pair@$$CBV?$basic_string@DU?$char_traits@D@std@@V?$allocator@D@2@@std@@V?$shared_ptr@VRawImageData@@@2@@std@@QAE@XZ 0041ba60 f i DraggingDemo.obj
 0001:0001aa90       ??1?$pair@$$CBV?$basic_string@DU?$char_traits@D@std@@V?$allocator@D@2@@std@@V?$weak_ptr@VRawImageData@@@2@@std@@QAE@XZ 0041ba90 f i DraggingDemo.obj
 0001:0001aac0       ??1?$pair@V?$_Tree_iterator@V?$_Tree_val@U?$_Tree_simple_types@U?$pair@$$CBV?$basic_string@DU?$char_traits@D@std@@V?$allocator@D@2@@std@@V?$shared_ptr@VRawImageData@@@2@@std@@@std@@@std@@@std@@_N@std@@QAE@XZ 0041bac0 f i DraggingDemo.obj
 0001:0001aae0       ??1?$pair@V?$_Tree_iterator@V?$_Tree_val@U?$_Tree_simple_types@U?$pair@$$CBV?$basic_string@DU?$char_traits@D@std@@V?$allocator@D@2@@std@@V?$weak_ptr@VRawImageData@@@2@@std@@@std@@@std@@@std@@_N@std@@QAE@XZ 0041bae0 f i DraggingDemo.obj
 0001:0001ab00       ??1?$pair@V?$basic_string@DU?$char_traits@D@std@@V?$allocator@D@2@@std@@V?$shared_ptr@VRawImageData@@@2@@std@@QAE@XZ 0041bb00 f i DraggingDemo.obj
 0001:0001ab30       ??1?$pair@V?$basic_string@DU?$char_traits@D@std@@V?$allocator@D@2@@std@@V?$weak_ptr@VRawImageData@@@2@@std@@QAE@XZ 0041bb30 f i DraggingDemo.obj
 0001:0001ab60       ??1?$weak_ptr@VRawImageData@@@std@@QAE@XZ 0041bb60 f i DraggingDemo.obj
 0001:0001ab80       ??1DragableBaseClassObject@@UAE@XZ 0041bb80 f i DraggingDemo.obj
 0001:0001aba0       ??1DragableImageObject@@UAE@XZ 0041bba0 f i DraggingDemo.obj
 0001:0001abd0       ??1DragableObject@@UAE@XZ  0041bbd0 f i DraggingDemo.obj
 0001:0001abf0       ??1ImageObject@@UAE@XZ     0041bbf0 f i DraggingDemo.obj
 0001:0001ac20       ??1RawImageData@@QAE@XZ    0041bc20 f i DraggingDemo.obj
 0001:0001ac80       ??1_Bxty@?$_String_val@U?$_Simple_types@D@std@@@std@@QAE@XZ 0041bc80 f i DraggingDemo.obj
 0001:0001ac90       ??1_Ref_count_base@std@@UAE@XZ 0041bc90 f i DraggingDemo.obj
 0001:0001aca0       ??1_Sentry_base@?$basic_ostream@DU?$char_traits@D@std@@@std@@QAE@XZ 0041bca0 f i DraggingDemo.obj
 0001:0001ad30       ??1sentry@?$basic_ostream@DU?$char_traits@D@std@@@std@@QAE@XZ 0041bd30 f i DraggingDemo.obj
 0001:0001adc0       ??8?$_Tree_const_iterator@V?$_Tree_val@U?$_Tree_simple_types@U?$pair@$$CBV?$basic_string@DU?$char_traits@D@std@@V?$allocator@D@2@@std@@V?$weak_ptr@VRawImageData@@@2@@std@@@std@@@std@@@std@@QBE_NABV01@@Z 0041bdc0 f i DraggingDemo.obj
 0001:0001ae80       ??9?$_Tree_const_iterator@V?$_Tree_val@U?$_Tree_simple_types@U?$pair@$$CBV?$basic_string@DU?$char_traits@D@std@@V?$allocator@D@2@@std@@V?$weak_ptr@VRawImageData@@@2@@std@@@std@@@std@@@std@@QBE_NABV01@@Z 0041be80 f i DraggingDemo.obj
 0001:0001aed0       ??A?$vector@PAVDisplayableObject@@V?$allocator@PAVDisplayableObject@@@std@@@std@@QAEAAPAVDisplayableObject@@I@Z 0041bed0 f i DraggingDemo.obj
 0001:0001af80       ??Bsentry@?$basic_ostream@DU?$char_traits@D@std@@@std@@QBE_NXZ 0041bf80 f i DraggingDemo.obj
 0001:0001afa0       ??C?$_Tree_iterator@V?$_Tree_val@U?$_Tree_simple_types@U?$pair@$$CBV?$basic_string@DU?$char_traits@D@std@@V?$allocator@D@2@@std@@V?$weak_ptr@VRawImageData@@@2@@std@@@std@@@std@@@std@@QBEPAU?$pair@$$CBV?$basic_string@DU?$char_traits@D@std@@V?$allocator@D@2@@std@@V?$weak_ptr@VRawImageData@@@2@@1@XZ 0041bfa0 f i DraggingDemo.obj
 0001:0001afd0       ??D?$_Tree_const_iterator@V?$_Tree_val@U?$_Tree_simple_types@U?$pair@$$CBV?$basic_string@DU?$char_traits@D@std@@V?$allocator@D@2@@std@@V?$weak_ptr@VRawImageData@@@2@@std@@@std@@@std@@@std@@QBEABU?$pair@$$CBV?$basic_string@DU?$char_traits@D@std@@V?$allocator@D@2@@std@@V?$weak_ptr@VRawImageData@@@2@@1@XZ 0041bfd0 f i DraggingDemo.obj
 0001:0001b0e0       ??D?$_Tree_iterator@V?$_Tree_val@U?$_Tree_simple_types@U?$pair@$$CBV?$basic_string@DU?$char_traits@D@std@@V?$allocator@D@2@@std@@V?$weak_ptr@VRawImageData@@@2@@std@@@std@@@std@@@std@@QBEAAU?$pair@$$CBV?$basic_string@DU?$char_traits@D@std@@V?$allocator@D@2@@std@@V?$weak_ptr@VRawImageData@@@2@@1@XZ 0041c0e0 f i DraggingDemo.obj
 0001:0001b100       ??E?$_Tree_unchecked_const_iterator@V?$_Tree_val@U?$_Tree_simple_types@U?$pair@$$CBV?$basic_string@DU?$char_traits@D@std@@V?$allocator@D@2@@std@@V?$weak_ptr@VRawImageData@@@2@@std@@@std@@@std@@U_Iterator_base0@2@@std@@QAEAAV01@XZ 0041c100 f i DraggingDemo.obj
 0001:0001b190       ??R<lambda_9366063389c5f42a00a5088cf24e69de>@@QBE@QADIQBD@Z 0041c190 f i DraggingDemo.obj
 0001:0001b1e0       ??R?$less@V?$basic_string@DU?$char_traits@D@std@@V?$allocator@D@2@@std@@@std@@QBE_NABV?$basic_string@DU?$char_traits@D@std@@V?$allocator@D@2@@1@0@Z 0041c1e0 f i DraggingDemo.obj
 0001:0001b210       ??_G?$_Ref_count@VRawImageData@@@std@@UAEPAXI@Z 0041c210 f i DraggingDemo.obj
 0001:0001b210       ??_E?$_Ref_count@VRawImageData@@@std@@UAEPAXI@Z 0041c210 f i DraggingDemo.obj
 0001:0001b250       ??_G?$pair@$$CBV?$basic_string@DU?$char_traits@D@std@@V?$allocator@D@2@@std@@V?$shared_ptr@VRawImageData@@@2@@std@@QAEPAXI@Z 0041c250 f i DraggingDemo.obj
 0001:0001b290       ??_G?$pair@$$CBV?$basic_string@DU?$char_traits@D@std@@V?$allocator@D@2@@std@@V?$weak_ptr@VRawImageData@@@2@@std@@QAEPAXI@Z 0041c290 f i DraggingDemo.obj
 0001:0001b2d0       ??_EDragableBaseClassObject@@UAEPAXI@Z 0041c2d0 f i DraggingDemo.obj
 0001:0001b2d0       ??_GDragableBaseClassObject@@UAEPAXI@Z 0041c2d0 f i DraggingDemo.obj
 0001:0001b310       ??_GDragableImageObject@@UAEPAXI@Z 0041c310 f i DraggingDemo.obj
 0001:0001b310       ??_EDragableImageObject@@UAEPAXI@Z 0041c310 f i DraggingDemo.obj
 0001:0001b350       ??_EDragableObject@@UAEPAXI@Z 0041c350 f i DraggingDemo.obj
 0001:0001b350       ??_GDragableObject@@UAEPAXI@Z 0041c350 f i DraggingDemo.obj
 0001:0001b390       ??_GImageObject@@UAEPAXI@Z 0041c390 f i DraggingDemo.obj
 0001:0001b390       ??_EImageObject@@UAEPAXI@Z 0041c390 f i DraggingDemo.obj
 0001:0001b3d0       ??_GRawImageData@@QAEPAXI@Z 0041c3d0 f i DraggingDemo.obj
 0001:0001b410       ?_Alloc_sentinel_and_proxy@?$_Tree@V?$_Tmap_traits@V?$basic_string@DU?$char_traits@D@std@@V?$allocator@D@2@@std@@V?$shared_ptr@VRawImageData@@@2@U?$less@V?$basic_string@DU?$char_traits@D@std@@V?$allocator@D@2@@std@@@2@V?$allocator@U?$pair@$$CBV?$basic_string@DU?$char_traits@D@std@@V?$allocator@D@2@@std@@V?$shared_ptr@VRawImageData@@@2@@std@@@2@$0A@@std@@@std@@IAEXXZ 0041c410 f i DraggingDemo.obj
 0001:0001b4e0       ?_Alloc_sentinel_and_proxy@?$_Tree@V?$_Tmap_traits@V?$basic_string@DU?$char_traits@D@std@@V?$allocator@D@2@@std@@V?$weak_ptr@VRawImageData@@@2@U?$less@V?$basic_string@DU?$char_traits@D@std@@V?$allocator@D@2@@std@@@2@V?$allocator@U?$pair@$$CBV?$basic_string@DU?$char_traits@D@std@@V?$allocator@D@2@@std@@V?$weak_ptr@VRawImageData@@@2@@std@@@2@$0A@@std@@@std@@IAEXXZ 0041c4e0 f i DraggingDemo.obj
 0001:0001b5b0       ?_Allocate@?$_Alloc_construct_ptr@V?$allocator@U?$_Tree_node@U?$pair@$$CBV?$basic_string@DU?$char_traits@D@std@@V?$allocator@D@2@@std@@V?$shared_ptr@VRawImageData@@@2@@std@@PAX@std@@@std@@@std@@QAEXXZ 0041c5b0 f i DraggingDemo.obj
 0001:0001b5e0       ?_Allocate@?$_Alloc_construct_ptr@V?$allocator@U?$_Tree_node@U?$pair@$$CBV?$basic_string@DU?$char_traits@D@std@@V?$allocator@D@2@@std@@V?$weak_ptr@VRawImageData@@@2@@std@@PAX@std@@@std@@@std@@QAEXXZ 0041c5e0 f i DraggingDemo.obj
 0001:0001b610       ?_Calculate_growth@?$basic_string@DU?$char_traits@D@std@@V?$allocator@D@2@@std@@ABEII@Z 0041c610 f i DraggingDemo.obj
 0001:0001b650       ?_Calculate_growth@?$basic_string@DU?$char_traits@D@std@@V?$allocator@D@2@@std@@CAIIII@Z 0041c650 f i DraggingDemo.obj
 0001:0001b6c0       ?_Calculate_growth@?$vector@PAVDisplayableObject@@V?$allocator@PAVDisplayableObject@@@std@@@std@@ABEII@Z 0041c6c0 f i DraggingDemo.obj
 0001:0001b730       ?_Change_array@?$vector@PAVDisplayableObject@@V?$allocator@PAVDisplayableObject@@@std@@@std@@AAEXQAPAVDisplayableObject@@II@Z 0041c730 f i DraggingDemo.obj
 0001:0001b800       ?_Check_grow_by_1@?$_Tree@V?$_Tmap_traits@V?$basic_string@DU?$char_traits@D@std@@V?$allocator@D@2@@std@@V?$shared_ptr@VRawImageData@@@2@U?$less@V?$basic_string@DU?$char_traits@D@std@@V?$allocator@D@2@@std@@@2@V?$allocator@U?$pair@$$CBV?$basic_string@DU?$char_traits@D@std@@V?$allocator@D@2@@std@@V?$shared_ptr@VRawImageData@@@2@@std@@@2@$0A@@std@@@std@@IAEXXZ 0041c800 f i DraggingDemo.obj
 0001:0001b840       ?_Check_grow_by_1@?$_Tree@V?$_Tmap_traits@V?$basic_string@DU?$char_traits@D@std@@V?$allocator@D@2@@std@@V?$weak_ptr@VRawImageData@@@2@U?$less@V?$basic_string@DU?$char_traits@D@std@@V?$allocator@D@2@@std@@@2@V?$allocator@U?$pair@$$CBV?$basic_string@DU?$char_traits@D@std@@V?$allocator@D@2@@std@@V?$weak_ptr@VRawImageData@@@2@@std@@@2@$0A@@std@@@std@@IAEXXZ 0041c840 f i DraggingDemo.obj
 0001:0001b880       ?_Construct_lv_contents@?$basic_string@DU?$char_traits@D@std@@V?$allocator@D@2@@std@@AAEXABV12@@Z 0041c880 f i DraggingDemo.obj
 0001:0001b9d0       ?_Decwref@?$_Ptr_base@VRawImageData@@@std@@IAEXXZ 0041c9d0 f i DraggingDemo.obj
 0001:0001ba00       ?_Delete_this@?$_Ref_count@VRawImageData@@@std@@EAEXXZ 0041ca00 f i DraggingDemo.obj
 0001:0001ba50       ?_Destroy@?$_Ref_count@VRawImageData@@@std@@EAEXXZ 0041ca50 f i DraggingDemo.obj
 0001:0001ba90       ?_Destroy@?$vector@PAVDisplayableObject@@V?$allocator@PAVDisplayableObject@@@std@@@std@@AAEXPAPAVDisplayableObject@@0@Z 0041ca90 f i DraggingDemo.obj
 0001:0001bac0       ?_Erase_unchecked@?$_Tree@V?$_Tmap_traits@V?$basic_string@DU?$char_traits@D@std@@V?$allocator@D@2@@std@@V?$weak_ptr@VRawImageData@@@2@U?$less@V?$basic_string@DU?$char_traits@D@std@@V?$allocator@D@2@@std@@@2@V?$allocator@U?$pair@$$CBV?$basic_string@DU?$char_traits@D@std@@V?$allocator@D@2@@std@@V?$weak_ptr@VRawImageData@@@2@@std@@@2@$0A@@std@@@std@@AAEPAU?$_Tree_node@U?$pair@$$CBV?$basic_string@DU?$char_traits@D@std@@V?$allocator@D@2@@std@@V?$weak_ptr@VRawImageData@@@2@@std@@PAX@2@V?$_Tree_unchecked_const_iterator@V?$_Tree_val@U?$_Tree_simple_types@U?$pair@$$CBV?$basic_string@DU?$char_traits@D@std@@V?$allocator@D@2@@std@@V?$weak_ptr@VRawImageData@@@2@@std@@@std@@@std@@U_Iterator_base0@2@@2@@Z 0041cac0 f i DraggingDemo.obj
 0001:0001bb40       ?_Extract@?$_In_place_key_extract_map@V?$basic_string@DU?$char_traits@D@std@@V?$allocator@D@2@@std@@U?$pair@V?$basic_string@DU?$char_traits@D@std@@V?$allocator@D@2@@std@@V?$shared_ptr@VRawImageData@@@2@@2@@std@@SAABV?$basic_string@DU?$char_traits@D@std@@V?$allocator@D@2@@2@ABU?$pair@V?$basic_string@DU?$char_traits@D@std@@V?$allocator@D@2@@std@@V?$shared_ptr@VRawImageData@@@2@@2@@Z 0041cb40 f i DraggingDemo.obj
 0001:0001bb50       ?_Extract@?$_In_place_key_extract_map@V?$basic_string@DU?$char_traits@D@std@@V?$allocator@D@2@@std@@U?$pair@V?$basic_string@DU?$char_traits@D@std@@V?$allocator@D@2@@std@@V?$weak_ptr@VRawImageData@@@2@@2@@std@@SAABV?$basic_string@DU?$char_traits@D@std@@V?$allocator@D@2@@2@ABU?$pair@V?$basic_string@DU?$char_traits@D@std@@V?$allocator@D@2@@std@@V?$weak_ptr@VRawImageData@@@2@@2@@Z 0041cb50 f i DraggingDemo.obj
 0001:0001bb60       ?_Extract@?$_Tree_val@U?$_Tree_simple_types@U?$pair@$$CBV?$basic_string@DU?$char_traits@D@std@@V?$allocator@D@2@@std@@V?$weak_ptr@VRawImageData@@@2@@std@@@std@@@std@@QAEPAU?$_Tree_node@U?$pair@$$CBV?$basic_string@DU?$char_traits@D@std@@V?$allocator@D@2@@std@@V?$weak_ptr@VRawImageData@@@2@@std@@PAX@2@V?$_Tree_unchecked_const_iterator@V?$_Tree_val@U?$_Tree_simple_types@U?$pair@$$CBV?$basic_string@DU?$char_traits@D@std@@V?$allocator@D@2@@std@@V?$weak_ptr@VRawImageData@@@2@@std@@@std@@@std@@U_Iterator_base0@2@@2@@Z 0041cb60 f i DraggingDemo.obj
 0001:0001c0a0       ?_Get_deleter@_Ref_count_base@std@@UBEPAXABVtype_info@@@Z 0041d0a0 f i DraggingDemo.obj
 0001:0001c0c0       ?_Get_first@?$_Compressed_pair@U?$less@V?$basic_string@DU?$char_traits@D@std@@V?$allocator@D@2@@std@@@std@@V?$_Compressed_pair@V?$allocator@U?$_Tree_node@U?$pair@$$CBV?$basic_string@DU?$char_traits@D@std@@V?$allocator@D@2@@std@@V?$shared_ptr@VRawImageData@@@2@@std@@PAX@std@@@std@@V?$_Tree_val@U?$_Tree_simple_types@U?$pair@$$CBV?$basic_string@DU?$char_traits@D@std@@V?$allocator@D@2@@std@@V?$shared_ptr@VRawImageData@@@2@@std@@@std@@@2@$00@2@$00@std@@QBEABU?$less@V?$basic_string@DU?$char_traits@D@std@@V?$allocator@D@2@@std@@@2@XZ 0041d0c0 f i DraggingDemo.obj
 0001:0001c0e0       ?_Get_first@?$_Compressed_pair@U?$less@V?$basic_string@DU?$char_traits@D@std@@V?$allocator@D@2@@std@@@std@@V?$_Compressed_pair@V?$allocator@U?$_Tree_node@U?$pair@$$CBV?$basic_string@DU?$char_traits@D@std@@V?$allocator@D@2@@std@@V?$weak_ptr@VRawImageData@@@2@@std@@PAX@std@@@std@@V?$_Tree_val@U?$_Tree_simple_types@U?$pair@$$CBV?$basic_string@DU?$char_traits@D@std@@V?$allocator@D@2@@std@@V?$weak_ptr@VRawImageData@@@2@@std@@@std@@@2@$00@2@$00@std@@QBEABU?$less@V?$basic_string@DU?$char_traits@D@std@@V?$allocator@D@2@@std@@@2@XZ 0041d0e0 f i DraggingDemo.obj
 0001:0001c100       ?_Get_first@?$_Compressed_pair@V?$allocator@D@std@@V?$_String_val@U?$_Simple_types@D@std@@@2@$00@std@@QAEAAV?$allocator@D@2@XZ 0041d100 f i DraggingDemo.obj
 0001:0001c120       ?_Get_first@?$_Compressed_pair@V?$allocator@D@std@@V?$_String_val@U?$_Simple_types@D@std@@@2@$00@std@@QBEABV?$allocator@D@2@XZ 0041d120 f i DraggingDemo.obj
 0001:0001c140       ?_Get_first@?$_Compressed_pair@V?$allocator@PAVDisplayableObject@@@std@@V?$_Vector_val@U?$_Simple_types@PAVDisplayableObject@@@std@@@2@$00@std@@QAEAAV?$allocator@PAVDisplayableObject@@@2@XZ 0041d140 f i DraggingDemo.obj
 0001:0001c160       ?_Get_first@?$_Compressed_pair@V?$allocator@PAVDisplayableObject@@@std@@V?$_Vector_val@U?$_Simple_types@PAVDisplayableObject@@@std@@@2@$00@std@@QBEABV?$allocator@PAVDisplayableObject@@@2@XZ 0041d160 f i DraggingDemo.obj
 0001:0001c180       ?_Get_first@?$_Compressed_pair@V?$allocator@U?$_Tree_node@U?$pair@$$CBV?$basic_string@DU?$char_traits@D@std@@V?$allocator@D@2@@std@@V?$shared_ptr@VRawImageData@@@2@@std@@PAX@std@@@std@@V?$_Tree_val@U?$_Tree_simple_types@U?$pair@$$CBV?$basic_string@DU?$char_traits@D@std@@V?$allocator@D@2@@std@@V?$shared_ptr@VRawImageData@@@2@@std@@@std@@@2@$00@std@@QAEAAV?$allocator@U?$_Tree_node@U?$pair@$$CBV?$basic_string@DU?$char_traits@D@std@@V?$allocator@D@2@@std@@V?$shared_ptr@VRawImageData@@@2@@std@@PAX@std@@@2@XZ 0041d180 f i DraggingDemo.obj
 0001:0001c1a0       ?_Get_first@?$_Compressed_pair@V?$allocator@U?$_Tree_node@U?$pair@$$CBV?$basic_string@DU?$char_traits@D@std@@V?$allocator@D@2@@std@@V?$shared_ptr@VRawImageData@@@2@@std@@PAX@std@@@std@@V?$_Tree_val@U?$_Tree_simple_types@U?$pair@$$CBV?$basic_string@DU?$char_traits@D@std@@V?$allocator@D@2@@std@@V?$shared_ptr@VRawImageData@@@2@@std@@@std@@@2@$00@std@@QBEABV?$allocator@U?$_Tree_node@U?$pair@$$CBV?$basic_string@DU?$char_traits@D@std@@V?$allocator@D@2@@std@@V?$shared_ptr@VRawImageData@@@2@@std@@PAX@std@@@2@XZ 0041d1a0 f i DraggingDemo.obj
 0001:0001c1c0       ?_Get_first@?$_Compressed_pair@V?$allocator@U?$_Tree_node@U?$pair@$$CBV?$basic_string@DU?$char_traits@D@std@@V?$allocator@D@2@@std@@V?$weak_ptr@VRawImageData@@@2@@std@@PAX@std@@@std@@V?$_Tree_val@U?$_Tree_simple_types@U?$pair@$$CBV?$basic_string@DU?$char_traits@D@std@@V?$allocator@D@2@@std@@V?$weak_ptr@VRawImageData@@@2@@std@@@std@@@2@$00@std@@QAEAAV?$allocator@U?$_Tree_node@U?$pair@$$CBV?$basic_string@DU?$char_traits@D@std@@V?$allocator@D@2@@std@@V?$weak_ptr@VRawImageData@@@2@@std@@PAX@std@@@2@XZ 0041d1c0 f i DraggingDemo.obj
 0001:0001c1e0       ?_Get_first@?$_Compressed_pair@V?$allocator@U?$_Tree_node@U?$pair@$$CBV?$basic_string@DU?$char_traits@D@std@@V?$allocator@D@2@@std@@V?$weak_ptr@VRawImageData@@@2@@std@@PAX@std@@@std@@V?$_Tree_val@U?$_Tree_simple_types@U?$pair@$$CBV?$basic_string@DU?$char_traits@D@std@@V?$allocator@D@2@@std@@V?$weak_ptr@VRawImageData@@@2@@std@@@std@@@2@$00@std@@QBEABV?$allocator@U?$_Tree_node@U?$pair@$$CBV?$basic_string@DU?$char_traits@D@std@@V?$allocator@D@2@@std@@V?$weak_ptr@VRawImageData@@@2@@std@@PAX@std@@@2@XZ 0041d1e0 f i DraggingDemo.obj
 0001:0001c200       ?_Get_scary@?$_Tree@V?$_Tmap_traits@V?$basic_string@DU?$char_traits@D@std@@V?$allocator@D@2@@std@@V?$shared_ptr@VRawImageData@@@2@U?$less@V?$basic_string@DU?$char_traits@D@std@@V?$allocator@D@2@@std@@@2@V?$allocator@U?$pair@$$CBV?$basic_string@DU?$char_traits@D@std@@V?$allocator@D@2@@std@@V?$shared_ptr@VRawImageData@@@2@@std@@@2@$0A@@std@@@std@@IAEPAV?$_Tree_val@U?$_Tree_simple_types@U?$pair@$$CBV?$basic_string@DU?$char_traits@D@std@@V?$allocator@D@2@@std@@V?$shared_ptr@VRawImageData@@@2@@std@@@std@@@2@XZ 0041d200 f i DraggingDemo.obj
 0001:0001c220       ?_Get_scary@?$_Tree@V?$_Tmap_traits@V?$basic_string@DU?$char_traits@D@std@@V?$allocator@D@2@@std@@V?$shared_ptr@VRawImageData@@@2@U?$less@V?$basic_string@DU?$char_traits@D@std@@V?$allocator@D@2@@std@@@2@V?$allocator@U?$pair@$$CBV?$basic_string@DU?$char_traits@D@std@@V?$allocator@D@2@@std@@V?$shared_ptr@VRawImageData@@@2@@std@@@2@$0A@@std@@@std@@IBEPBV?$_Tree_val@U?$_Tree_simple_types@U?$pair@$$CBV?$basic_string@DU?$char_traits@D@std@@V?$allocator@D@2@@std@@V?$shared_ptr@VRawImageData@@@2@@std@@@std@@@2@XZ 0041d220 f i DraggingDemo.obj
 0001:0001c240       ?_Get_scary@?$_Tree@V?$_Tmap_traits@V?$basic_string@DU?$char_traits@D@std@@V?$allocator@D@2@@std@@V?$weak_ptr@VRawImageData@@@2@U?$less@V?$basic_string@DU?$char_traits@D@std@@V?$allocator@D@2@@std@@@2@V?$allocator@U?$pair@$$CBV?$basic_string@DU?$char_traits@D@std@@V?$allocator@D@2@@std@@V?$weak_ptr@VRawImageData@@@2@@std@@@2@$0A@@std@@@std@@IAEPAV?$_Tree_val@U?$_Tree_simple_types@U?$pair@$$CBV?$basic_string@DU?$char_traits@D@std@@V?$allocator@D@2@@std@@V?$weak_ptr@VRawImageData@@@2@@std@@@std@@@2@XZ 0041d240 f i DraggingDemo.obj
 0001:0001c260       ?_Get_scary@?$_Tree@V?$_Tmap_traits@V?$basic_string@DU?$char_traits@D@std@@V?$allocator@D@2@@std@@V?$weak_ptr@VRawImageData@@@2@U?$less@V?$basic_string@DU?$char_traits@D@std@@V?$allocator@D@2@@std@@@2@V?$allocator@U?$pair@$$CBV?$basic_string@DU?$char_traits@D@std@@V?$allocator@D@2@@std@@V?$weak_ptr@VRawImageData@@@2@@std@@@2@$0A@@std@@@std@@IBEPBV?$_Tree_val@U?$_Tree_simple_types@U?$pair@$$CBV?$basic_string@DU?$char_traits@D@std@@V?$allocator@D@2@@std@@V?$weak_ptr@VRawImageData@@@2@@std@@@std@@@2@XZ 0041d260 f i DraggingDemo.obj
 0001:0001c280       ?_Getal@?$_Tree@V?$_Tmap_traits@V?$basic_string@DU?$char_traits@D@std@@V?$allocator@D@2@@std@@V?$shared_ptr@VRawImageData@@@2@U?$less@V?$basic_string@DU?$char_traits@D@std@@V?$allocator@D@2@@std@@@2@V?$allocator@U?$pair@$$CBV?$basic_string@DU?$char_traits@D@std@@V?$allocator@D@2@@std@@V?$shared_ptr@VRawImageData@@@2@@std@@@2@$0A@@std@@@std@@IAEAAV?$allocator@U?$_Tree_node@U?$pair@$$CBV?$basic_string@DU?$char_traits@D@std@@V?$allocator@D@2@@std@@V?$shared_ptr@VRawImageData@@@2@@std@@PAX@std@@@2@XZ 0041d280 f i DraggingDemo.obj
 0001:0001c2a0       ?_Getal@?$_Tree@V?$_Tmap_traits@V?$basic_string@DU?$char_traits@D@std@@V?$allocator@D@2@@std@@V?$shared_ptr@VRawImageData@@@2@U?$less@V?$basic_string@DU?$char_traits@D@std@@V?$allocator@D@2@@std@@@2@V?$allocator@U?$pair@$$CBV?$basic_string@DU?$char_traits@D@std@@V?$allocator@D@2@@std@@V?$shared_ptr@VRawImageData@@@2@@std@@@2@$0A@@std@@@std@@IBEABV?$allocator@U?$_Tree_node@U?$pair@$$CBV?$basic_string@DU?$char_traits@D@std@@V?$allocator@D@2@@std@@V?$shared_ptr@VRawImageData@@@2@@std@@PAX@std@@@2@XZ 0041d2a0 f i DraggingDemo.obj
 0001:0001c2c0       ?_Getal@?$_Tree@V?$_Tmap_traits@V?$basic_string@DU?$char_traits@D@std@@V?$allocator@D@2@@std@@V?$weak_ptr@VRawImageData@@@2@U?$less@V?$basic_string@DU?$char_traits@D@std@@V?$allocator@D@2@@std@@@2@V?$allocator@U?$pair@$$CBV?$basic_string@DU?$char_traits@D@std@@V?$allocator@D@2@@std@@V?$weak_ptr@VRawImageData@@@2@@std@@@2@$0A@@std@@@std@@IAEAAV?$allocator@U?$_Tree_node@U?$pair@$$CBV?$basic_string@DU?$char_traits@D@std@@V?$allocator@D@2@@std@@V?$weak_ptr@VRawImageData@@@2@@std@@PAX@std@@@2@XZ 0041d2c0 f i DraggingDemo.obj
 0001:0001c2e0       ?_Getal@?$_Tree@V?$_Tmap_traits@V?$basic_string@DU?$char_traits@D@std@@V?$allocator@D@2@@std@@V?$weak_ptr@VRawImageData@@@2@U?$less@V?$basic_string@DU?$char_traits@D@std@@V?$allocator@D@2@@std@@@2@V?$allocator@U?$pair@$$CBV?$basic_string@DU?$char_traits@D@std@@V?$allocator@D@2@@std@@V?$weak_ptr@VRawImageData@@@2@@std@@@2@$0A@@std@@@std@@IBEABV?$allocator@U?$_Tree_node@U?$pair@$$CBV?$basic_string@DU?$char_traits@D@std@@V?$allocator@D@2@@std@@V?$weak_ptr@VRawImageData@@@2@@std@@PAX@std@@@2@XZ 0041d2e0 f i DraggingDemo.obj
 0001:0001c300       ?_Getal@?$basic_string@DU?$char_traits@D@std@@V?$allocator@D@2@@std@@AAEAAV?$allocator@D@2@XZ 0041d300 f i DraggingDemo.obj
 0001:0001c320       ?_Getal@?$basic_string@DU?$char_traits@D@std@@V?$allocator@D@2@@std@@ABEABV?$allocator@D@2@XZ 0041d320 f i DraggingDemo.obj
 0001:0001c340       ?_Getal@?$vector@PAVDisplayableObject@@V?$allocator@PAVDisplayableObject@@@std@@@std@@AAEAAV?$allocator@PAVDisplayableObject@@@2@XZ 0041d340 f i DraggingDemo.obj
 0001:0001c360       ?_Getal@?$vector@PAVDisplayableObject@@V?$allocator@PAVDisplayableObject@@@std@@@std@@ABEABV?$allocator@PAVDisplayableObject@@@2@XZ 0041d360 f i DraggingDemo.obj
 0001:0001c380       ?_Getcomp@?$_Tree@V?$_Tmap_traits@V?$basic_string@DU?$char_traits@D@std@@V?$allocator@D@2@@std@@V?$shared_ptr@VRawImageData@@@2@U?$less@V?$basic_string@DU?$char_traits@D@std@@V?$allocator@D@2@@std@@@2@V?$allocator@U?$pair@$$CBV?$basic_string@DU?$char_traits@D@std@@V?$allocator@D@2@@std@@V?$shared_ptr@VRawImageData@@@2@@std@@@2@$0A@@std@@@std@@IBEABU?$less@V?$basic_string@DU?$char_traits@D@std@@V?$allocator@D@2@@std@@@2@XZ 0041d380 f i DraggingDemo.obj
 0001:0001c3a0       ?_Getcomp@?$_Tree@V?$_Tmap_traits@V?$basic_string@DU?$char_traits@D@std@@V?$allocator@D@2@@std@@V?$weak_ptr@VRawImageData@@@2@U?$less@V?$basic_string@DU?$char_traits@D@std@@V?$allocator@D@2@@std@@@2@V?$allocator@U?$pair@$$CBV?$basic_string@DU?$char_traits@D@std@@V?$allocator@D@2@@std@@V?$weak_ptr@VRawImageData@@@2@@std@@@2@$0A@@std@@@std@@IBEABU?$less@V?$basic_string@DU?$char_traits@D@std@@V?$allocator@D@2@@std@@@2@XZ 0041d3a0 f i DraggingDemo.obj
 0001:0001c3c0       ?_Incref_nz@_Ref_count_base@std@@QAE_NXZ 0041d3c0 f i DraggingDemo.obj
 0001:0001c430       ?_Incwref@_Ref_count_base@std@@QAEXXZ 0041d430 f i DraggingDemo.obj
 0001:0001c450       ?_Insert_node@?$_Tree_val@U?$_Tree_simple_types@U?$pair@$$CBV?$basic_string@DU?$char_traits@D@std@@V?$allocator@D@2@@std@@V?$shared_ptr@VRawImageData@@@2@@std@@@std@@@std@@QAEPAU?$_Tree_node@U?$pair@$$CBV?$basic_string@DU?$char_traits@D@std@@V?$allocator@D@2@@std@@V?$shared_ptr@VRawImageData@@@2@@std@@PAX@2@U?$_Tree_id@PAU?$_Tree_node@U?$pair@$$CBV?$basic_string@DU?$char_traits@D@std@@V?$allocator@D@2@@std@@V?$shared_ptr@VRawImageData@@@2@@std@@PAX@std@@@2@QAU32@@Z 0041d450 f i DraggingDemo.obj
 0001:0001c6e0       ?_Insert_node@?$_Tree_val@U?$_Tree_simple_types@U?$pair@$$CBV?$basic_string@DU?$char_traits@D@std@@V?$allocator@D@2@@std@@V?$weak_ptr@VRawImageData@@@2@@std@@@std@@@std@@QAEPAU?$_Tree_node@U?$pair@$$CBV?$basic_string@DU?$char_traits@D@std@@V?$allocator@D@2@@std@@V?$weak_ptr@VRawImageData@@@2@@std@@PAX@2@U?$_Tree_id@PAU?$_Tree_node@U?$pair@$$CBV?$basic_string@DU?$char_traits@D@std@@V?$allocator@D@2@@std@@V?$weak_ptr@VRawImageData@@@2@@std@@PAX@std@@@2@QAU32@@Z 0041d6e0 f i DraggingDemo.obj
 0001:0001c970       ?_Large_string_engaged@?$_String_val@U?$_Simple_types@D@std@@@std@@QBE_NXZ 0041d970 f i DraggingDemo.obj
 0001:0001c9b0       ?_Lrotate@?$_Tree_val@U?$_Tree_simple_types@U?$pair@$$CBV?$basic_string@DU?$char_traits@D@std@@V?$allocator@D@2@@std@@V?$shared_ptr@VRawImageData@@@2@@std@@@std@@@std@@QAEXPAU?$_Tree_node@U?$pair@$$CBV?$basic_string@DU?$char_traits@D@std@@V?$allocator@D@2@@std@@V?$shared_ptr@VRawImageData@@@2@@std@@PAX@2@@Z 0041d9b0 f i DraggingDemo.obj
 0001:0001ca70       ?_Lrotate@?$_Tree_val@U?$_Tree_simple_types@U?$pair@$$CBV?$basic_string@DU?$char_traits@D@std@@V?$allocator@D@2@@std@@V?$weak_ptr@VRawImageData@@@2@@std@@@std@@@std@@QAEXPAU?$_Tree_node@U?$pair@$$CBV?$basic_string@DU?$char_traits@D@std@@V?$allocator@D@2@@std@@V?$weak_ptr@VRawImageData@@@2@@std@@PAX@2@@Z 0041da70 f i DraggingDemo.obj
 0001:0001cb30       ?_Max@?$_Tree_val@U?$_Tree_simple_types@U?$pair@$$CBV?$basic_string@DU?$char_traits@D@std@@V?$allocator@D@2@@std@@V?$weak_ptr@VRawImageData@@@2@@std@@@std@@@std@@SAPAU?$_Tree_node@U?$pair@$$CBV?$basic_string@DU?$char_traits@D@std@@V?$allocator@D@2@@std@@V?$weak_ptr@VRawImageData@@@2@@std@@PAX@2@PAU32@@Z 0041db30 f i DraggingDemo.obj
 0001:0001cb60       ?_Memcpy_val_from@?$basic_string@DU?$char_traits@D@std@@V?$allocator@D@2@@std@@AAEXABV12@@Z 0041db60 f i DraggingDemo.obj
 0001:0001cbc0       ?_Min@?$_Tree_val@U?$_Tree_simple_types@U?$pair@$$CBV?$basic_string@DU?$char_traits@D@std@@V?$allocator@D@2@@std@@V?$weak_ptr@VRawImageData@@@2@@std@@@std@@@std@@SAPAU?$_Tree_node@U?$pair@$$CBV?$basic_string@DU?$char_traits@D@std@@V?$allocator@D@2@@std@@V?$weak_ptr@VRawImageData@@@2@@std@@PAX@2@PAU32@@Z 0041dbc0 f i DraggingDemo.obj
 0001:0001cbf0       ?_Myptr@?$_String_val@U?$_Simple_types@D@std@@@std@@QAEPADXZ 0041dbf0 f i DraggingDemo.obj
 0001:0001cc40       ?_Myptr@?$_String_val@U?$_Simple_types@D@std@@@std@@QBEPBDXZ 0041dc40 f i DraggingDemo.obj
 0001:0001cc90       ?_Orphan_ptr@?$_Tree_val@U?$_Tree_simple_types@U?$pair@$$CBV?$basic_string@DU?$char_traits@D@std@@V?$allocator@D@2@@std@@V?$weak_ptr@VRawImageData@@@2@@std@@@std@@@std@@QAEXQAU?$_Tree_node@U?$pair@$$CBV?$basic_string@DU?$char_traits@D@std@@V?$allocator@D@2@@std@@V?$weak_ptr@VRawImageData@@@2@@std@@PAX@2@@Z 0041dc90 f i DraggingDemo.obj
 0001:0001cd40       ?_Orphan_range@?$vector@PAVDisplayableObject@@V?$allocator@PAVDisplayableObject@@@std@@@std@@ABEXPAPAVDisplayableObject@@0@Z 0041dd40 f i DraggingDemo.obj
 0001:0001cd70       ?_Orphan_range_locked@?$vector@PAVDisplayableObject@@V?$allocator@PAVDisplayableObject@@@std@@@std@@ABEXPAPAVDisplayableObject@@0@Z 0041dd70 f i DraggingDemo.obj
 0001:0001ce00       ?_Orphan_range_unlocked@?$vector@PAVDisplayableObject@@V?$allocator@PAVDisplayableObject@@@std@@@std@@ABEXPAPAVDisplayableObject@@0@Z 0041de00 f i DraggingDemo.obj
 0001:0001ce90       ?_Release@?$_Alloc_construct_ptr@V?$allocator@U?$_Tree_node@U?$pair@$$CBV?$basic_string@DU?$char_traits@D@std@@V?$allocator@D@2@@std@@V?$shared_ptr@VRawImageData@@@2@@std@@PAX@std@@@std@@@std@@QAEPAU?$_Tree_node@U?$pair@$$CBV?$basic_string@DU?$char_traits@D@std@@V?$allocator@D@2@@std@@V?$shared_ptr@VRawImageData@@@2@@std@@PAX@2@XZ 0041de90 f i DraggingDemo.obj
 0001:0001cec0       ?_Release@?$_Alloc_construct_ptr@V?$allocator@U?$_Tree_node@U?$pair@$$CBV?$basic_string@DU?$char_traits@D@std@@V?$allocator@D@2@@std@@V?$weak_ptr@VRawImageData@@@2@@std@@PAX@std@@@std@@@std@@QAEPAU?$_Tree_node@U?$pair@$$CBV?$basic_string@DU?$char_traits@D@std@@V?$allocator@D@2@@std@@V?$weak_ptr@VRawImageData@@@2@@std@@PAX@2@XZ 0041dec0 f i DraggingDemo.obj
 0001:0001cef0       ?_Release@?$_Uninitialized_backout_al@V?$allocator@PAVDisplayableObject@@@std@@@std@@QAEPAPAVDisplayableObject@@XZ 0041def0 f i DraggingDemo.obj
 0001:0001cf20       ?_Rrotate@?$_Tree_val@U?$_Tree_simple_types@U?$pair@$$CBV?$basic_string@DU?$char_traits@D@std@@V?$allocator@D@2@@std@@V?$shared_ptr@VRawImageData@@@2@@std@@@std@@@std@@QAEXPAU?$_Tree_node@U?$pair@$$CBV?$basic_string@DU?$char_traits@D@std@@V?$allocator@D@2@@std@@V?$shared_ptr@VRawImageData@@@2@@std@@PAX@2@@Z 0041df20 f i DraggingDemo.obj
 0001:0001cff0       ?_Rrotate@?$_Tree_val@U?$_Tree_simple_types@U?$pair@$$CBV?$basic_string@DU?$char_traits@D@std@@V?$allocator@D@2@@std@@V?$weak_ptr@VRawImageData@@@2@@std@@@std@@@std@@QAEXPAU?$_Tree_node@U?$pair@$$CBV?$basic_string@DU?$char_traits@D@std@@V?$allocator@D@2@@std@@V?$weak_ptr@VRawImageData@@@2@@std@@PAX@2@@Z 0041dff0 f i DraggingDemo.obj
 0001:0001d0c0       ?_Swap_proxy_and_iterators@?$basic_string@DU?$char_traits@D@std@@V?$allocator@D@2@@std@@AAEXAAV12@@Z 0041e0c0 f i DraggingDemo.obj
 0001:0001d0e0       ?_Take_contents@?$basic_string@DU?$char_traits@D@std@@V?$allocator@D@2@@std@@AAEXAAV12@@Z 0041e0e0 f i DraggingDemo.obj
 0001:0001d230       ?_Throw_tree_length_error@std@@YAXXZ 0041e230 f i DraggingDemo.obj
 0001:0001d250       ?_Tidy_deallocate@?$basic_string@DU?$char_traits@D@std@@V?$allocator@D@2@@std@@AAEXXZ 0041e250 f i DraggingDemo.obj
 0001:0001d340       ?_Tidy_init@?$basic_string@DU?$char_traits@D@std@@V?$allocator@D@2@@std@@AAEXXZ 0041e340 f i DraggingDemo.obj
 0001:0001d3a0       ?_Ufill@?$vector@PAVDisplayableObject@@V?$allocator@PAVDisplayableObject@@@std@@@std@@AAEPAPAVDisplayableObject@@PAPAV3@IU_Value_init_tag@2@@Z 0041e3a0 f i DraggingDemo.obj
 0001:0001d3d0       ?_Umove_if_noexcept1@?$vector@PAVDisplayableObject@@V?$allocator@PAVDisplayableObject@@@std@@@std@@AAEXPAPAVDisplayableObject@@00U?$integral_constant@_N$00@2@@Z 0041e3d0 f i DraggingDemo.obj
 0001:0001d410       ?_Umove_if_noexcept@?$vector@PAVDisplayableObject@@V?$allocator@PAVDisplayableObject@@@std@@@std@@AAEXPAPAVDisplayableObject@@00@Z 0041e410 f i DraggingDemo.obj
 0001:0001d450       ?_Unwrapped@?$_Tree_iterator@V?$_Tree_val@U?$_Tree_simple_types@U?$pair@$$CBV?$basic_string@DU?$char_traits@D@std@@V?$allocator@D@2@@std@@V?$weak_ptr@VRawImageData@@@2@@std@@@std@@@std@@@std@@QBE?AV?$_Tree_unchecked_iterator@V?$_Tree_val@U?$_Tree_simple_types@U?$pair@$$CBV?$basic_string@DU?$char_traits@D@std@@V?$allocator@D@2@@std@@V?$weak_ptr@VRawImageData@@@2@@std@@@std@@@std@@@2@XZ 0041e450 f i DraggingDemo.obj
 0001:0001d490       ?_Use_count@_Ref_count_base@std@@QBEJXZ 0041e490 f i DraggingDemo.obj
 0001:0001d4b0       ?_Xlen_string@std@@YAXXZ   0041e4b0 f i DraggingDemo.obj
 0001:0001d4d0       ?_Xlength@?$vector@PAVDisplayableObject@@V?$allocator@PAVDisplayableObject@@@std@@@std@@CAXXZ 0041e4d0 f i DraggingDemo.obj
 0001:0001d4f0       ?allocate@?$allocator@D@std@@QAEPADI@Z 0041e4f0 f i DraggingDemo.obj
 0001:0001d520       ?allocate@?$allocator@PAVDisplayableObject@@@std@@QAEPAPAVDisplayableObject@@I@Z 0041e520 f i DraggingDemo.obj
 0001:0001d550       ?allocate@?$allocator@U?$_Tree_node@U?$pair@$$CBV?$basic_string@DU?$char_traits@D@std@@V?$allocator@D@2@@std@@V?$shared_ptr@VRawImageData@@@2@@std@@PAX@std@@@std@@QAEPAU?$_Tree_node@U?$pair@$$CBV?$basic_string@DU?$char_traits@D@std@@V?$allocator@D@2@@std@@V?$shared_ptr@VRawImageData@@@2@@std@@PAX@2@I@Z 0041e550 f i DraggingDemo.obj
 0001:0001d580       ?allocate@?$allocator@U?$_Tree_node@U?$pair@$$CBV?$basic_string@DU?$char_traits@D@std@@V?$allocator@D@2@@std@@V?$weak_ptr@VRawImageData@@@2@@std@@PAX@std@@@std@@QAEPAU?$_Tree_node@U?$pair@$$CBV?$basic_string@DU?$char_traits@D@std@@V?$allocator@D@2@@std@@V?$weak_ptr@VRawImageData@@@2@@std@@PAX@2@I@Z 0041e580 f i DraggingDemo.obj
 0001:0001d5b0       ?assign@?$_Narrow_char_traits@DH@std@@SAXAADABD@Z 0041e5b0 f i DraggingDemo.obj
 0001:0001d5d0       ?assign@?$basic_string@DU?$char_traits@D@std@@V?$allocator@D@2@@std@@QAEAAV12@QBD@Z 0041e5d0 f i DraggingDemo.obj
 0001:0001d610       ?assign@?$basic_string@DU?$char_traits@D@std@@V?$allocator@D@2@@std@@QAEAAV12@QBDI@Z 0041e610 f i DraggingDemo.obj
 0001:0001d6b0       ?c_str@?$basic_string@DU?$char_traits@D@std@@V?$allocator@D@2@@std@@QBEPBDXZ 0041e6b0 f i DraggingDemo.obj
 0001:0001d6d0       ?capacity@?$vector@PAVDisplayableObject@@V?$allocator@PAVDisplayableObject@@@std@@@std@@QBEIXZ 0041e6d0 f i DraggingDemo.obj
 0001:0001d700       ?checkDoDrag@DragableBaseClassObject@@UAEXHH@Z 0041e700 f i DraggingDemo.obj
 0001:0001d780       ?checkFinishDrag@DragableBaseClassObject@@UAEXHH@Z 0041e780 f i DraggingDemo.obj
 0001:0001d7c0       ?checkStartDrag@DragableBaseClassObject@@UAEXHH@Z 0041e7c0 f i DraggingDemo.obj
 0001:0001d840       ?checkWritable@DrawingSurface@@QAEXXZ 0041e840 f i DraggingDemo.obj
 0001:0001d890       ?compare@?$_Narrow_char_traits@DH@std@@SAHQBD0I@Z 0041e890 f i DraggingDemo.obj
 0001:0001d8b0       ?compare@?$basic_string@DU?$char_traits@D@std@@V?$allocator@D@2@@std@@QBEHABV12@@Z 0041e8b0 f i DraggingDemo.obj
 0001:0001d900       ?copy@?$_Char_traits@DH@std@@SAPADQADQBDI@Z 0041e900 f i DraggingDemo.obj
 0001:0001d930       ?createObjectArray@DisplayableObjectContainer@@QAEXH@Z 0041e930 f i DraggingDemo.obj
 0001:0001d980       ?data@?$basic_string@DU?$char_traits@D@std@@V?$allocator@D@2@@std@@QBEPBDXZ 0041e980 f i DraggingDemo.obj
 0001:0001d9a0       ?deallocate@?$_Default_allocator_traits@V?$allocator@U?$_Tree_node@U?$pair@$$CBV?$basic_string@DU?$char_traits@D@std@@V?$allocator@D@2@@std@@V?$weak_ptr@VRawImageData@@@2@@std@@PAX@std@@@std@@@std@@SAXAAV?$allocator@U?$_Tree_node@U?$pair@$$CBV?$basic_string@DU?$char_traits@D@std@@V?$allocator@D@2@@std@@V?$weak_ptr@VRawImageData@@@2@@std@@PAX@std@@@2@QAU?$_Tree_node@U?$pair@$$CBV?$basic_string@DU?$char_traits@D@std@@V?$allocator@D@2@@std@@V?$weak_ptr@VRawImageData@@@2@@std@@PAX@2@I@Z 0041e9a0 f i DraggingDemo.obj
 0001:0001d9c0       ?deallocate@?$allocator@D@std@@QAEXQADI@Z 0041e9c0 f i DraggingDemo.obj
 0001:0001d9f0       ?deallocate@?$allocator@PAVDisplayableObject@@@std@@QAEXQAPAVDisplayableObject@@I@Z 0041e9f0 f i DraggingDemo.obj
 0001:0001da20       ?deallocate@?$allocator@U?$_Tree_node@U?$pair@$$CBV?$basic_string@DU?$char_traits@D@std@@V?$allocator@D@2@@std@@V?$shared_ptr@VRawImageData@@@2@@std@@PAX@std@@@std@@QAEXQAU?$_Tree_node@U?$pair@$$CBV?$basic_string@DU?$char_traits@D@std@@V?$allocator@D@2@@std@@V?$shared_ptr@VRawImageData@@@2@@std@@PAX@2@I@Z 0041ea20 f i DraggingDemo.obj
 0001:0001da50       ?deallocate@?$allocator@U?$_Tree_node@U?$pair@$$CBV?$basic_string@DU?$char_traits@D@std@@V?$allocator@D@2@@std@@V?$weak_ptr@VRawImageData@@@2@@std@@PAX@std@@@std@@QAEXQAU?$_Tree_node@U?$pair@$$CBV?$basic_string@DU?$char_traits@D@std@@V?$allocator@D@2@@std@@V?$weak_ptr@VRawImageData@@@2@@std@@PAX@2@I@Z 0041ea50 f i DraggingDemo.obj
 0001:0001da80       ?deleteOnRemoval@DisplayableObject@@UBE_NXZ 0041ea80 f i DraggingDemo.obj
 0001:0001daa0       ?doDragRedraw@DragableBaseClassObject@@UAEXXZ 0041eaa0 f i DraggingDemo.obj
 0001:0001dac0       ?drawableObjectsChanged@DisplayableObjectContainer@@QAEXXZ 0041eac0 f i DraggingDemo.obj
 0001:0001dae0       ?end@?$_Tree@V?$_Tmap_traits@V?$basic_string@DU?$char_traits@D@std@@V?$allocator@D@2@@std@@V?$weak_ptr@VRawImageData@@@2@U?$less@V?$basic_string@DU?$char_traits@D@std@@V?$allocator@D@2@@std@@@2@V?$allocator@U?$pair@$$CBV?$basic_string@DU?$char_traits@D@std@@V?$allocator@D@2@@std@@V?$weak_ptr@VRawImageData@@@2@@std@@@2@$0A@@std@@@std@@QAE?AV?$_Tree_iterator@V?$_Tree_val@U?$_Tree_simple_types@U?$pair@$$CBV?$basic_string@DU?$char_traits@D@std@@V?$allocator@D@2@@std@@V?$weak_ptr@VRawImageData@@@2@@std@@@std@@@std@@@2@XZ 0041eae0 f i DraggingDemo.obj
 0001:0001db20       ?eof@?$_Narrow_char_traits@DH@std@@SAHXZ 0041eb20 f i DraggingDemo.obj
 0001:0001db30       ?eq_int_type@?$_Narrow_char_traits@DH@std@@SA_NABH0@Z 0041eb30 f i DraggingDemo.obj
 0001:0001db60       ?expired@?$weak_ptr@VRawImageData@@@std@@QBE_NXZ 0041eb60 f i DraggingDemo.obj
 0001:0001dba0       ?find@?$_Tree@V?$_Tmap_traits@V?$basic_string@DU?$char_traits@D@std@@V?$allocator@D@2@@std@@V?$weak_ptr@VRawImageData@@@2@U?$less@V?$basic_string@DU?$char_traits@D@std@@V?$allocator@D@2@@std@@@2@V?$allocator@U?$pair@$$CBV?$basic_string@DU?$char_traits@D@std@@V?$allocator@D@2@@std@@V?$weak_ptr@VRawImageData@@@2@@std@@@2@$0A@@std@@@std@@QAE?AV?$_Tree_iterator@V?$_Tree_val@U?$_Tree_simple_types@U?$pair@$$CBV?$basic_string@DU?$char_traits@D@std@@V?$allocator@D@2@@std@@V?$weak_ptr@VRawImageData@@@2@@std@@@std@@@std@@@2@ABV?$basic_string@DU?$char_traits@D@std@@V?$allocator@D@2@@2@@Z 0041eba0 f i DraggingDemo.obj
 0001:0001dbf0       ?freeSurface@RawImageData@@QAEXXZ 0041ebf0 f i DraggingDemo.obj
 0001:0001dc70       ?get@?$_Ptr_base@VRawImageData@@@std@@IBEPAVRawImageData@@XZ 0041ec70 f i DraggingDemo.obj
 0001:0001dc90       ?get@ImageManager@@SAPAV1@XZ 0041ec90 f i DraggingDemo.obj
 0001:0001dd40       ?getHeight@RawImageData@@QBEHXZ 0041ed40 f i DraggingDemo.obj
 0001:0001dd60       ?getHeight@SimpleImage@@QBEHXZ 0041ed60 f i DraggingDemo.obj
 0001:0001dd90       ?getImagePtrbyURL@ImageManager@@QAE?AV?$shared_ptr@VRawImageData@@@std@@V?$basic_string@DU?$char_traits@D@std@@V?$allocator@D@2@@3@_N1@Z 0041ed90 f i DraggingDemo.obj
 0001:0001e1d0       ?getImagebyURL@ImageManager@@QAE?AVSimpleImage@@V?$basic_string@DU?$char_traits@D@std@@V?$allocator@D@2@@std@@_N1@Z 0041f1d0 f i DraggingDemo.obj
 0001:0001e2a0       ?getIntsPerWindowRow@DrawingSurface@@QBEIXZ 0041f2a0 f i DraggingDemo.obj
 0001:0001e2c0       ?getSurfaceHeight@DrawingSurface@@QBEHXZ 0041f2c0 f i DraggingDemo.obj
 0001:0001e2e0       ?getSurfaceWidth@DrawingSurface@@QBEHXZ 0041f2e0 f i DraggingDemo.obj
 0001:0001e300       ?getWidth@RawImageData@@QBEHXZ 0041f300 f i DraggingDemo.obj
 0001:0001e320       ?getWidth@SimpleImage@@QBEHXZ 0041f320 f i DraggingDemo.obj
 0001:0001e350       ?getWindowHeight@BaseEngine@@QBEHXZ 0041f350 f i DraggingDemo.obj
 0001:0001e370       ?getWindowWidth@BaseEngine@@QBEHXZ 0041f370 f i DraggingDemo.obj
 0001:0001e390       ?getXForRotationAndCrop@RawImageData@@SAHHHHHHH@Z 0041f390 f i DraggingDemo.obj
 0001:0001e400       ?getYForRotationAndCrop@RawImageData@@SAHHHHHHH@Z 0041f400 f i DraggingDemo.obj
 0001:0001e470       ?length@?$_Narrow_char_traits@DH@std@@SAIQBD@Z 0041f470 f i DraggingDemo.obj
 0001:0001e490       ?loadAsNew@ImageManager@@QAE?AV?$shared_ptr@VRawImageData@@@std@@V?$basic_string@DU?$char_traits@D@std@@V?$allocator@D@2@@3@@Z 0041f490 f i DraggingDemo.obj
 0001:0001e660       ?loadImage@RawImageData@@QAE_NV?$basic_string@DU?$char_traits@D@std@@V?$allocator@D@2@@std@@HHHHH_N@Z 0041f660 f i DraggingDemo.obj
 0001:0001e970       ?lock@?$weak_ptr@VRawImageData@@@std@@QBE?AV?$shared_ptr@VRawImageData@@@2@XZ 0041f970 f i DraggingDemo.obj
 0001:0001e9c0       ?max_size@?$_Default_allocator_traits@V?$allocator@D@std@@@std@@SAIABV?$allocator@D@2@@Z 0041f9c0 f i DraggingDemo.obj
 0001:0001e9d0       ?max_size@?$_Default_allocator_traits@V?$allocator@PAVDisplayableObject@@@std@@@std@@SAIABV?$allocator@PAVDisplayableObject@@@2@@Z 0041f9d0 f i DraggingDemo.obj
 0001:0001e9e0       ?max_size@?$_Default_allocator_traits@V?$allocator@U?$_Tree_node@U?$pair@$$CBV?$basic_string@DU?$char_traits@D@std@@V?$allocator@D@2@@std@@V?$shared_ptr@VRawImageData@@@2@@std@@PAX@std@@@std@@@std@@SAIABV?$allocator@U?$_Tree_node@U?$pair@$$CBV?$basic_string@DU?$char_traits@D@std@@V?$allocator@D@2@@std@@V?$shared_ptr@VRawImageData@@@2@@std@@PAX@std@@@2@@Z 0041f9e0 f i DraggingDemo.obj
 0001:0001e9f0       ?max_size@?$_Default_allocator_traits@V?$allocator@U?$_Tree_node@U?$pair@$$CBV?$basic_string@DU?$char_traits@D@std@@V?$allocator@D@2@@std@@V?$weak_ptr@VRawImageData@@@2@@std@@PAX@std@@@std@@@std@@SAIABV?$allocator@U?$_Tree_node@U?$pair@$$CBV?$basic_string@DU?$char_traits@D@std@@V?$allocator@D@2@@std@@V?$weak_ptr@VRawImageData@@@2@@std@@PAX@std@@@2@@Z 0041f9f0 f i DraggingDemo.obj
 0001:0001ea00       ?max_size@?$_Tree@V?$_Tmap_traits@V?$basic_string@DU?$char_traits@D@std@@V?$allocator@D@2@@std@@V?$shared_ptr@VRawImageData@@@2@U?$less@V?$basic_string@DU?$char_traits@D@std@@V?$allocator@D@2@@std@@@2@V?$allocator@U?$pair@$$CBV?$basic_string@DU?$char_traits@D@std@@V?$allocator@D@2@@std@@V?$shared_ptr@VRawImageData@@@2@@std@@@2@$0A@@std@@@std@@QBEIXZ 0041fa00 f i DraggingDemo.obj
 0001:0001ea50       ?max_size@?$_Tree@V?$_Tmap_traits@V?$basic_string@DU?$char_traits@D@std@@V?$allocator@D@2@@std@@V?$weak_ptr@VRawImageData@@@2@U?$less@V?$basic_string@DU?$char_traits@D@std@@V?$allocator@D@2@@std@@@2@V?$allocator@U?$pair@$$CBV?$basic_string@DU?$char_traits@D@std@@V?$allocator@D@2@@std@@V?$weak_ptr@VRawImageData@@@2@@std@@@2@$0A@@std@@@std@@QBEIXZ 0041fa50 f i DraggingDemo.obj
 0001:0001eaa0       ?max_size@?$basic_string@DU?$char_traits@D@std@@V?$allocator@D@2@@std@@QBEIXZ 0041faa0 f i DraggingDemo.obj
 0001:0001eb20       ?max_size@?$vector@PAVDisplayableObject@@V?$allocator@PAVDisplayableObject@@@std@@@std@@QBEIXZ 0041fb20 f i DraggingDemo.obj
 0001:0001eb70       ?move@?$_Char_traits@DH@std@@SAPADQADQBDI@Z 0041fb70 f i DraggingDemo.obj
 0001:0001eba0       ?notifyObjectsAboutMouse@BaseEngine@@QAEX_N@Z 0041fba0 f i DraggingDemo.obj
 0001:0001ebc0       ?pointer_to@?$pointer_traits@PAU?$pair@$$CBV?$basic_string@DU?$char_traits@D@std@@V?$allocator@D@2@@std@@V?$weak_ptr@VRawImageData@@@2@@std@@@std@@SAPAU?$pair@$$CBV?$basic_string@DU?$char_traits@D@std@@V?$allocator@D@2@@std@@V?$weak_ptr@VRawImageData@@@2@@2@AAU32@@Z 0041fbc0 f i DraggingDemo.obj
 0001:0001ebe0       ?rawSetPixel@DrawingSurface@@QAEXHHI@Z 0041fbe0 f i DraggingDemo.obj
 0001:0001ec90       ?resize@?$vector@PAVDisplayableObject@@V?$allocator@PAVDisplayableObject@@@std@@@std@@QAEXI@Z 0041fc90 f i DraggingDemo.obj
 0001:0001ecc0       ?select_on_container_copy_construction@?$_Default_allocator_traits@V?$allocator@D@std@@@std@@SA?AV?$allocator@D@2@ABV32@@Z 0041fcc0 f i DraggingDemo.obj
 0001:0001ecd0       ?setBackgroundPixel@BaseEngine@@QAEXHHI@Z 0041fcd0 f i DraggingDemo.obj
 0001:0001ed00       ?setExitWithCode@BaseEngine@@QAEXH@Z 0041fd00 f i DraggingDemo.obj
 0001:0001ed20       ?setPixel@DrawingSurface@@QAEXHHI@Z 0041fd20 f i DraggingDemo.obj
 0001:0001ed90       ?setPosition@DisplayableObject@@UAEXHH@Z 0041fd90 f i DraggingDemo.obj
 0001:0001edd0       ?setVisible@DisplayableObject@@QAEX_N@Z 0041fdd0 f i DraggingDemo.obj
 0001:0001edf0       ?size@?$basic_string@DU?$char_traits@D@std@@V?$allocator@D@2@@std@@QBEIXZ 0041fdf0 f i DraggingDemo.obj
 0001:0001ee10       ?storeObjectInArray@DisplayableObjectContainer@@QAEXHPAVDisplayableObject@@@Z 0041fe10 f i DraggingDemo.obj
 0001:0001ee50       ?use_count@?$_Ptr_base@VRawImageData@@@std@@QBEJXZ 0041fe50 f i DraggingDemo.obj
 0001:0001ee90       ?virtDraw@DragableImageObject@@UAEXXZ 0041fe90 f i DraggingDemo.obj
 0001:0001ef10       ?virtDraw@ImageObject@@UAEXXZ 0041ff10 f i DraggingDemo.obj
 0001:0001ef90       ?virtIsPositionWithinObject@DisplayableObject@@UAE_NHH@Z 0041ff90 f i DraggingDemo.obj
 0001:0001f020       ?virtKeyDown@DisplayableObject@@UAEXH@Z 00420020 f i DraggingDemo.obj
 0001:0001f030       ?virtKeyUp@DisplayableObject@@UAEXH@Z 00420030 f i DraggingDemo.obj
 0001:0001f040       ?virtMouseDown@DisplayableObject@@UAEXHHH@Z 00420040 f i DraggingDemo.obj
 0001:0001f050       ?virtMouseDown@DragableImageObject@@UAEXHHH@Z 00420050 f i DraggingDemo.obj
 0001:0001f080       ?virtMouseDown@DragableObject@@UAEXHHH@Z 00420080 f i DraggingDemo.obj
 0001:0001f0b0       ?virtMouseMoved@DisplayableObject@@UAEXHH@Z 004200b0 f i DraggingDemo.obj
 0001:0001f0c0       ?virtMouseMoved@DragableImageObject@@UAEXHH@Z 004200c0 f i DraggingDemo.obj
 0001:0001f0f0       ?virtMouseMoved@DragableObject@@UAEXHH@Z 004200f0 f i DraggingDemo.obj
 0001:0001f120       ?virtMouseUp@DisplayableObject@@UAEXHHH@Z 00420120 f i DraggingDemo.obj
 0001:0001f130       ?virtMouseUp@DragableImageObject@@UAEXHHH@Z 00420130 f i DraggingDemo.obj
 0001:0001f160       ?virtMouseUp@DragableObject@@UAEXHHH@Z 00420160 f i DraggingDemo.obj
 0001:0001f1a0       ?virtNotify@DisplayableObject@@UAEJHHH@Z 004201a0 f i DraggingDemo.obj
 0001:0001f1c0       ?virtSingleItemMouseDown@DisplayableObject@@UAE_NHHH@Z 004201c0 f i DraggingDemo.obj
 0001:0001f1e0       ___local_stdio_printf_options 004201e0 f i DraggingDemo.obj
 0001:0001f1f0       __vfprintf_l               004201f0 f i DraggingDemo.obj
 0001:0001f230       _printf                    00420230 f i DraggingDemo.obj
 0001:0001f280       ??0DrawingSurface@@QAE@PAVBaseEngine@@@Z 00420280 f   DrawingSurface.obj
 0001:0001f320       ?drawLine@DrawingSurface@@QAEXNNNNI@Z 00420320 f   DrawingSurface.obj
 0001:0001f500       ?drawThickLine@DrawingSurface@@QAEXNNNNIH@Z 00420500 f   DrawingSurface.obj
 0001:0001f9a0       ?drawVerticalSidedRegion@DrawingSurface@@QAEXNNNNNNI@Z 004209a0 f   DrawingSurface.obj
 0001:0001fd40       ?drawRectangle@DrawingSurface@@QAEXHHHHI@Z 00420d40 f   DrawingSurface.obj
 0001:0001fe50       ?drawOval@DrawingSurface@@QAEXHHHHI@Z 00420e50 f   DrawingSurface.obj
 0001:00020020       ?rawDrawOval@DrawingSurface@@QAEXHHHHI@Z 00421020 f   DrawingSurface.obj
 0001:00020180       ?drawHollowOval@DrawingSurface@@QAEXHHHHHHHHI@Z 00421180 f   DrawingSurface.obj
 0001:000204a0       ?drawPolygon@DrawingSurface@@QAEXHPAN0I@Z 004214a0 f   DrawingSurface.obj
 0001:00020c20       ?drawFastString@DrawingSurface@@QAEXHHPBDIPAVFont@@@Z 00421c20 f   DrawingSurface.obj
 0001:00020d10       ?drawScalableString@DrawingSurface@@QAEXHHPBDIPAVFont@@@Z 00421d10 f   DrawingSurface.obj
 0001:00020ee0       ?drawShortenedArrow@DrawingSurface@@QAEXHHHHHHIHH@Z 00421ee0 f   DrawingSurface.obj
 0001:00021460       ?drawShortenedLine@DrawingSurface@@QAEXHHHHHHIH@Z 00422460 f   DrawingSurface.obj
 0001:00021860       ?drawTriangle@DrawingSurface@@QAEXNNNNNNI@Z 00422860 f   DrawingSurface.obj
 0001:00021bb0       ?copyEntireSurface@DrawingSurface@@QAEXPAV1@@Z 00422bb0 f   DrawingSurface.obj
 0001:00021c00       ?copyRectangleFrom@DrawingSurface@@QAEXPAV1@HHHHHH@Z 00422c00 f   DrawingSurface.obj
 0001:00021e00       ?getAngle@DrawingSurface@@SANNNNN@Z 00422e00 f   DrawingSurface.obj
 0001:00021ea0       ?getVirtualRedrawMinX@DrawingSurface@@QAEHXZ 00422ea0 f   DrawingSurface.obj
 0001:00021ef0       ?getVirtualRedrawMinY@DrawingSurface@@QAEHXZ 00422ef0 f   DrawingSurface.obj
 0001:00021f40       ?getVirtualRedrawMaxX@DrawingSurface@@QAEHXZ 00422f40 f   DrawingSurface.obj
 0001:00021fa0       ?getVirtualRedrawMaxY@DrawingSurface@@QAEHXZ 00422fa0 f   DrawingSurface.obj
 0001:00022000       ?getRealRedrawMinX@DrawingSurface@@QAEHXZ 00423000 f   DrawingSurface.obj
 0001:00022050       ?getRealRedrawMinY@DrawingSurface@@QAEHXZ 00423050 f   DrawingSurface.obj
 0001:000220a0       ?getRealRedrawMaxX@DrawingSurface@@QAEHXZ 004230a0 f   DrawingSurface.obj
 0001:000220f0       ?getRealRedrawMaxY@DrawingSurface@@QAEHXZ 004230f0 f   DrawingSurface.obj
 0001:00022cf0       ??$move@AAH@std@@YA$$QAHAAH@Z 00423cf0 f i DrawingSurface.obj
 0001:00022d00       ??$move@AAN@std@@YA$$QANAAN@Z 00423d00 f i DrawingSurface.obj
 0001:00022d10       ??$swap@H$0A@@std@@YAXAAH0@Z 00423d10 f i DrawingSurface.obj
 0001:00022d60       ??$swap@N$0A@@std@@YAXAAN0@Z 00423d60 f i DrawingSurface.obj
 0001:00022dc0       ?checkBlitable@DrawingSurface@@QAEXXZ 00423dc0 f i DrawingSurface.obj
 0001:00022e10       ?convertRealToVirtualXPosition@DrawingSurface@@QAEHH@Z 00423e10 f i DrawingSurface.obj
 0001:00022e50       ?convertRealToVirtualYPosition@DrawingSurface@@QAEHH@Z 00423e50 f i DrawingSurface.obj
 0001:00022e90       ?getDefaultFont@BaseEngine@@QBEPAVFont@@XZ 00423e90 f i DrawingSurface.obj
 0001:00022eb0       ?getRedrawAllScreen@BaseEngine@@QAEHXZ 00423eb0 f i DrawingSurface.obj
 0001:00022ed0       ?getRedrawRectRealBottom@BaseEngine@@QAEHXZ 00423ed0 f i DrawingSurface.obj
 0001:00022ef0       ?getRedrawRectRealLeft@BaseEngine@@QAEHXZ 00423ef0 f i DrawingSurface.obj
 0001:00022f10       ?getRedrawRectRealRight@BaseEngine@@QAEHXZ 00423f10 f i DrawingSurface.obj
 0001:00022f30       ?getRedrawRectRealTop@BaseEngine@@QAEHXZ 00423f30 f i DrawingSurface.obj
 0001:00022f50       ?getRedrawRectVirtualBottom@BaseEngine@@QAEHXZ 00423f50 f i DrawingSurface.obj
 0001:00022f70       ?getRedrawRectVirtualLeft@BaseEngine@@QAEHXZ 00423f70 f i DrawingSurface.obj
 0001:00022f90       ?getRedrawRectVirtualRight@BaseEngine@@QAEHXZ 00423f90 f i DrawingSurface.obj
 0001:00022fb0       ?getRedrawRectVirtualTop@BaseEngine@@QAEHXZ 00423fb0 f i DrawingSurface.obj
 0001:00022fd0       ?getTTFFont@Font@@QAEPAU_TTF_Font@@XZ 00423fd0 f i DrawingSurface.obj
 0001:00022ff0       ?mySDLTempRelockSurface@DrawingSurface@@QAEXXZ 00423ff0 f i DrawingSurface.obj
 0001:00023040       ?mySDLTempUnlockSurface@DrawingSurface@@QAEXXZ 00424040 f i DrawingSurface.obj
 0001:00023090       ?setDrawPointsFilter@DrawingSurface@@QAEXPAVFilterPoints@@@Z 00424090 f i DrawingSurface.obj
 0001:000230b0       ??0FlashingDemo@@QAE@XZ    004240b0 f   FlashingDemo.obj
 0001:00023170       ??1FlashingDemo@@UAE@XZ    00424170 f   FlashingDemo.obj
 0001:000231c0       ?virtSetupBackgroundBuffer@FlashingDemo@@UAEXXZ 004241c0 f   FlashingDemo.obj
 0001:00023640       ?virtMainLoopDoBeforeUpdate@FlashingDemo@@UAEXXZ 00424640 f   FlashingDemo.obj
 0001:00023700       ?virtCreateSurfaces@FlashingDemo@@UAEXXZ 00424700 f   FlashingDemo.obj
 0001:00023920       ??1DrawingSurface@@QAE@XZ  00424920 f i FlashingDemo.obj
 0001:00023930       ??_EFlashingDemo@@UAEPAXI@Z 00424930 f i FlashingDemo.obj
 0001:00023930       ??_GFlashingDemo@@UAEPAXI@Z 00424930 f i FlashingDemo.obj
 0001:00023970       ?copyAllBackgroundBuffer@BaseEngine@@UAEXXZ 00424970 f i FlashingDemo.obj
 0001:000239a0       ?copyBackgroundPixels@BaseEngine@@UAEXHHHH@Z 004249a0 f i FlashingDemo.obj
 0001:000239f0       ?createSurface@DrawingSurface@@QAEXHH@Z 004249f0 f i FlashingDemo.obj
 0001:00023a40       ?destroyOldObjects@DisplayableObjectContainer@@UAEX_N@Z 00424a40 f i FlashingDemo.obj
 0001:00023b30       ?fillBackground@BaseEngine@@UAEXI@Z 00424b30 f i FlashingDemo.obj
 0001:00023b60       ?fillSurface@DrawingSurface@@QAEXI@Z 00424b60 f i FlashingDemo.obj
 0001:00023bf0       ?filter@BaseEngine@@UAE_NPAVDrawingSurface@@AAH1AAI_N@Z 00424bf0 f i FlashingDemo.obj
 0001:00023cb0       ?filterConvertRealToVirtualXPosition@FilterPoints@@UAEHH@Z 00424cb0 f i FlashingDemo.obj
 0001:00023cd0       ?filterConvertRealToVirtualYPosition@FilterPoints@@UAEHH@Z 00424cd0 f i FlashingDemo.obj
 0001:00023cf0       ?filterConvertVirtualToRealXPosition@FilterPoints@@UAEHH@Z 00424cf0 f i FlashingDemo.obj
 0001:00023d10       ?filterConvertVirtualToRealYPosition@FilterPoints@@UAEHH@Z 00424d10 f i FlashingDemo.obj
 0001:00023d30       ?getModifiedTime@BaseEngine@@UBEHXZ 00424d30 f i FlashingDemo.obj
 0001:00023d70       ?redrawDisplay@BaseEngine@@QAEXXZ 00424d70 f i FlashingDemo.obj
 0001:00023d90       ?virtBackgroundMouseDown@BaseEngine@@UAEXHHHHH@Z 00424d90 f i FlashingDemo.obj
 0001:00023da0       ?virtMainLoopDoAfterUpdate@BaseEngine@@UAEXXZ 00424da0 f i FlashingDemo.obj
 0001:00023db0       ?virtMainLoopPostUpdate@BaseEngine@@UAEXXZ 00424db0 f i FlashingDemo.obj
 0001:00023dc0       ?virtMainLoopPreUpdate@BaseEngine@@UAEXXZ 00424dc0 f i FlashingDemo.obj
 0001:00023dd0       ?virtMainLoopStartIteration@BaseEngine@@UAEXXZ 00424dd0 f i FlashingDemo.obj
 0001:00023de0       ?virtMouseWheel@BaseEngine@@UAEXHHHH@Z 00424de0 f i FlashingDemo.obj
 0001:00023df0       ?virtPostDraw@BaseEngine@@UAEXXZ 00424df0 f i FlashingDemo.obj
 0001:00023e00       ?virtPreDraw@BaseEngine@@UAEXXZ 00424e00 f i FlashingDemo.obj
 0001:00023e10       ?virtRealMouseDown@BaseEngine@@UAEXHHH@Z 00424e10 f i FlashingDemo.obj
 0001:00023e20       ?virtRealMouseUp@BaseEngine@@UAEXHHH@Z 00424e20 f i FlashingDemo.obj
 0001:00023e30       ?virtTouchEvent@BaseEngine@@UAEXHH_J0MMMMM@Z 00424e30 f i FlashingDemo.obj
 0001:00023e40       ?mapCoordinates@ImagePixelMappingFlip@@QAE_NAAN0ABVScyjz14Image@@@Z 00424e40 f   ImagePixelMappingFlip.obj
 0001:00023fa0       ?getHeight@Scyjz14Image@@QBEHXZ 00424fa0 f i ImagePixelMappingFlip.obj
 0001:00023fd0       ?getWidth@Scyjz14Image@@QBEHXZ 00424fd0 f i ImagePixelMappingFlip.obj
 0001:00024000       ??1InstructionState@@UAE@XZ 00425000 f   InstructionState.obj
 0001:000240c0       ?initialiseStateObject@InstructionState@@UAEXXZ 004250c0 f   InstructionState.obj
 0001:000242e0       ?virtSetupBackgroundBuffer@InstructionState@@UAEXXZ 004252e0 f   InstructionState.obj
 0001:00024380       ?virtMainLoopDoBeforeUpdate@InstructionState@@UAEXXZ 00425380 f   InstructionState.obj
 0001:00024390       ?virtDrawStringsUnderneath@InstructionState@@UAEXXZ 00425390 f   InstructionState.obj
 0001:000243a0       ?virtDrawStringsOnTop@InstructionState@@UAEXXZ 004253a0 f   InstructionState.obj
 0001:000243b0       ?virtMouseUp@InstructionState@@UAEXHHH@Z 004253b0 f   InstructionState.obj
 0001:00024510       ?virtMouseWheel@InstructionState@@UAEXHHHH@Z 00425510 f   InstructionState.obj
 0001:00024620       ?initialise@InstructionState@@UAEXXZ 00425620 f   InstructionState.obj
 0001:00024670       ?virtKeyDown@InstructionState@@UAEXH@Z 00425670 f   InstructionState.obj
 0001:00024960       ??$?0$$V@?$_Compressed_pair@V?$allocator@U?$_Tree_node@U?$pair@$$CBV?$basic_string@DU?$char_traits@D@std@@V?$allocator@D@2@@std@@V?$shared_ptr@VScyjz14RawImageData@@@2@@std@@PAX@std@@@std@@V?$_Tree_val@U?$_Tree_simple_types@U?$pair@$$CBV?$basic_string@DU?$char_traits@D@std@@V?$allocator@D@2@@std@@V?$shared_ptr@VScyjz14RawImageData@@@2@@std@@@std@@@2@$00@std@@QAE@U_Zero_then_variadic_args_t@1@@Z 00425960 f i InstructionState.obj
 0001:00024990       ??$?0$$V@?$_Compressed_pair@V?$allocator@U?$_Tree_node@U?$pair@$$CBV?$basic_string@DU?$char_traits@D@std@@V?$allocator@D@2@@std@@V?$weak_ptr@VScyjz14RawImageData@@@2@@std@@PAX@std@@@std@@V?$_Tree_val@U?$_Tree_simple_types@U?$pair@$$CBV?$basic_string@DU?$char_traits@D@std@@V?$allocator@D@2@@std@@V?$weak_ptr@VScyjz14RawImageData@@@2@@std@@@std@@@2@$00@std@@QAE@U_Zero_then_variadic_args_t@1@@Z 00425990 f i InstructionState.obj
 0001:000249c0       ??$?0AAPAU?$_Tree_node@U?$pair@$$CBV?$basic_string@DU?$char_traits@D@std@@V?$allocator@D@2@@std@@V?$shared_ptr@VScyjz14RawImageData@@@2@@std@@PAX@std@@_N$0A@@?$pair@PAU?$_Tree_node@U?$pair@$$CBV?$basic_string@DU?$char_traits@D@std@@V?$allocator@D@2@@std@@V?$shared_ptr@VScyjz14RawImageData@@@2@@std@@PAX@std@@_N@std@@QAE@AAPAU?$_Tree_node@U?$pair@$$CBV?$basic_string@DU?$char_traits@D@std@@V?$allocator@D@2@@std@@V?$shared_ptr@VScyjz14RawImageData@@@2@@std@@PAX@1@$$QA_N@Z 004259c0 f i InstructionState.obj
 0001:00024a10       ??$?0AAPAU?$_Tree_node@U?$pair@$$CBV?$basic_string@DU?$char_traits@D@std@@V?$allocator@D@2@@std@@V?$weak_ptr@VScyjz14RawImageData@@@2@@std@@PAX@std@@_N$0A@@?$pair@PAU?$_Tree_node@U?$pair@$$CBV?$basic_string@DU?$char_traits@D@std@@V?$allocator@D@2@@std@@V?$weak_ptr@VScyjz14RawImageData@@@2@@std@@PAX@std@@_N@std@@QAE@AAPAU?$_Tree_node@U?$pair@$$CBV?$basic_string@DU?$char_traits@D@std@@V?$allocator@D@2@@std@@V?$weak_ptr@VScyjz14RawImageData@@@2@@std@@PAX@1@$$QA_N@Z 00425a10 f i InstructionState.obj
 0001:00024a60       ??$?0AAPAVScyjz14Engine@@@?$_Ref_count_obj2@VRunningState@@@std@@QAE@AAPAVScyjz14Engine@@@Z 00425a60 f i InstructionState.obj
 0001:00024b10       ??$?0AAPAVScyjz14Engine@@@?$_Ref_count_obj2@VStartUpState@@@std@@QAE@AAPAVScyjz14Engine@@@Z 00425b10 f i InstructionState.obj
 0001:00024bc0       ??$?0AAV?$basic_string@DU?$char_traits@D@std@@V?$allocator@D@2@@std@@AAV?$shared_ptr@VScyjz14RawImageData@@@1@$0A@@?$pair@V?$basic_string@DU?$char_traits@D@std@@V?$allocator@D@2@@std@@V?$shared_ptr@VScyjz14RawImageData@@@2@@std@@QAE@AAV?$basic_string@DU?$char_traits@D@std@@V?$allocator@D@2@@1@AAV?$shared_ptr@VScyjz14RawImageData@@@1@@Z 00425bc0 f i InstructionState.obj
 0001:00024c10       ??$?0AAV?$basic_string@DU?$char_traits@D@std@@V?$allocator@D@2@@std@@AAV?$weak_ptr@VScyjz14RawImageData@@@1@$0A@@?$pair@V?$basic_string@DU?$char_traits@D@std@@V?$allocator@D@2@@std@@V?$weak_ptr@VScyjz14RawImageData@@@2@@std@@QAE@AAV?$basic_string@DU?$char_traits@D@std@@V?$allocator@D@2@@1@AAV?$weak_ptr@VScyjz14RawImageData@@@1@@Z 00425c10 f i InstructionState.obj
 0001:00024c60       ??$?0ABU?$less@V?$basic_string@DU?$char_traits@D@std@@V?$allocator@D@2@@std@@@std@@U_Zero_then_variadic_args_t@1@@?$_Compressed_pair@U?$less@V?$basic_string@DU?$char_traits@D@std@@V?$allocator@D@2@@std@@@std@@V?$_Compressed_pair@V?$allocator@U?$_Tree_node@U?$pair@$$CBV?$basic_string@DU?$char_traits@D@std@@V?$allocator@D@2@@std@@V?$shared_ptr@VScyjz14RawImageData@@@2@@std@@PAX@std@@@std@@V?$_Tree_val@U?$_Tree_simple_types@U?$pair@$$CBV?$basic_string@DU?$char_traits@D@std@@V?$allocator@D@2@@std@@V?$shared_ptr@VScyjz14RawImageData@@@2@@std@@@std@@@2@$00@2@$00@std@@QAE@U_One_then_variadic_args_t@1@ABU?$less@V?$basic_string@DU?$char_traits@D@std@@V?$allocator@D@2@@std@@@1@$$QAU_Zero_then_variadic_args_t@1@@Z 00425c60 f i InstructionState.obj
 0001:00024cb0       ??$?0ABU?$less@V?$basic_string@DU?$char_traits@D@std@@V?$allocator@D@2@@std@@@std@@U_Zero_then_variadic_args_t@1@@?$_Compressed_pair@U?$less@V?$basic_string@DU?$char_traits@D@std@@V?$allocator@D@2@@std@@@std@@V?$_Compressed_pair@V?$allocator@U?$_Tree_node@U?$pair@$$CBV?$basic_string@DU?$char_traits@D@std@@V?$allocator@D@2@@std@@V?$weak_ptr@VScyjz14RawImageData@@@2@@std@@PAX@std@@@std@@V?$_Tree_val@U?$_Tree_simple_types@U?$pair@$$CBV?$basic_string@DU?$char_traits@D@std@@V?$allocator@D@2@@std@@V?$weak_ptr@VScyjz14RawImageData@@@2@@std@@@std@@@2@$00@2@$00@std@@QAE@U_One_then_variadic_args_t@1@ABU?$less@V?$basic_string@DU?$char_traits@D@std@@V?$allocator@D@2@@std@@@1@$$QAU_Zero_then_variadic_args_t@1@@Z 00425cb0 f i InstructionState.obj
 0001:00024d00       ??$?0PAU?$_Tree_node@U?$pair@$$CBV?$basic_string@DU?$char_traits@D@std@@V?$allocator@D@2@@std@@V?$shared_ptr@VScyjz14RawImageData@@@2@@std@@PAX@std@@_N$0A@@?$pair@PAU?$_Tree_node@U?$pair@$$CBV?$basic_string@DU?$char_traits@D@std@@V?$allocator@D@2@@std@@V?$shared_ptr@VScyjz14RawImageData@@@2@@std@@PAX@std@@_N@std@@QAE@$$QAPAU?$_Tree_node@U?$pair@$$CBV?$basic_string@DU?$char_traits@D@std@@V?$allocator@D@2@@std@@V?$shared_ptr@VScyjz14RawImageData@@@2@@std@@PAX@1@$$QA_N@Z 00425d00 f i InstructionState.obj
 0001:00024d50       ??$?0PAU?$_Tree_node@U?$pair@$$CBV?$basic_string@DU?$char_traits@D@std@@V?$allocator@D@2@@std@@V?$weak_ptr@VScyjz14RawImageData@@@2@@std@@PAX@std@@_N$0A@@?$pair@PAU?$_Tree_node@U?$pair@$$CBV?$basic_string@DU?$char_traits@D@std@@V?$allocator@D@2@@std@@V?$weak_ptr@VScyjz14RawImageData@@@2@@std@@PAX@std@@_N@std@@QAE@$$QAPAU?$_Tree_node@U?$pair@$$CBV?$basic_string@DU?$char_traits@D@std@@V?$allocator@D@2@@std@@V?$weak_ptr@VScyjz14RawImageData@@@2@@std@@PAX@1@$$QA_N@Z 00425d50 f i InstructionState.obj
 0001:00024da0       ??$?0U?$_Tree_node@U?$pair@$$CBV?$basic_string@DU?$char_traits@D@std@@V?$allocator@D@2@@std@@V?$shared_ptr@VScyjz14RawImageData@@@2@@std@@PAX@std@@@?$allocator@U_Container_proxy@std@@@std@@QAE@ABV?$allocator@U?$_Tree_node@U?$pair@$$CBV?$basic_string@DU?$char_traits@D@std@@V?$allocator@D@2@@std@@V?$shared_ptr@VScyjz14RawImageData@@@2@@std@@PAX@std@@@1@@Z 00425da0 f i InstructionState.obj
 0001:00024dc0       ??$?0U?$_Tree_node@U?$pair@$$CBV?$basic_string@DU?$char_traits@D@std@@V?$allocator@D@2@@std@@V?$weak_ptr@VScyjz14RawImageData@@@2@@std@@PAX@std@@@?$allocator@U_Container_proxy@std@@@std@@QAE@ABV?$allocator@U?$_Tree_node@U?$pair@$$CBV?$basic_string@DU?$char_traits@D@std@@V?$allocator@D@2@@std@@V?$weak_ptr@VScyjz14RawImageData@@@2@@std@@PAX@std@@@1@@Z 00425dc0 f i InstructionState.obj
 0001:00024de0       ??$?0U?$pair@V?$basic_string@DU?$char_traits@D@std@@V?$allocator@D@2@@std@@V?$shared_ptr@VScyjz14RawImageData@@@2@@std@@@?$_Tree_temp_node@V?$allocator@U?$_Tree_node@U?$pair@$$CBV?$basic_string@DU?$char_traits@D@std@@V?$allocator@D@2@@std@@V?$shared_ptr@VScyjz14RawImageData@@@2@@std@@PAX@std@@@std@@@std@@QAE@AAV?$allocator@U?$_Tree_node@U?$pair@$$CBV?$basic_string@DU?$char_traits@D@std@@V?$allocator@D@2@@std@@V?$shared_ptr@VScyjz14RawImageData@@@2@@std@@PAX@std@@@1@PAU?$_Tree_node@U?$pair@$$CBV?$basic_string@DU?$char_traits@D@std@@V?$allocator@D@2@@std@@V?$shared_ptr@VScyjz14RawImageData@@@2@@std@@PAX@1@$$QAU?$pair@V?$basic_string@DU?$char_traits@D@std@@V?$allocator@D@2@@std@@V?$shared_ptr@VScyjz14RawImageData@@@2@@1@@Z 00425de0 f i InstructionState.obj
 0001:00024ef0       ??$?0U?$pair@V?$basic_string@DU?$char_traits@D@std@@V?$allocator@D@2@@std@@V?$weak_ptr@VScyjz14RawImageData@@@2@@std@@@?$_Tree_temp_node@V?$allocator@U?$_Tree_node@U?$pair@$$CBV?$basic_string@DU?$char_traits@D@std@@V?$allocator@D@2@@std@@V?$weak_ptr@VScyjz14RawImageData@@@2@@std@@PAX@std@@@std@@@std@@QAE@AAV?$allocator@U?$_Tree_node@U?$pair@$$CBV?$basic_string@DU?$char_traits@D@std@@V?$allocator@D@2@@std@@V?$weak_ptr@VScyjz14RawImageData@@@2@@std@@PAX@std@@@1@PAU?$_Tree_node@U?$pair@$$CBV?$basic_string@DU?$char_traits@D@std@@V?$allocator@D@2@@std@@V?$weak_ptr@VScyjz14RawImageData@@@2@@std@@PAX@1@$$QAU?$pair@V?$basic_string@DU?$char_traits@D@std@@V?$allocator@D@2@@std@@V?$weak_ptr@VScyjz14RawImageData@@@2@@1@@Z 00425ef0 f i InstructionState.obj
 0001:00025000       ??$?0V?$_Tree_iterator@V?$_Tree_val@U?$_Tree_simple_types@U?$pair@$$CBV?$basic_string@DU?$char_traits@D@std@@V?$allocator@D@2@@std@@V?$shared_ptr@VScyjz14RawImageData@@@2@@std@@@std@@@std@@@std@@AB_N$0A@@?$pair@V?$_Tree_iterator@V?$_Tree_val@U?$_Tree_simple_types@U?$pair@$$CBV?$basic_string@DU?$char_traits@D@std@@V?$allocator@D@2@@std@@V?$shared_ptr@VScyjz14RawImageData@@@2@@std@@@std@@@std@@@std@@_N@std@@QAE@$$QAV?$_Tree_iterator@V?$_Tree_val@U?$_Tree_simple_types@U?$pair@$$CBV?$basic_string@DU?$char_traits@D@std@@V?$allocator@D@2@@std@@V?$shared_ptr@VScyjz14RawImageData@@@2@@std@@@std@@@std@@@1@AB_N@Z 00426000 f i InstructionState.obj
 0001:00025050       ??$?0V?$_Tree_iterator@V?$_Tree_val@U?$_Tree_simple_types@U?$pair@$$CBV?$basic_string@DU?$char_traits@D@std@@V?$allocator@D@2@@std@@V?$weak_ptr@VScyjz14RawImageData@@@2@@std@@@std@@@std@@@std@@AB_N$0A@@?$pair@V?$_Tree_iterator@V?$_Tree_val@U?$_Tree_simple_types@U?$pair@$$CBV?$basic_string@DU?$char_traits@D@std@@V?$allocator@D@2@@std@@V?$weak_ptr@VScyjz14RawImageData@@@2@@std@@@std@@@std@@@std@@_N@std@@QAE@$$QAV?$_Tree_iterator@V?$_Tree_val@U?$_Tree_simple_types@U?$pair@$$CBV?$basic_string@DU?$char_traits@D@std@@V?$allocator@D@2@@std@@V?$weak_ptr@VScyjz14RawImageData@@@2@@std@@@std@@@std@@@1@AB_N@Z 00426050 f i InstructionState.obj
 0001:000250a0       ??$?0V?$basic_string@DU?$char_traits@D@std@@V?$allocator@D@2@@std@@V?$shared_ptr@VScyjz14RawImageData@@@1@$0A@@?$pair@$$CBV?$basic_string@DU?$char_traits@D@std@@V?$allocator@D@2@@std@@V?$shared_ptr@VScyjz14RawImageData@@@2@@std@@QAE@$$QAU?$pair@V?$basic_string@DU?$char_traits@D@std@@V?$allocator@D@2@@std@@V?$shared_ptr@VScyjz14RawImageData@@@2@@1@@Z 004260a0 f i InstructionState.obj
 0001:000250f0       ??$?0V?$basic_string@DU?$char_traits@D@std@@V?$allocator@D@2@@std@@V?$weak_ptr@VScyjz14RawImageData@@@1@$0A@@?$pair@$$CBV?$basic_string@DU?$char_traits@D@std@@V?$allocator@D@2@@std@@V?$weak_ptr@VScyjz14RawImageData@@@2@@std@@QAE@$$QAU?$pair@V?$basic_string@DU?$char_traits@D@std@@V?$allocator@D@2@@std@@V?$weak_ptr@VScyjz14RawImageData@@@2@@1@@Z 004260f0 f i InstructionState.obj
 0001:00025140       ??$?0VRunningState@@$0A@@?$shared_ptr@VState@@@std@@QAE@$$QAV?$shared_ptr@VRunningState@@@1@@Z 00426140 f i InstructionState.obj
 0001:00025180       ??$?0VRunningState@@$0A@@?$weak_ptr@VRunningState@@@std@@QAE@ABV?$shared_ptr@VRunningState@@@1@@Z 00426180 f i InstructionState.obj
 0001:000251b0       ??$?0VRunningState@@@?$shared_ptr@VRunningState@@@std@@QAE@ABV01@PAVRunningState@@@Z 004261b0 f i InstructionState.obj
 0001:000251f0       ??$?0VScyjz14RawImageData@@$0A@@?$shared_ptr@VScyjz14RawImageData@@@std@@QAE@PAVScyjz14RawImageData@@@Z 004261f0 f i InstructionState.obj
 0001:000252e0       ??$?0VScyjz14RawImageData@@$0A@@?$weak_ptr@VScyjz14RawImageData@@@std@@QAE@ABV?$shared_ptr@VScyjz14RawImageData@@@1@@Z 004262e0 f i InstructionState.obj
 0001:00025310       ??$?0VStartUpState@@$0A@@?$shared_ptr@VState@@@std@@QAE@$$QAV?$shared_ptr@VStartUpState@@@1@@Z 00426310 f i InstructionState.obj
 0001:00025350       ??$?4VRunningState@@@?$weak_ptr@VRunningState@@@std@@QAEAAV01@ABV?$shared_ptr@VRunningState@@@1@@Z 00426350 f i InstructionState.obj
 0001:00025390       ??$_Alias_construct_from@VRunningState@@@?$_Ptr_base@VRunningState@@@std@@IAEXABV?$shared_ptr@VRunningState@@@1@PAVRunningState@@@Z 00426390 f i InstructionState.obj
 0001:000253d0       ??$_Buyheadnode@V?$allocator@U?$_Tree_node@U?$pair@$$CBV?$basic_string@DU?$char_traits@D@std@@V?$allocator@D@2@@std@@V?$shared_ptr@VScyjz14RawImageData@@@2@@std@@PAX@std@@@std@@@?$_Tree_node@U?$pair@$$CBV?$basic_string@DU?$char_traits@D@std@@V?$allocator@D@2@@std@@V?$shared_ptr@VScyjz14RawImageData@@@2@@std@@PAX@std@@SAPAU01@AAV?$allocator@U?$_Tree_node@U?$pair@$$CBV?$basic_string@DU?$char_traits@D@std@@V?$allocator@D@2@@std@@V?$shared_ptr@VScyjz14RawImageData@@@2@@std@@PAX@std@@@1@@Z 004263d0 f i InstructionState.obj
 0001:00025450       ??$_Buyheadnode@V?$allocator@U?$_Tree_node@U?$pair@$$CBV?$basic_string@DU?$char_traits@D@std@@V?$allocator@D@2@@std@@V?$weak_ptr@VScyjz14RawImageData@@@2@@std@@PAX@std@@@std@@@?$_Tree_node@U?$pair@$$CBV?$basic_string@DU?$char_traits@D@std@@V?$allocator@D@2@@std@@V?$weak_ptr@VScyjz14RawImageData@@@2@@std@@PAX@std@@SAPAU01@AAV?$allocator@U?$_Tree_node@U?$pair@$$CBV?$basic_string@DU?$char_traits@D@std@@V?$allocator@D@2@@std@@V?$weak_ptr@VScyjz14RawImageData@@@2@@std@@PAX@std@@@1@@Z 00426450 f i InstructionState.obj
 0001:000254d0       ??$_Construct_from_weak@VScyjz14RawImageData@@@?$_Ptr_base@VScyjz14RawImageData@@@std@@IAE_NABV?$weak_ptr@VScyjz14RawImageData@@@1@@Z 004264d0 f i InstructionState.obj
 0001:00025530       ??$_Construct_in_place@PAU?$_Tree_node@U?$pair@$$CBV?$basic_string@DU?$char_traits@D@std@@V?$allocator@D@2@@std@@V?$shared_ptr@VScyjz14RawImageData@@@2@@std@@PAX@std@@AAPAU12@@std@@YAXAAPAU?$_Tree_node@U?$pair@$$CBV?$basic_string@DU?$char_traits@D@std@@V?$allocator@D@2@@std@@V?$shared_ptr@VScyjz14RawImageData@@@2@@std@@PAX@0@0@Z 00426530 f i InstructionState.obj
 0001:00025580       ??$_Construct_in_place@PAU?$_Tree_node@U?$pair@$$CBV?$basic_string@DU?$char_traits@D@std@@V?$allocator@D@2@@std@@V?$shared_ptr@VScyjz14RawImageData@@@2@@std@@PAX@std@@ABQAU12@@std@@YAXAAPAU?$_Tree_node@U?$pair@$$CBV?$basic_string@DU?$char_traits@D@std@@V?$allocator@D@2@@std@@V?$shared_ptr@VScyjz14RawImageData@@@2@@std@@PAX@0@ABQAU10@@Z 00426580 f i InstructionState.obj
 0001:000255d0       ??$_Construct_in_place@PAU?$_Tree_node@U?$pair@$$CBV?$basic_string@DU?$char_traits@D@std@@V?$allocator@D@2@@std@@V?$weak_ptr@VScyjz14RawImageData@@@2@@std@@PAX@std@@AAPAU12@@std@@YAXAAPAU?$_Tree_node@U?$pair@$$CBV?$basic_string@DU?$char_traits@D@std@@V?$allocator@D@2@@std@@V?$weak_ptr@VScyjz14RawImageData@@@2@@std@@PAX@0@0@Z 004265d0 f i InstructionState.obj
 0001:00025620       ??$_Construct_in_place@PAU?$_Tree_node@U?$pair@$$CBV?$basic_string@DU?$char_traits@D@std@@V?$allocator@D@2@@std@@V?$weak_ptr@VScyjz14RawImageData@@@2@@std@@PAX@std@@ABQAU12@@std@@YAXAAPAU?$_Tree_node@U?$pair@$$CBV?$basic_string@DU?$char_traits@D@std@@V?$allocator@D@2@@std@@V?$weak_ptr@VScyjz14RawImageData@@@2@@std@@PAX@0@ABQAU10@@Z 00426620 f i InstructionState.obj
 0001:00025670       ??$_Construct_in_place@VRunningState@@AAPAVScyjz14Engine@@@std@@YAXAAVRunningState@@AAPAVScyjz14Engine@@@Z 00426670 f i InstructionState.obj
 0001:000256d0       ??$_Construct_in_place@VStartUpState@@AAPAVScyjz14Engine@@@std@@YAXAAVStartUpState@@AAPAVScyjz14Engine@@@Z 004266d0 f i InstructionState.obj
 0001:00025730       ??$_Destroy_in_place@PAU?$_Tree_node@U?$pair@$$CBV?$basic_string@DU?$char_traits@D@std@@V?$allocator@D@2@@std@@V?$shared_ptr@VScyjz14RawImageData@@@2@@std@@PAX@std@@@std@@YAXAAPAU?$_Tree_node@U?$pair@$$CBV?$basic_string@DU?$char_traits@D@std@@V?$allocator@D@2@@std@@V?$shared_ptr@VScyjz14RawImageData@@@2@@std@@PAX@0@@Z 00426730 f i InstructionState.obj
 0001:00025740       ??$_Destroy_in_place@PAU?$_Tree_node@U?$pair@$$CBV?$basic_string@DU?$char_traits@D@std@@V?$allocator@D@2@@std@@V?$weak_ptr@VScyjz14RawImageData@@@2@@std@@PAX@std@@@std@@YAXAAPAU?$_Tree_node@U?$pair@$$CBV?$basic_string@DU?$char_traits@D@std@@V?$allocator@D@2@@std@@V?$weak_ptr@VScyjz14RawImageData@@@2@@std@@PAX@0@@Z 00426740 f i InstructionState.obj
 0001:00025750       ??$_Destroy_in_place@VRunningState@@@std@@YAXAAVRunningState@@@Z 00426750 f i InstructionState.obj
 0001:00025770       ??$_Destroy_in_place@VStartUpState@@@std@@YAXAAVStartUpState@@@Z 00426770 f i InstructionState.obj
 0001:00025790       ??$_Emplace@U?$pair@V?$basic_string@DU?$char_traits@D@std@@V?$allocator@D@2@@std@@V?$shared_ptr@VScyjz14RawImageData@@@2@@std@@@?$_Tree@V?$_Tmap_traits@V?$basic_string@DU?$char_traits@D@std@@V?$allocator@D@2@@std@@V?$shared_ptr@VScyjz14RawImageData@@@2@U?$less@V?$basic_string@DU?$char_traits@D@std@@V?$allocator@D@2@@std@@@2@V?$allocator@U?$pair@$$CBV?$basic_string@DU?$char_traits@D@std@@V?$allocator@D@2@@std@@V?$shared_ptr@VScyjz14RawImageData@@@2@@std@@@2@$0A@@std@@@std@@IAE?AU?$pair@PAU?$_Tree_node@U?$pair@$$CBV?$basic_string@DU?$char_traits@D@std@@V?$allocator@D@2@@std@@V?$shared_ptr@VScyjz14RawImageData@@@2@@std@@PAX@std@@_N@1@$$QAU?$pair@V?$basic_string@DU?$char_traits@D@std@@V?$allocator@D@2@@std@@V?$shared_ptr@VScyjz14RawImageData@@@2@@1@@Z 00426790 f i InstructionState.obj
 0001:000258c0       ??$_Emplace@U?$pair@V?$basic_string@DU?$char_traits@D@std@@V?$allocator@D@2@@std@@V?$weak_ptr@VScyjz14RawImageData@@@2@@std@@@?$_Tree@V?$_Tmap_traits@V?$basic_string@DU?$char_traits@D@std@@V?$allocator@D@2@@std@@V?$weak_ptr@VScyjz14RawImageData@@@2@U?$less@V?$basic_string@DU?$char_traits@D@std@@V?$allocator@D@2@@std@@@2@V?$allocator@U?$pair@$$CBV?$basic_string@DU?$char_traits@D@std@@V?$allocator@D@2@@std@@V?$weak_ptr@VScyjz14RawImageData@@@2@@std@@@2@$0A@@std@@@std@@IAE?AU?$pair@PAU?$_Tree_node@U?$pair@$$CBV?$basic_string@DU?$char_traits@D@std@@V?$allocator@D@2@@std@@V?$weak_ptr@VScyjz14RawImageData@@@2@@std@@PAX@std@@_N@1@$$QAU?$pair@V?$basic_string@DU?$char_traits@D@std@@V?$allocator@D@2@@std@@V?$weak_ptr@VScyjz14RawImageData@@@2@@1@@Z 004268c0 f i InstructionState.obj
 0001:000259f0       ??$_Erase_head@V?$allocator@U?$_Tree_node@U?$pair@$$CBV?$basic_string@DU?$char_traits@D@std@@V?$allocator@D@2@@std@@V?$weak_ptr@VScyjz14RawImageData@@@2@@std@@PAX@std@@@std@@@?$_Tree_val@U?$_Tree_simple_types@U?$pair@$$CBV?$basic_string@DU?$char_traits@D@std@@V?$allocator@D@2@@std@@V?$weak_ptr@VScyjz14RawImageData@@@2@@std@@@std@@@std@@QAEXAAV?$allocator@U?$_Tree_node@U?$pair@$$CBV?$basic_string@DU?$char_traits@D@std@@V?$allocator@D@2@@std@@V?$weak_ptr@VScyjz14RawImageData@@@2@@std@@PAX@std@@@1@@Z 004269f0 f i InstructionState.obj
 0001:00025a40       ??$_Erase_tree@V?$allocator@U?$_Tree_node@U?$pair@$$CBV?$basic_string@DU?$char_traits@D@std@@V?$allocator@D@2@@std@@V?$weak_ptr@VScyjz14RawImageData@@@2@@std@@PAX@std@@@std@@@?$_Tree_val@U?$_Tree_simple_types@U?$pair@$$CBV?$basic_string@DU?$char_traits@D@std@@V?$allocator@D@2@@std@@V?$weak_ptr@VScyjz14RawImageData@@@2@@std@@@std@@@std@@QAEXAAV?$allocator@U?$_Tree_node@U?$pair@$$CBV?$basic_string@DU?$char_traits@D@std@@V?$allocator@D@2@@std@@V?$weak_ptr@VScyjz14RawImageData@@@2@@std@@PAX@std@@@1@PAU?$_Tree_node@U?$pair@$$CBV?$basic_string@DU?$char_traits@D@std@@V?$allocator@D@2@@std@@V?$weak_ptr@VScyjz14RawImageData@@@2@@std@@PAX@1@@Z 00426a40 f i InstructionState.obj
 0001:00025aa0       ??$_Find@V?$basic_string@DU?$char_traits@D@std@@V?$allocator@D@2@@std@@@?$_Tree@V?$_Tmap_traits@V?$basic_string@DU?$char_traits@D@std@@V?$allocator@D@2@@std@@V?$weak_ptr@VScyjz14RawImageData@@@2@U?$less@V?$basic_string@DU?$char_traits@D@std@@V?$allocator@D@2@@std@@@2@V?$allocator@U?$pair@$$CBV?$basic_string@DU?$char_traits@D@std@@V?$allocator@D@2@@std@@V?$weak_ptr@VScyjz14RawImageData@@@2@@std@@@2@$0A@@std@@@std@@ABEPAU?$_Tree_node@U?$pair@$$CBV?$basic_string@DU?$char_traits@D@std@@V?$allocator@D@2@@std@@V?$weak_ptr@VScyjz14RawImageData@@@2@@std@@PAX@1@ABV?$basic_string@DU?$char_traits@D@std@@V?$allocator@D@2@@1@@Z 00426aa0 f i InstructionState.obj
 0001:00025b00       ??$_Find_lower_bound@V?$basic_string@DU?$char_traits@D@std@@V?$allocator@D@2@@std@@@?$_Tree@V?$_Tmap_traits@V?$basic_string@DU?$char_traits@D@std@@V?$allocator@D@2@@std@@V?$shared_ptr@VScyjz14RawImageData@@@2@U?$less@V?$basic_string@DU?$char_traits@D@std@@V?$allocator@D@2@@std@@@2@V?$allocator@U?$pair@$$CBV?$basic_string@DU?$char_traits@D@std@@V?$allocator@D@2@@std@@V?$shared_ptr@VScyjz14RawImageData@@@2@@std@@@2@$0A@@std@@@std@@IBE?AU?$_Tree_find_result@PAU?$_Tree_node@U?$pair@$$CBV?$basic_string@DU?$char_traits@D@std@@V?$allocator@D@2@@std@@V?$shared_ptr@VScyjz14RawImageData@@@2@@std@@PAX@std@@@1@ABV?$basic_string@DU?$char_traits@D@std@@V?$allocator@D@2@@1@@Z 00426b00 f i InstructionState.obj
 0001:00025bf0       ??$_Find_lower_bound@V?$basic_string@DU?$char_traits@D@std@@V?$allocator@D@2@@std@@@?$_Tree@V?$_Tmap_traits@V?$basic_string@DU?$char_traits@D@std@@V?$allocator@D@2@@std@@V?$weak_ptr@VScyjz14RawImageData@@@2@U?$less@V?$basic_string@DU?$char_traits@D@std@@V?$allocator@D@2@@std@@@2@V?$allocator@U?$pair@$$CBV?$basic_string@DU?$char_traits@D@std@@V?$allocator@D@2@@std@@V?$weak_ptr@VScyjz14RawImageData@@@2@@std@@@2@$0A@@std@@@std@@IBE?AU?$_Tree_find_result@PAU?$_Tree_node@U?$pair@$$CBV?$basic_string@DU?$char_traits@D@std@@V?$allocator@D@2@@std@@V?$weak_ptr@VScyjz14RawImageData@@@2@@std@@PAX@std@@@1@ABV?$basic_string@DU?$char_traits@D@std@@V?$allocator@D@2@@1@@Z 00426bf0 f i InstructionState.obj
 0001:00025ce0       ??$_Freenode0@V?$allocator@U?$_Tree_node@U?$pair@$$CBV?$basic_string@DU?$char_traits@D@std@@V?$allocator@D@2@@std@@V?$weak_ptr@VScyjz14RawImageData@@@2@@std@@PAX@std@@@std@@@?$_Tree_node@U?$pair@$$CBV?$basic_string@DU?$char_traits@D@std@@V?$allocator@D@2@@std@@V?$weak_ptr@VScyjz14RawImageData@@@2@@std@@PAX@std@@SAXAAV?$allocator@U?$_Tree_node@U?$pair@$$CBV?$basic_string@DU?$char_traits@D@std@@V?$allocator@D@2@@std@@V?$weak_ptr@VScyjz14RawImageData@@@2@@std@@PAX@std@@@1@PAU01@@Z 00426ce0 f i InstructionState.obj
 0001:00025d70       ??$_Freenode@V?$allocator@U?$_Tree_node@U?$pair@$$CBV?$basic_string@DU?$char_traits@D@std@@V?$allocator@D@2@@std@@V?$weak_ptr@VScyjz14RawImageData@@@2@@std@@PAX@std@@@std@@@?$_Tree_node@U?$pair@$$CBV?$basic_string@DU?$char_traits@D@std@@V?$allocator@D@2@@std@@V?$weak_ptr@VScyjz14RawImageData@@@2@@std@@PAX@std@@SAXAAV?$allocator@U?$_Tree_node@U?$pair@$$CBV?$basic_string@DU?$char_traits@D@std@@V?$allocator@D@2@@std@@V?$weak_ptr@VScyjz14RawImageData@@@2@@std@@PAX@std@@@1@PAU01@@Z 00426d70 f i InstructionState.obj
 0001:00025df0       ??$_Kfn@$$CBV?$basic_string@DU?$char_traits@D@std@@V?$allocator@D@2@@std@@V?$shared_ptr@VScyjz14RawImageData@@@2@@?$_Tmap_traits@V?$basic_string@DU?$char_traits@D@std@@V?$allocator@D@2@@std@@V?$shared_ptr@VScyjz14RawImageData@@@2@U?$less@V?$basic_string@DU?$char_traits@D@std@@V?$allocator@D@2@@std@@@2@V?$allocator@U?$pair@$$CBV?$basic_string@DU?$char_traits@D@std@@V?$allocator@D@2@@std@@V?$shared_ptr@VScyjz14RawImageData@@@2@@std@@@2@$0A@@std@@SAABV?$basic_string@DU?$char_traits@D@std@@V?$allocator@D@2@@1@ABU?$pair@$$CBV?$basic_string@DU?$char_traits@D@std@@V?$allocator@D@2@@std@@V?$shared_ptr@VScyjz14RawImageData@@@2@@1@@Z 00426df0 f i InstructionState.obj
 0001:00025e00       ??$_Kfn@$$CBV?$basic_string@DU?$char_traits@D@std@@V?$allocator@D@2@@std@@V?$weak_ptr@VScyjz14RawImageData@@@2@@?$_Tmap_traits@V?$basic_string@DU?$char_traits@D@std@@V?$allocator@D@2@@std@@V?$weak_ptr@VScyjz14RawImageData@@@2@U?$less@V?$basic_string@DU?$char_traits@D@std@@V?$allocator@D@2@@std@@@2@V?$allocator@U?$pair@$$CBV?$basic_string@DU?$char_traits@D@std@@V?$allocator@D@2@@std@@V?$weak_ptr@VScyjz14RawImageData@@@2@@std@@@2@$0A@@std@@SAABV?$basic_string@DU?$char_traits@D@std@@V?$allocator@D@2@@1@ABU?$pair@$$CBV?$basic_string@DU?$char_traits@D@std@@V?$allocator@D@2@@std@@V?$weak_ptr@VScyjz14RawImageData@@@2@@1@@Z 00426e00 f i InstructionState.obj
 0001:00025e10       ??$_Lower_bound_duplicate@V?$basic_string@DU?$char_traits@D@std@@V?$allocator@D@2@@std@@@?$_Tree@V?$_Tmap_traits@V?$basic_string@DU?$char_traits@D@std@@V?$allocator@D@2@@std@@V?$shared_ptr@VScyjz14RawImageData@@@2@U?$less@V?$basic_string@DU?$char_traits@D@std@@V?$allocator@D@2@@std@@@2@V?$allocator@U?$pair@$$CBV?$basic_string@DU?$char_traits@D@std@@V?$allocator@D@2@@std@@V?$shared_ptr@VScyjz14RawImageData@@@2@@std@@@2@$0A@@std@@@std@@IBE_NQAU?$_Tree_node@U?$pair@$$CBV?$basic_string@DU?$char_traits@D@std@@V?$allocator@D@2@@std@@V?$shared_ptr@VScyjz14RawImageData@@@2@@std@@PAX@1@ABV?$basic_string@DU?$char_traits@D@std@@V?$allocator@D@2@@1@@Z 00426e10 f i InstructionState.obj
 0001:00025e80       ??$_Lower_bound_duplicate@V?$basic_string@DU?$char_traits@D@std@@V?$allocator@D@2@@std@@@?$_Tree@V?$_Tmap_traits@V?$basic_string@DU?$char_traits@D@std@@V?$allocator@D@2@@std@@V?$weak_ptr@VScyjz14RawImageData@@@2@U?$less@V?$basic_string@DU?$char_traits@D@std@@V?$allocator@D@2@@std@@@2@V?$allocator@U?$pair@$$CBV?$basic_string@DU?$char_traits@D@std@@V?$allocator@D@2@@std@@V?$weak_ptr@VScyjz14RawImageData@@@2@@std@@@2@$0A@@std@@@std@@IBE_NQAU?$_Tree_node@U?$pair@$$CBV?$basic_string@DU?$char_traits@D@std@@V?$allocator@D@2@@std@@V?$weak_ptr@VScyjz14RawImageData@@@2@@std@@PAX@1@ABV?$basic_string@DU?$char_traits@D@std@@V?$allocator@D@2@@1@@Z 00426e80 f i InstructionState.obj
 0001:00025ef0       ??$_Move_construct_from@VRunningState@@@?$_Ptr_base@VRunningState@@@std@@IAEX$$QAV01@@Z 00426ef0 f i InstructionState.obj
 0001:00025f40       ??$_Move_construct_from@VRunningState@@@?$_Ptr_base@VState@@@std@@IAEX$$QAV?$_Ptr_base@VRunningState@@@1@@Z 00426f40 f i InstructionState.obj
 0001:00025f90       ??$_Move_construct_from@VScyjz14RawImageData@@@?$_Ptr_base@VScyjz14RawImageData@@@std@@IAEX$$QAV01@@Z 00426f90 f i InstructionState.obj
 0001:00025fe0       ??$_Move_construct_from@VStartUpState@@@?$_Ptr_base@VStartUpState@@@std@@IAEX$$QAV01@@Z 00426fe0 f i InstructionState.obj
 0001:00026030       ??$_Move_construct_from@VStartUpState@@@?$_Ptr_base@VState@@@std@@IAEX$$QAV?$_Ptr_base@VStartUpState@@@1@@Z 00427030 f i InstructionState.obj
 0001:00026080       ??$_Set_ptr_rep_and_enable_shared@VRunningState@@@?$shared_ptr@VRunningState@@@std@@AAEXQAVRunningState@@QAV_Ref_count_base@1@@Z 00427080 f i InstructionState.obj
 0001:00026100       ??$_Set_ptr_rep_and_enable_shared@VScyjz14RawImageData@@@?$shared_ptr@VScyjz14RawImageData@@@std@@AAEXQAVScyjz14RawImageData@@QAV_Ref_count_base@1@@Z 00427100 f i InstructionState.obj
 0001:00026130       ??$_Set_ptr_rep_and_enable_shared@VStartUpState@@@?$shared_ptr@VStartUpState@@@std@@AAEXQAVStartUpState@@QAV_Ref_count_base@1@@Z 00427130 f i InstructionState.obj
 0001:00026160       ??$_Voidify_iter@PAPAU?$_Tree_node@U?$pair@$$CBV?$basic_string@DU?$char_traits@D@std@@V?$allocator@D@2@@std@@V?$shared_ptr@VScyjz14RawImageData@@@2@@std@@PAX@std@@@std@@YAPAXPAPAU?$_Tree_node@U?$pair@$$CBV?$basic_string@DU?$char_traits@D@std@@V?$allocator@D@2@@std@@V?$shared_ptr@VScyjz14RawImageData@@@2@@std@@PAX@0@@Z 00427160 f i InstructionState.obj
 0001:00026170       ??$_Voidify_iter@PAPAU?$_Tree_node@U?$pair@$$CBV?$basic_string@DU?$char_traits@D@std@@V?$allocator@D@2@@std@@V?$weak_ptr@VScyjz14RawImageData@@@2@@std@@PAX@std@@@std@@YAPAXPAPAU?$_Tree_node@U?$pair@$$CBV?$basic_string@DU?$char_traits@D@std@@V?$allocator@D@2@@std@@V?$weak_ptr@VScyjz14RawImageData@@@2@@std@@PAX@0@@Z 00427170 f i InstructionState.obj
 0001:00026180       ??$_Voidify_iter@PAU?$pair@$$CBV?$basic_string@DU?$char_traits@D@std@@V?$allocator@D@2@@std@@V?$shared_ptr@VScyjz14RawImageData@@@2@@std@@@std@@YAPAXPAU?$pair@$$CBV?$basic_string@DU?$char_traits@D@std@@V?$allocator@D@2@@std@@V?$shared_ptr@VScyjz14RawImageData@@@2@@0@@Z 00427180 f i InstructionState.obj
 0001:00026190       ??$_Voidify_iter@PAU?$pair@$$CBV?$basic_string@DU?$char_traits@D@std@@V?$allocator@D@2@@std@@V?$weak_ptr@VScyjz14RawImageData@@@2@@std@@@std@@YAPAXPAU?$pair@$$CBV?$basic_string@DU?$char_traits@D@std@@V?$allocator@D@2@@std@@V?$weak_ptr@VScyjz14RawImageData@@@2@@0@@Z 00427190 f i InstructionState.obj
 0001:000261a0       ??$_Voidify_iter@PAVRunningState@@@std@@YAPAXPAVRunningState@@@Z 004271a0 f i InstructionState.obj
 0001:000261b0       ??$_Voidify_iter@PAVStartUpState@@@std@@YAPAXPAVStartUpState@@@Z 004271b0 f i InstructionState.obj
 0001:000261c0       ??$_Weakly_construct_from@VRunningState@@@?$_Ptr_base@VRunningState@@@std@@IAEXABV01@@Z 004271c0 f i InstructionState.obj
 0001:00026210       ??$_Weakly_construct_from@VScyjz14RawImageData@@@?$_Ptr_base@VScyjz14RawImageData@@@std@@IAEXABV01@@Z 00427210 f i InstructionState.obj
 0001:00026260       ??$addressof@$$CBV?$_Tree_val@U?$_Tree_simple_types@U?$pair@$$CBV?$basic_string@DU?$char_traits@D@std@@V?$allocator@D@2@@std@@V?$shared_ptr@VScyjz14RawImageData@@@2@@std@@@std@@@std@@@std@@YAPBV?$_Tree_val@U?$_Tree_simple_types@U?$pair@$$CBV?$basic_string@DU?$char_traits@D@std@@V?$allocator@D@2@@std@@V?$shared_ptr@VScyjz14RawImageData@@@2@@std@@@std@@@0@ABV10@@Z 00427260 f i InstructionState.obj
 0001:00026270       ??$addressof@$$CBV?$_Tree_val@U?$_Tree_simple_types@U?$pair@$$CBV?$basic_string@DU?$char_traits@D@std@@V?$allocator@D@2@@std@@V?$weak_ptr@VScyjz14RawImageData@@@2@@std@@@std@@@std@@@std@@YAPBV?$_Tree_val@U?$_Tree_simple_types@U?$pair@$$CBV?$basic_string@DU?$char_traits@D@std@@V?$allocator@D@2@@std@@V?$weak_ptr@VScyjz14RawImageData@@@2@@std@@@std@@@0@ABV10@@Z 00427270 f i InstructionState.obj
 0001:00026280       ??$addressof@PAU?$_Tree_node@U?$pair@$$CBV?$basic_string@DU?$char_traits@D@std@@V?$allocator@D@2@@std@@V?$shared_ptr@VScyjz14RawImageData@@@2@@std@@PAX@std@@@std@@YAPAPAU?$_Tree_node@U?$pair@$$CBV?$basic_string@DU?$char_traits@D@std@@V?$allocator@D@2@@std@@V?$shared_ptr@VScyjz14RawImageData@@@2@@std@@PAX@0@AAPAU10@@Z 00427280 f i InstructionState.obj
 0001:00026290       ??$addressof@PAU?$_Tree_node@U?$pair@$$CBV?$basic_string@DU?$char_traits@D@std@@V?$allocator@D@2@@std@@V?$weak_ptr@VScyjz14RawImageData@@@2@@std@@PAX@std@@@std@@YAPAPAU?$_Tree_node@U?$pair@$$CBV?$basic_string@DU?$char_traits@D@std@@V?$allocator@D@2@@std@@V?$weak_ptr@VScyjz14RawImageData@@@2@@std@@PAX@0@AAPAU10@@Z 00427290 f i InstructionState.obj
 0001:000262a0       ??$addressof@U?$pair@$$CBV?$basic_string@DU?$char_traits@D@std@@V?$allocator@D@2@@std@@V?$shared_ptr@VScyjz14RawImageData@@@2@@std@@@std@@YAPAU?$pair@$$CBV?$basic_string@DU?$char_traits@D@std@@V?$allocator@D@2@@std@@V?$shared_ptr@VScyjz14RawImageData@@@2@@0@AAU10@@Z 004272a0 f i InstructionState.obj
 0001:000262b0       ??$addressof@U?$pair@$$CBV?$basic_string@DU?$char_traits@D@std@@V?$allocator@D@2@@std@@V?$weak_ptr@VScyjz14RawImageData@@@2@@std@@@std@@YAPAU?$pair@$$CBV?$basic_string@DU?$char_traits@D@std@@V?$allocator@D@2@@std@@V?$weak_ptr@VScyjz14RawImageData@@@2@@0@AAU10@@Z 004272b0 f i InstructionState.obj
 0001:000262c0       ??$addressof@V?$_Tree_val@U?$_Tree_simple_types@U?$pair@$$CBV?$basic_string@DU?$char_traits@D@std@@V?$allocator@D@2@@std@@V?$shared_ptr@VScyjz14RawImageData@@@2@@std@@@std@@@std@@@std@@YAPAV?$_Tree_val@U?$_Tree_simple_types@U?$pair@$$CBV?$basic_string@DU?$char_traits@D@std@@V?$allocator@D@2@@std@@V?$shared_ptr@VScyjz14RawImageData@@@2@@std@@@std@@@0@AAV10@@Z 004272c0 f i InstructionState.obj
 0001:000262d0       ??$addressof@V?$_Tree_val@U?$_Tree_simple_types@U?$pair@$$CBV?$basic_string@DU?$char_traits@D@std@@V?$allocator@D@2@@std@@V?$weak_ptr@VScyjz14RawImageData@@@2@@std@@@std@@@std@@@std@@YAPAV?$_Tree_val@U?$_Tree_simple_types@U?$pair@$$CBV?$basic_string@DU?$char_traits@D@std@@V?$allocator@D@2@@std@@V?$weak_ptr@VScyjz14RawImageData@@@2@@std@@@std@@@0@AAV10@@Z 004272d0 f i InstructionState.obj
 0001:000262e0       ??$addressof@VRunningState@@@std@@YAPAVRunningState@@AAV1@@Z 004272e0 f i InstructionState.obj
 0001:000262f0       ??$addressof@VStartUpState@@@std@@YAPAVStartUpState@@AAV1@@Z 004272f0 f i InstructionState.obj
 0001:00026300       ??$construct@U?$pair@$$CBV?$basic_string@DU?$char_traits@D@std@@V?$allocator@D@2@@std@@V?$shared_ptr@VScyjz14RawImageData@@@2@@std@@U?$pair@V?$basic_string@DU?$char_traits@D@std@@V?$allocator@D@2@@std@@V?$shared_ptr@VScyjz14RawImageData@@@2@@2@@?$_Default_allocator_traits@V?$allocator@U?$_Tree_node@U?$pair@$$CBV?$basic_string@DU?$char_traits@D@std@@V?$allocator@D@2@@std@@V?$shared_ptr@VScyjz14RawImageData@@@2@@std@@PAX@std@@@std@@@std@@SAXAAV?$allocator@U?$_Tree_node@U?$pair@$$CBV?$basic_string@DU?$char_traits@D@std@@V?$allocator@D@2@@std@@V?$shared_ptr@VScyjz14RawImageData@@@2@@std@@PAX@std@@@1@QAU?$pair@$$CBV?$basic_string@DU?$char_traits@D@std@@V?$allocator@D@2@@std@@V?$shared_ptr@VScyjz14RawImageData@@@2@@1@$$QAU?$pair@V?$basic_string@DU?$char_traits@D@std@@V?$allocator@D@2@@std@@V?$shared_ptr@VScyjz14RawImageData@@@2@@1@@Z 00427300 f i InstructionState.obj
 0001:00026350       ??$construct@U?$pair@$$CBV?$basic_string@DU?$char_traits@D@std@@V?$allocator@D@2@@std@@V?$weak_ptr@VScyjz14RawImageData@@@2@@std@@U?$pair@V?$basic_string@DU?$char_traits@D@std@@V?$allocator@D@2@@std@@V?$weak_ptr@VScyjz14RawImageData@@@2@@2@@?$_Default_allocator_traits@V?$allocator@U?$_Tree_node@U?$pair@$$CBV?$basic_string@DU?$char_traits@D@std@@V?$allocator@D@2@@std@@V?$weak_ptr@VScyjz14RawImageData@@@2@@std@@PAX@std@@@std@@@std@@SAXAAV?$allocator@U?$_Tree_node@U?$pair@$$CBV?$basic_string@DU?$char_traits@D@std@@V?$allocator@D@2@@std@@V?$weak_ptr@VScyjz14RawImageData@@@2@@std@@PAX@std@@@1@QAU?$pair@$$CBV?$basic_string@DU?$char_traits@D@std@@V?$allocator@D@2@@std@@V?$weak_ptr@VScyjz14RawImageData@@@2@@1@$$QAU?$pair@V?$basic_string@DU?$char_traits@D@std@@V?$allocator@D@2@@std@@V?$weak_ptr@VScyjz14RawImageData@@@2@@1@@Z 00427350 f i InstructionState.obj
 0001:000263a0       ??$destroy@U?$pair@$$CBV?$basic_string@DU?$char_traits@D@std@@V?$allocator@D@2@@std@@V?$shared_ptr@VScyjz14RawImageData@@@2@@std@@@?$_Default_allocator_traits@V?$allocator@U?$_Tree_node@U?$pair@$$CBV?$basic_string@DU?$char_traits@D@std@@V?$allocator@D@2@@std@@V?$shared_ptr@VScyjz14RawImageData@@@2@@std@@PAX@std@@@std@@@std@@SAXAAV?$allocator@U?$_Tree_node@U?$pair@$$CBV?$basic_string@DU?$char_traits@D@std@@V?$allocator@D@2@@std@@V?$shared_ptr@VScyjz14RawImageData@@@2@@std@@PAX@std@@@1@QAU?$pair@$$CBV?$basic_string@DU?$char_traits@D@std@@V?$allocator@D@2@@std@@V?$shared_ptr@VScyjz14RawImageData@@@2@@1@@Z 004273a0 f i InstructionState.obj
 0001:000263c0       ??$destroy@U?$pair@$$CBV?$basic_string@DU?$char_traits@D@std@@V?$allocator@D@2@@std@@V?$weak_ptr@VScyjz14RawImageData@@@2@@std@@@?$_Default_allocator_traits@V?$allocator@U?$_Tree_node@U?$pair@$$CBV?$basic_string@DU?$char_traits@D@std@@V?$allocator@D@2@@std@@V?$weak_ptr@VScyjz14RawImageData@@@2@@std@@PAX@std@@@std@@@std@@SAXAAV?$allocator@U?$_Tree_node@U?$pair@$$CBV?$basic_string@DU?$char_traits@D@std@@V?$allocator@D@2@@std@@V?$weak_ptr@VScyjz14RawImageData@@@2@@std@@PAX@std@@@1@QAU?$pair@$$CBV?$basic_string@DU?$char_traits@D@std@@V?$allocator@D@2@@std@@V?$weak_ptr@VScyjz14RawImageData@@@2@@1@@Z 004273c0 f i InstructionState.obj
 0001:000263e0       ??$emplace@U?$pair@V?$basic_string@DU?$char_traits@D@std@@V?$allocator@D@2@@std@@V?$shared_ptr@VScyjz14RawImageData@@@2@@std@@@?$_Tree@V?$_Tmap_traits@V?$basic_string@DU?$char_traits@D@std@@V?$allocator@D@2@@std@@V?$shared_ptr@VScyjz14RawImageData@@@2@U?$less@V?$basic_string@DU?$char_traits@D@std@@V?$allocator@D@2@@std@@@2@V?$allocator@U?$pair@$$CBV?$basic_string@DU?$char_traits@D@std@@V?$allocator@D@2@@std@@V?$shared_ptr@VScyjz14RawImageData@@@2@@std@@@2@$0A@@std@@@std@@QAE?AU?$pair@V?$_Tree_iterator@V?$_Tree_val@U?$_Tree_simple_types@U?$pair@$$CBV?$basic_string@DU?$char_traits@D@std@@V?$allocator@D@2@@std@@V?$shared_ptr@VScyjz14RawImageData@@@2@@std@@@std@@@std@@@std@@_N@1@$$QAU?$pair@V?$basic_string@DU?$char_traits@D@std@@V?$allocator@D@2@@std@@V?$shared_ptr@VScyjz14RawImageData@@@2@@1@@Z 004273e0 f i InstructionState.obj
 0001:00026470       ??$emplace@U?$pair@V?$basic_string@DU?$char_traits@D@std@@V?$allocator@D@2@@std@@V?$weak_ptr@VScyjz14RawImageData@@@2@@std@@@?$_Tree@V?$_Tmap_traits@V?$basic_string@DU?$char_traits@D@std@@V?$allocator@D@2@@std@@V?$weak_ptr@VScyjz14RawImageData@@@2@U?$less@V?$basic_string@DU?$char_traits@D@std@@V?$allocator@D@2@@std@@@2@V?$allocator@U?$pair@$$CBV?$basic_string@DU?$char_traits@D@std@@V?$allocator@D@2@@std@@V?$weak_ptr@VScyjz14RawImageData@@@2@@std@@@2@$0A@@std@@@std@@QAE?AU?$pair@V?$_Tree_iterator@V?$_Tree_val@U?$_Tree_simple_types@U?$pair@$$CBV?$basic_string@DU?$char_traits@D@std@@V?$allocator@D@2@@std@@V?$weak_ptr@VScyjz14RawImageData@@@2@@std@@@std@@@std@@@std@@_N@1@$$QAU?$pair@V?$basic_string@DU?$char_traits@D@std@@V?$allocator@D@2@@std@@V?$weak_ptr@VScyjz14RawImageData@@@2@@1@@Z 00427470 f i InstructionState.obj
 0001:00026500       ??$erase@V?$_Tree_iterator@V?$_Tree_val@U?$_Tree_simple_types@U?$pair@$$CBV?$basic_string@DU?$char_traits@D@std@@V?$allocator@D@2@@std@@V?$weak_ptr@VScyjz14RawImageData@@@2@@std@@@std@@@std@@@std@@$0A@@?$_Tree@V?$_Tmap_traits@V?$basic_string@DU?$char_traits@D@std@@V?$allocator@D@2@@std@@V?$weak_ptr@VScyjz14RawImageData@@@2@U?$less@V?$basic_string@DU?$char_traits@D@std@@V?$allocator@D@2@@std@@@2@V?$allocator@U?$pair@$$CBV?$basic_string@DU?$char_traits@D@std@@V?$allocator@D@2@@std@@V?$weak_ptr@VScyjz14RawImageData@@@2@@std@@@2@$0A@@std@@@std@@QAE?AV?$_Tree_iterator@V?$_Tree_val@U?$_Tree_simple_types@U?$pair@$$CBV?$basic_string@DU?$char_traits@D@std@@V?$allocator@D@2@@std@@V?$weak_ptr@VScyjz14RawImageData@@@2@@std@@@std@@@std@@@1@V21@@Z 00427500 f i InstructionState.obj
 0001:00026650       ??$exchange@PAU?$_Tree_node@U?$pair@$$CBV?$basic_string@DU?$char_traits@D@std@@V?$allocator@D@2@@std@@V?$shared_ptr@VScyjz14RawImageData@@@2@@std@@PAX@std@@$$T@std@@YAPAU?$_Tree_node@U?$pair@$$CBV?$basic_string@DU?$char_traits@D@std@@V?$allocator@D@2@@std@@V?$shared_ptr@VScyjz14RawImageData@@@2@@std@@PAX@0@AAPAU10@$$QA$$T@Z 00427650 f i InstructionState.obj
 0001:00026680       ??$exchange@PAU?$_Tree_node@U?$pair@$$CBV?$basic_string@DU?$char_traits@D@std@@V?$allocator@D@2@@std@@V?$weak_ptr@VScyjz14RawImageData@@@2@@std@@PAX@std@@$$T@std@@YAPAU?$_Tree_node@U?$pair@$$CBV?$basic_string@DU?$char_traits@D@std@@V?$allocator@D@2@@std@@V?$weak_ptr@VScyjz14RawImageData@@@2@@std@@PAX@0@AAPAU10@$$QA$$T@Z 00427680 f i InstructionState.obj
 0001:000266b0       ??$exchange@PAU?$_Tree_node@U?$pair@$$CBV?$basic_string@DU?$char_traits@D@std@@V?$allocator@D@2@@std@@V?$weak_ptr@VScyjz14RawImageData@@@2@@std@@PAX@std@@AAPAU12@@std@@YAPAU?$_Tree_node@U?$pair@$$CBV?$basic_string@DU?$char_traits@D@std@@V?$allocator@D@2@@std@@V?$weak_ptr@VScyjz14RawImageData@@@2@@std@@PAX@0@AAPAU10@0@Z 004276b0 f i InstructionState.obj
 0001:000266e0       ??$forward@AAPAU?$_Tree_node@U?$pair@$$CBV?$basic_string@DU?$char_traits@D@std@@V?$allocator@D@2@@std@@V?$shared_ptr@VScyjz14RawImageData@@@2@@std@@PAX@std@@@std@@YAAAPAU?$_Tree_node@U?$pair@$$CBV?$basic_string@DU?$char_traits@D@std@@V?$allocator@D@2@@std@@V?$shared_ptr@VScyjz14RawImageData@@@2@@std@@PAX@0@AAPAU10@@Z 004276e0 f i InstructionState.obj
 0001:000266f0       ??$forward@AAPAU?$_Tree_node@U?$pair@$$CBV?$basic_string@DU?$char_traits@D@std@@V?$allocator@D@2@@std@@V?$weak_ptr@VScyjz14RawImageData@@@2@@std@@PAX@std@@@std@@YAAAPAU?$_Tree_node@U?$pair@$$CBV?$basic_string@DU?$char_traits@D@std@@V?$allocator@D@2@@std@@V?$weak_ptr@VScyjz14RawImageData@@@2@@std@@PAX@0@AAPAU10@@Z 004276f0 f i InstructionState.obj
 0001:00026700       ??$forward@AAPAVScyjz14Engine@@@std@@YAAAPAVScyjz14Engine@@AAPAV1@@Z 00427700 f i InstructionState.obj
 0001:00026710       ??$forward@AAV?$shared_ptr@VScyjz14RawImageData@@@std@@@std@@YAAAV?$shared_ptr@VScyjz14RawImageData@@@0@AAV10@@Z 00427710 f i InstructionState.obj
 0001:00026720       ??$forward@AAV?$weak_ptr@VScyjz14RawImageData@@@std@@@std@@YAAAV?$weak_ptr@VScyjz14RawImageData@@@0@AAV10@@Z 00427720 f i InstructionState.obj
 0001:00026730       ??$forward@ABQAU?$_Tree_node@U?$pair@$$CBV?$basic_string@DU?$char_traits@D@std@@V?$allocator@D@2@@std@@V?$shared_ptr@VScyjz14RawImageData@@@2@@std@@PAX@std@@@std@@YAABQAU?$_Tree_node@U?$pair@$$CBV?$basic_string@DU?$char_traits@D@std@@V?$allocator@D@2@@std@@V?$shared_ptr@VScyjz14RawImageData@@@2@@std@@PAX@0@ABQAU10@@Z 00427730 f i InstructionState.obj
 0001:00026740       ??$forward@ABQAU?$_Tree_node@U?$pair@$$CBV?$basic_string@DU?$char_traits@D@std@@V?$allocator@D@2@@std@@V?$weak_ptr@VScyjz14RawImageData@@@2@@std@@PAX@std@@@std@@YAABQAU?$_Tree_node@U?$pair@$$CBV?$basic_string@DU?$char_traits@D@std@@V?$allocator@D@2@@std@@V?$weak_ptr@VScyjz14RawImageData@@@2@@std@@PAX@0@ABQAU10@@Z 00427740 f i InstructionState.obj
 0001:00026750       ??$forward@PAU?$_Tree_node@U?$pair@$$CBV?$basic_string@DU?$char_traits@D@std@@V?$allocator@D@2@@std@@V?$shared_ptr@VScyjz14RawImageData@@@2@@std@@PAX@std@@@std@@YA$$QAPAU?$_Tree_node@U?$pair@$$CBV?$basic_string@DU?$char_traits@D@std@@V?$allocator@D@2@@std@@V?$shared_ptr@VScyjz14RawImageData@@@2@@std@@PAX@0@AAPAU10@@Z 00427750 f i InstructionState.obj
 0001:00026760       ??$forward@PAU?$_Tree_node@U?$pair@$$CBV?$basic_string@DU?$char_traits@D@std@@V?$allocator@D@2@@std@@V?$weak_ptr@VScyjz14RawImageData@@@2@@std@@PAX@std@@@std@@YA$$QAPAU?$_Tree_node@U?$pair@$$CBV?$basic_string@DU?$char_traits@D@std@@V?$allocator@D@2@@std@@V?$weak_ptr@VScyjz14RawImageData@@@2@@std@@PAX@0@AAPAU10@@Z 00427760 f i InstructionState.obj
 0001:00026770       ??$forward@U?$pair@V?$basic_string@DU?$char_traits@D@std@@V?$allocator@D@2@@std@@V?$shared_ptr@VScyjz14RawImageData@@@2@@std@@@std@@YA$$QAU?$pair@V?$basic_string@DU?$char_traits@D@std@@V?$allocator@D@2@@std@@V?$shared_ptr@VScyjz14RawImageData@@@2@@0@AAU10@@Z 00427770 f i InstructionState.obj
 0001:00026780       ??$forward@U?$pair@V?$basic_string@DU?$char_traits@D@std@@V?$allocator@D@2@@std@@V?$weak_ptr@VScyjz14RawImageData@@@2@@std@@@std@@YA$$QAU?$pair@V?$basic_string@DU?$char_traits@D@std@@V?$allocator@D@2@@std@@V?$weak_ptr@VScyjz14RawImageData@@@2@@0@AAU10@@Z 00427780 f i InstructionState.obj
 0001:00026790       ??$forward@V?$_Tree_iterator@V?$_Tree_val@U?$_Tree_simple_types@U?$pair@$$CBV?$basic_string@DU?$char_traits@D@std@@V?$allocator@D@2@@std@@V?$shared_ptr@VScyjz14RawImageData@@@2@@std@@@std@@@std@@@std@@@std@@YA$$QAV?$_Tree_iterator@V?$_Tree_val@U?$_Tree_simple_types@U?$pair@$$CBV?$basic_string@DU?$char_traits@D@std@@V?$allocator@D@2@@std@@V?$shared_ptr@VScyjz14RawImageData@@@2@@std@@@std@@@std@@@0@AAV10@@Z 00427790 f i InstructionState.obj
 0001:000267a0       ??$forward@V?$_Tree_iterator@V?$_Tree_val@U?$_Tree_simple_types@U?$pair@$$CBV?$basic_string@DU?$char_traits@D@std@@V?$allocator@D@2@@std@@V?$weak_ptr@VScyjz14RawImageData@@@2@@std@@@std@@@std@@@std@@@std@@YA$$QAV?$_Tree_iterator@V?$_Tree_val@U?$_Tree_simple_types@U?$pair@$$CBV?$basic_string@DU?$char_traits@D@std@@V?$allocator@D@2@@std@@V?$weak_ptr@VScyjz14RawImageData@@@2@@std@@@std@@@std@@@0@AAV10@@Z 004277a0 f i InstructionState.obj
 0001:000267b0       ??$forward@V?$shared_ptr@VScyjz14RawImageData@@@std@@@std@@YA$$QAV?$shared_ptr@VScyjz14RawImageData@@@0@AAV10@@Z 004277b0 f i InstructionState.obj
 0001:000267c0       ??$forward@V?$weak_ptr@VScyjz14RawImageData@@@std@@@std@@YA$$QAV?$weak_ptr@VScyjz14RawImageData@@@0@AAV10@@Z 004277c0 f i InstructionState.obj
 0001:000267d0       ??$insert@U?$pair@V?$basic_string@DU?$char_traits@D@std@@V?$allocator@D@2@@std@@V?$shared_ptr@VScyjz14RawImageData@@@2@@std@@$0A@@?$map@V?$basic_string@DU?$char_traits@D@std@@V?$allocator@D@2@@std@@V?$shared_ptr@VScyjz14RawImageData@@@2@U?$less@V?$basic_string@DU?$char_traits@D@std@@V?$allocator@D@2@@std@@@2@V?$allocator@U?$pair@$$CBV?$basic_string@DU?$char_traits@D@std@@V?$allocator@D@2@@std@@V?$shared_ptr@VScyjz14RawImageData@@@2@@std@@@2@@std@@QAE?AU?$pair@V?$_Tree_iterator@V?$_Tree_val@U?$_Tree_simple_types@U?$pair@$$CBV?$basic_string@DU?$char_traits@D@std@@V?$allocator@D@2@@std@@V?$shared_ptr@VScyjz14RawImageData@@@2@@std@@@std@@@std@@@std@@_N@1@$$QAU?$pair@V?$basic_string@DU?$char_traits@D@std@@V?$allocator@D@2@@std@@V?$shared_ptr@VScyjz14RawImageData@@@2@@1@@Z 004277d0 f i InstructionState.obj
 0001:00026820       ??$insert@U?$pair@V?$basic_string@DU?$char_traits@D@std@@V?$allocator@D@2@@std@@V?$weak_ptr@VScyjz14RawImageData@@@2@@std@@$0A@@?$map@V?$basic_string@DU?$char_traits@D@std@@V?$allocator@D@2@@std@@V?$weak_ptr@VScyjz14RawImageData@@@2@U?$less@V?$basic_string@DU?$char_traits@D@std@@V?$allocator@D@2@@std@@@2@V?$allocator@U?$pair@$$CBV?$basic_string@DU?$char_traits@D@std@@V?$allocator@D@2@@std@@V?$weak_ptr@VScyjz14RawImageData@@@2@@std@@@2@@std@@QAE?AU?$pair@V?$_Tree_iterator@V?$_Tree_val@U?$_Tree_simple_types@U?$pair@$$CBV?$basic_string@DU?$char_traits@D@std@@V?$allocator@D@2@@std@@V?$weak_ptr@VScyjz14RawImageData@@@2@@std@@@std@@@std@@@std@@_N@1@$$QAU?$pair@V?$basic_string@DU?$char_traits@D@std@@V?$allocator@D@2@@std@@V?$weak_ptr@VScyjz14RawImageData@@@2@@1@@Z 00427820 f i InstructionState.obj
 0001:00026870       ??$make_shared@VRunningState@@AAPAVScyjz14Engine@@@std@@YA?AV?$shared_ptr@VRunningState@@@0@AAPAVScyjz14Engine@@@Z 00427870 f i InstructionState.obj
 0001:00026970       ??$make_shared@VStartUpState@@AAPAVScyjz14Engine@@@std@@YA?AV?$shared_ptr@VStartUpState@@@0@AAPAVScyjz14Engine@@@Z 00427970 f i InstructionState.obj
 0001:00026a70       ??$move@AAPAVRawImageData@@@std@@YA$$QAPAVRawImageData@@AAPAV1@@Z 00427a70 f i InstructionState.obj
 0001:00026a80       ??$move@AAPAVRunningState@@@std@@YA$$QAPAVRunningState@@AAPAV1@@Z 00427a80 f i InstructionState.obj
 0001:00026a90       ??$move@AAPAVScyjz14RawImageData@@@std@@YA$$QAPAVScyjz14RawImageData@@AAPAV1@@Z 00427a90 f i InstructionState.obj
 0001:00026aa0       ??$move@AAPAV_Ref_count_base@std@@@std@@YA$$QAPAV_Ref_count_base@0@AAPAV10@@Z 00427aa0 f i InstructionState.obj
 0001:00026ab0       ??$move@AAV?$shared_ptr@VRunningState@@@std@@@std@@YA$$QAV?$shared_ptr@VRunningState@@@0@AAV10@@Z 00427ab0 f i InstructionState.obj
 0001:00026ac0       ??$move@AAV?$shared_ptr@VScyjz14RawImageData@@@std@@@std@@YA$$QAV?$shared_ptr@VScyjz14RawImageData@@@0@AAV10@@Z 00427ac0 f i InstructionState.obj
 0001:00026ad0       ??$move@AAV?$shared_ptr@VStartUpState@@@std@@@std@@YA$$QAV?$shared_ptr@VStartUpState@@@0@AAV10@@Z 00427ad0 f i InstructionState.obj
 0001:00026ae0       ??$move@AAV?$weak_ptr@VScyjz14RawImageData@@@std@@@std@@YA$$QAV?$weak_ptr@VScyjz14RawImageData@@@0@AAV10@@Z 00427ae0 f i InstructionState.obj
 0001:00026af0       ??$swap@PAVRawImageData@@$0A@@std@@YAXAAPAVRawImageData@@0@Z 00427af0 f i InstructionState.obj
 0001:00026b40       ??$swap@PAVRunningState@@$0A@@std@@YAXAAPAVRunningState@@0@Z 00427b40 f i InstructionState.obj
 0001:00026b90       ??$swap@PAVScyjz14RawImageData@@$0A@@std@@YAXAAPAVScyjz14RawImageData@@0@Z 00427b90 f i InstructionState.obj
 0001:00026be0       ??$swap@PAV_Ref_count_base@std@@$0A@@std@@YAXAAPAV_Ref_count_base@0@0@Z 00427be0 f i InstructionState.obj
 0001:00026c30       ??0?$_Alloc_construct_ptr@V?$allocator@U?$_Tree_node@U?$pair@$$CBV?$basic_string@DU?$char_traits@D@std@@V?$allocator@D@2@@std@@V?$shared_ptr@VScyjz14RawImageData@@@2@@std@@PAX@std@@@std@@@std@@QAE@AAV?$allocator@U?$_Tree_node@U?$pair@$$CBV?$basic_string@DU?$char_traits@D@std@@V?$allocator@D@2@@std@@V?$shared_ptr@VScyjz14RawImageData@@@2@@std@@PAX@std@@@1@@Z 00427c30 f i InstructionState.obj
 0001:00026c60       ??0?$_Alloc_construct_ptr@V?$allocator@U?$_Tree_node@U?$pair@$$CBV?$basic_string@DU?$char_traits@D@std@@V?$allocator@D@2@@std@@V?$weak_ptr@VScyjz14RawImageData@@@2@@std@@PAX@std@@@std@@@std@@QAE@AAV?$allocator@U?$_Tree_node@U?$pair@$$CBV?$basic_string@DU?$char_traits@D@std@@V?$allocator@D@2@@std@@V?$weak_ptr@VScyjz14RawImageData@@@2@@std@@PAX@std@@@1@@Z 00427c60 f i InstructionState.obj
 0001:00026c90       ??0?$_Ptr_base@VRunningState@@@std@@IAE@XZ 00427c90 f i InstructionState.obj
 0001:00026cc0       ??0?$_Ptr_base@VStartUpState@@@std@@IAE@XZ 00427cc0 f i InstructionState.obj
 0001:00026cf0       ??0?$_Ref_count@VScyjz14RawImageData@@@std@@QAE@PAVScyjz14RawImageData@@@Z 00427cf0 f i InstructionState.obj
 0001:00026d40       ??0?$_Temporary_owner@VScyjz14RawImageData@@@std@@QAE@QAVScyjz14RawImageData@@@Z 00427d40 f i InstructionState.obj
 0001:00026d60       ??0?$_Tree@V?$_Tmap_traits@V?$basic_string@DU?$char_traits@D@std@@V?$allocator@D@2@@std@@V?$shared_ptr@VScyjz14RawImageData@@@2@U?$less@V?$basic_string@DU?$char_traits@D@std@@V?$allocator@D@2@@std@@@2@V?$allocator@U?$pair@$$CBV?$basic_string@DU?$char_traits@D@std@@V?$allocator@D@2@@std@@V?$shared_ptr@VScyjz14RawImageData@@@2@@std@@@2@$0A@@std@@@std@@QAE@ABU?$less@V?$basic_string@DU?$char_traits@D@std@@V?$allocator@D@2@@std@@@1@@Z 00427d60 f i InstructionState.obj
 0001:00026da0       ??0?$_Tree@V?$_Tmap_traits@V?$basic_string@DU?$char_traits@D@std@@V?$allocator@D@2@@std@@V?$weak_ptr@VScyjz14RawImageData@@@2@U?$less@V?$basic_string@DU?$char_traits@D@std@@V?$allocator@D@2@@std@@@2@V?$allocator@U?$pair@$$CBV?$basic_string@DU?$char_traits@D@std@@V?$allocator@D@2@@std@@V?$weak_ptr@VScyjz14RawImageData@@@2@@std@@@2@$0A@@std@@@std@@QAE@ABU?$less@V?$basic_string@DU?$char_traits@D@std@@V?$allocator@D@2@@std@@@1@@Z 00427da0 f i InstructionState.obj
 0001:00026de0       ??0?$_Tree_const_iterator@V?$_Tree_val@U?$_Tree_simple_types@U?$pair@$$CBV?$basic_string@DU?$char_traits@D@std@@V?$allocator@D@2@@std@@V?$shared_ptr@VScyjz14RawImageData@@@2@@std@@@std@@@std@@@std@@QAE@$$QAV01@@Z 00427de0 f i InstructionState.obj
 0001:00026e10       ??0?$_Tree_const_iterator@V?$_Tree_val@U?$_Tree_simple_types@U?$pair@$$CBV?$basic_string@DU?$char_traits@D@std@@V?$allocator@D@2@@std@@V?$shared_ptr@VScyjz14RawImageData@@@2@@std@@@std@@@std@@@std@@QAE@PAU?$_Tree_node@U?$pair@$$CBV?$basic_string@DU?$char_traits@D@std@@V?$allocator@D@2@@std@@V?$shared_ptr@VScyjz14RawImageData@@@2@@std@@PAX@1@PBV?$_Tree_val@U?$_Tree_simple_types@U?$pair@$$CBV?$basic_string@DU?$char_traits@D@std@@V?$allocator@D@2@@std@@V?$shared_ptr@VScyjz14RawImageData@@@2@@std@@@std@@@1@@Z 00427e10 f i InstructionState.obj
 0001:00026e40       ??0?$_Tree_const_iterator@V?$_Tree_val@U?$_Tree_simple_types@U?$pair@$$CBV?$basic_string@DU?$char_traits@D@std@@V?$allocator@D@2@@std@@V?$weak_ptr@VScyjz14RawImageData@@@2@@std@@@std@@@std@@@std@@QAE@$$QAV01@@Z 00427e40 f i InstructionState.obj
 0001:00026e70       ??0?$_Tree_const_iterator@V?$_Tree_val@U?$_Tree_simple_types@U?$pair@$$CBV?$basic_string@DU?$char_traits@D@std@@V?$allocator@D@2@@std@@V?$weak_ptr@VScyjz14RawImageData@@@2@@std@@@std@@@std@@@std@@QAE@ABV01@@Z 00427e70 f i InstructionState.obj
 0001:00026ea0       ??0?$_Tree_const_iterator@V?$_Tree_val@U?$_Tree_simple_types@U?$pair@$$CBV?$basic_string@DU?$char_traits@D@std@@V?$allocator@D@2@@std@@V?$weak_ptr@VScyjz14RawImageData@@@2@@std@@@std@@@std@@@std@@QAE@PAU?$_Tree_node@U?$pair@$$CBV?$basic_string@DU?$char_traits@D@std@@V?$allocator@D@2@@std@@V?$weak_ptr@VScyjz14RawImageData@@@2@@std@@PAX@1@PBV?$_Tree_val@U?$_Tree_simple_types@U?$pair@$$CBV?$basic_string@DU?$char_traits@D@std@@V?$allocator@D@2@@std@@V?$weak_ptr@VScyjz14RawImageData@@@2@@std@@@std@@@1@@Z 00427ea0 f i InstructionState.obj
 0001:00026ed0       ??0?$_Tree_iterator@V?$_Tree_val@U?$_Tree_simple_types@U?$pair@$$CBV?$basic_string@DU?$char_traits@D@std@@V?$allocator@D@2@@std@@V?$shared_ptr@VScyjz14RawImageData@@@2@@std@@@std@@@std@@@std@@QAE@$$QAV01@@Z 00427ed0 f i InstructionState.obj
 0001:00026f00       ??0?$_Tree_iterator@V?$_Tree_val@U?$_Tree_simple_types@U?$pair@$$CBV?$basic_string@DU?$char_traits@D@std@@V?$allocator@D@2@@std@@V?$shared_ptr@VScyjz14RawImageData@@@2@@std@@@std@@@std@@@std@@QAE@PAU?$_Tree_node@U?$pair@$$CBV?$basic_string@DU?$char_traits@D@std@@V?$allocator@D@2@@std@@V?$shared_ptr@VScyjz14RawImageData@@@2@@std@@PAX@1@PBV?$_Tree_val@U?$_Tree_simple_types@U?$pair@$$CBV?$basic_string@DU?$char_traits@D@std@@V?$allocator@D@2@@std@@V?$shared_ptr@VScyjz14RawImageData@@@2@@std@@@std@@@1@@Z 00427f00 f i InstructionState.obj
 0001:00026f30       ??0?$_Tree_iterator@V?$_Tree_val@U?$_Tree_simple_types@U?$pair@$$CBV?$basic_string@DU?$char_traits@D@std@@V?$allocator@D@2@@std@@V?$weak_ptr@VScyjz14RawImageData@@@2@@std@@@std@@@std@@@std@@QAE@$$QAV01@@Z 00427f30 f i InstructionState.obj
 0001:00026f60       ??0?$_Tree_iterator@V?$_Tree_val@U?$_Tree_simple_types@U?$pair@$$CBV?$basic_string@DU?$char_traits@D@std@@V?$allocator@D@2@@std@@V?$weak_ptr@VScyjz14RawImageData@@@2@@std@@@std@@@std@@@std@@QAE@ABV01@@Z 00427f60 f i InstructionState.obj
 0001:00026f90       ??0?$_Tree_iterator@V?$_Tree_val@U?$_Tree_simple_types@U?$pair@$$CBV?$basic_string@DU?$char_traits@D@std@@V?$allocator@D@2@@std@@V?$weak_ptr@VScyjz14RawImageData@@@2@@std@@@std@@@std@@@std@@QAE@PAU?$_Tree_node@U?$pair@$$CBV?$basic_string@DU?$char_traits@D@std@@V?$allocator@D@2@@std@@V?$weak_ptr@VScyjz14RawImageData@@@2@@std@@PAX@1@PBV?$_Tree_val@U?$_Tree_simple_types@U?$pair@$$CBV?$basic_string@DU?$char_traits@D@std@@V?$allocator@D@2@@std@@V?$weak_ptr@VScyjz14RawImageData@@@2@@std@@@std@@@1@@Z 00427f90 f i InstructionState.obj
 0001:00026fc0       ??0?$_Tree_temp_node_alloc@V?$allocator@U?$_Tree_node@U?$pair@$$CBV?$basic_string@DU?$char_traits@D@std@@V?$allocator@D@2@@std@@V?$shared_ptr@VScyjz14RawImageData@@@2@@std@@PAX@std@@@std@@@std@@QAE@AAV?$allocator@U?$_Tree_node@U?$pair@$$CBV?$basic_string@DU?$char_traits@D@std@@V?$allocator@D@2@@std@@V?$shared_ptr@VScyjz14RawImageData@@@2@@std@@PAX@std@@@1@@Z 00427fc0 f i InstructionState.obj
 0001:00027040       ??0?$_Tree_temp_node_alloc@V?$allocator@U?$_Tree_node@U?$pair@$$CBV?$basic_string@DU?$char_traits@D@std@@V?$allocator@D@2@@std@@V?$weak_ptr@VScyjz14RawImageData@@@2@@std@@PAX@std@@@std@@@std@@QAE@AAV?$allocator@U?$_Tree_node@U?$pair@$$CBV?$basic_string@DU?$char_traits@D@std@@V?$allocator@D@2@@std@@V?$weak_ptr@VScyjz14RawImageData@@@2@@std@@PAX@std@@@1@@Z 00428040 f i InstructionState.obj
 0001:000270c0       ??0?$_Tree_unchecked_const_iterator@V?$_Tree_val@U?$_Tree_simple_types@U?$pair@$$CBV?$basic_string@DU?$char_traits@D@std@@V?$allocator@D@2@@std@@V?$shared_ptr@VScyjz14RawImageData@@@2@@std@@@std@@@std@@U_Iterator_base12@2@@std@@QAE@$$QAV01@@Z 004280c0 f i InstructionState.obj
 0001:00027100       ??0?$_Tree_unchecked_const_iterator@V?$_Tree_val@U?$_Tree_simple_types@U?$pair@$$CBV?$basic_string@DU?$char_traits@D@std@@V?$allocator@D@2@@std@@V?$shared_ptr@VScyjz14RawImageData@@@2@@std@@@std@@@std@@U_Iterator_base12@2@@std@@QAE@PAU?$_Tree_node@U?$pair@$$CBV?$basic_string@DU?$char_traits@D@std@@V?$allocator@D@2@@std@@V?$shared_ptr@VScyjz14RawImageData@@@2@@std@@PAX@1@PBV?$_Tree_val@U?$_Tree_simple_types@U?$pair@$$CBV?$basic_string@DU?$char_traits@D@std@@V?$allocator@D@2@@std@@V?$shared_ptr@VScyjz14RawImageData@@@2@@std@@@std@@@1@@Z 00428100 f i InstructionState.obj
 0001:00027140       ??0?$_Tree_unchecked_const_iterator@V?$_Tree_val@U?$_Tree_simple_types@U?$pair@$$CBV?$basic_string@DU?$char_traits@D@std@@V?$allocator@D@2@@std@@V?$weak_ptr@VScyjz14RawImageData@@@2@@std@@@std@@@std@@U_Iterator_base0@2@@std@@QAE@PAU?$_Tree_node@U?$pair@$$CBV?$basic_string@DU?$char_traits@D@std@@V?$allocator@D@2@@std@@V?$weak_ptr@VScyjz14RawImageData@@@2@@std@@PAX@1@PBV?$_Tree_val@U?$_Tree_simple_types@U?$pair@$$CBV?$basic_string@DU?$char_traits@D@std@@V?$allocator@D@2@@std@@V?$weak_ptr@VScyjz14RawImageData@@@2@@std@@@std@@@1@@Z 00428140 f i InstructionState.obj
 0001:00027170       ??0?$_Tree_unchecked_const_iterator@V?$_Tree_val@U?$_Tree_simple_types@U?$pair@$$CBV?$basic_string@DU?$char_traits@D@std@@V?$allocator@D@2@@std@@V?$weak_ptr@VScyjz14RawImageData@@@2@@std@@@std@@@std@@U_Iterator_base12@2@@std@@QAE@$$QAV01@@Z 00428170 f i InstructionState.obj
 0001:000271b0       ??0?$_Tree_unchecked_const_iterator@V?$_Tree_val@U?$_Tree_simple_types@U?$pair@$$CBV?$basic_string@DU?$char_traits@D@std@@V?$allocator@D@2@@std@@V?$weak_ptr@VScyjz14RawImageData@@@2@@std@@@std@@@std@@U_Iterator_base12@2@@std@@QAE@ABV01@@Z 004281b0 f i InstructionState.obj
 0001:000271f0       ??0?$_Tree_unchecked_const_iterator@V?$_Tree_val@U?$_Tree_simple_types@U?$pair@$$CBV?$basic_string@DU?$char_traits@D@std@@V?$allocator@D@2@@std@@V?$weak_ptr@VScyjz14RawImageData@@@2@@std@@@std@@@std@@U_Iterator_base12@2@@std@@QAE@PAU?$_Tree_node@U?$pair@$$CBV?$basic_string@DU?$char_traits@D@std@@V?$allocator@D@2@@std@@V?$weak_ptr@VScyjz14RawImageData@@@2@@std@@PAX@1@PBV?$_Tree_val@U?$_Tree_simple_types@U?$pair@$$CBV?$basic_string@DU?$char_traits@D@std@@V?$allocator@D@2@@std@@V?$weak_ptr@VScyjz14RawImageData@@@2@@std@@@std@@@1@@Z 004281f0 f i InstructionState.obj
 0001:00027230       ??0?$_Tree_unchecked_iterator@V?$_Tree_val@U?$_Tree_simple_types@U?$pair@$$CBV?$basic_string@DU?$char_traits@D@std@@V?$allocator@D@2@@std@@V?$weak_ptr@VScyjz14RawImageData@@@2@@std@@@std@@@std@@@std@@QAE@PAU?$_Tree_node@U?$pair@$$CBV?$basic_string@DU?$char_traits@D@std@@V?$allocator@D@2@@std@@V?$weak_ptr@VScyjz14RawImageData@@@2@@std@@PAX@1@PBV?$_Tree_val@U?$_Tree_simple_types@U?$pair@$$CBV?$basic_string@DU?$char_traits@D@std@@V?$allocator@D@2@@std@@V?$weak_ptr@VScyjz14RawImageData@@@2@@std@@@std@@@1@@Z 00428230 f i InstructionState.obj
 0001:00027260       ??0?$_Tree_val@U?$_Tree_simple_types@U?$pair@$$CBV?$basic_string@DU?$char_traits@D@std@@V?$allocator@D@2@@std@@V?$shared_ptr@VScyjz14RawImageData@@@2@@std@@@std@@@std@@QAE@XZ 00428260 f i InstructionState.obj
 0001:000272a0       ??0?$_Tree_val@U?$_Tree_simple_types@U?$pair@$$CBV?$basic_string@DU?$char_traits@D@std@@V?$allocator@D@2@@std@@V?$weak_ptr@VScyjz14RawImageData@@@2@@std@@@std@@@std@@QAE@XZ 004282a0 f i InstructionState.obj
 0001:000272e0       ??0?$allocator@U?$_Tree_node@U?$pair@$$CBV?$basic_string@DU?$char_traits@D@std@@V?$allocator@D@2@@std@@V?$shared_ptr@VScyjz14RawImageData@@@2@@std@@PAX@std@@@std@@QAE@XZ 004282e0 f i InstructionState.obj
 0001:00027300       ??0?$allocator@U?$_Tree_node@U?$pair@$$CBV?$basic_string@DU?$char_traits@D@std@@V?$allocator@D@2@@std@@V?$weak_ptr@VScyjz14RawImageData@@@2@@std@@PAX@std@@@std@@QAE@XZ 00428300 f i InstructionState.obj
 0001:00027320       ??0?$enable_shared_from_this@VRunningState@@@std@@IAE@XZ 00428320 f i InstructionState.obj
 0001:00027340       ??0?$map@V?$basic_string@DU?$char_traits@D@std@@V?$allocator@D@2@@std@@V?$shared_ptr@VScyjz14RawImageData@@@2@U?$less@V?$basic_string@DU?$char_traits@D@std@@V?$allocator@D@2@@std@@@2@V?$allocator@U?$pair@$$CBV?$basic_string@DU?$char_traits@D@std@@V?$allocator@D@2@@std@@V?$shared_ptr@VScyjz14RawImageData@@@2@@std@@@2@@std@@QAE@XZ 00428340 f i InstructionState.obj
 0001:00027370       ??0?$map@V?$basic_string@DU?$char_traits@D@std@@V?$allocator@D@2@@std@@V?$weak_ptr@VScyjz14RawImageData@@@2@U?$less@V?$basic_string@DU?$char_traits@D@std@@V?$allocator@D@2@@std@@@2@V?$allocator@U?$pair@$$CBV?$basic_string@DU?$char_traits@D@std@@V?$allocator@D@2@@std@@V?$weak_ptr@VScyjz14RawImageData@@@2@@std@@@2@@std@@QAE@XZ 00428370 f i InstructionState.obj
 0001:000273a0       ??0?$shared_ptr@VRunningState@@@std@@QAE@$$QAV01@@Z 004283a0 f i InstructionState.obj
 0001:000273e0       ??0?$shared_ptr@VRunningState@@@std@@QAE@XZ 004283e0 f i InstructionState.obj
 0001:00027400       ??0?$shared_ptr@VScyjz14RawImageData@@@std@@QAE@$$QAV01@@Z 00428400 f i InstructionState.obj
 0001:00027440       ??0?$shared_ptr@VScyjz14RawImageData@@@std@@QAE@$$T@Z 00428440 f i InstructionState.obj
 0001:00027460       ??0?$shared_ptr@VScyjz14RawImageData@@@std@@QAE@XZ 00428460 f i InstructionState.obj
 0001:00027480       ??0?$shared_ptr@VStartUpState@@@std@@QAE@$$QAV01@@Z 00428480 f i InstructionState.obj
 0001:000274c0       ??0?$shared_ptr@VStartUpState@@@std@@QAE@XZ 004284c0 f i InstructionState.obj
 0001:000274e0       ??0?$weak_ptr@VRunningState@@@std@@QAE@XZ 004284e0 f i InstructionState.obj
 0001:00027500       ??0?$weak_ptr@VScyjz14RawImageData@@@std@@QAE@$$QAV01@@Z 00428500 f i InstructionState.obj
 0001:00027540       ??0?$weak_ptr@VScyjz14RawImageData@@@std@@QAE@ABV01@@Z 00428540 f i InstructionState.obj
 0001:00027570       ??0Button@@QAE@HHPAVBaseEngine@@V?$basic_string@DU?$char_traits@D@std@@V?$allocator@D@2@@std@@_N2@Z 00428570 f i InstructionState.obj
 0001:00027660       ??0RunningState@@QAE@PAVScyjz14Engine@@H_N@Z 00428660 f i InstructionState.obj
 0001:000276d0       ??0Scyjz14Image@@QAE@XZ    004286d0 f i InstructionState.obj
 0001:00027700       ??0Scyjz14ImageManager@@QAE@XZ 00428700 f i InstructionState.obj
 0001:00027770       ??0Scyjz14ImageObject@@QAE@HHPAVBaseEngine@@V?$basic_string@DU?$char_traits@D@std@@V?$allocator@D@2@@std@@_N2@Z 00428770 f i InstructionState.obj
 0001:00027900       ??0Scyjz14RawImageData@@QAE@V?$basic_string@DU?$char_traits@D@std@@V?$allocator@D@2@@std@@@Z 00428900 f i InstructionState.obj
 0001:00027990       ??0StartUpState@@QAE@PAVScyjz14Engine@@@Z 00428990 f i InstructionState.obj
 0001:000279c0       ??0State@@QAE@PAVScyjz14Engine@@@Z 004289c0 f i InstructionState.obj
 0001:000279f0       ??1?$_Alloc_construct_ptr@V?$allocator@U?$_Tree_node@U?$pair@$$CBV?$basic_string@DU?$char_traits@D@std@@V?$allocator@D@2@@std@@V?$shared_ptr@VScyjz14RawImageData@@@2@@std@@PAX@std@@@std@@@std@@QAE@XZ 004289f0 f i InstructionState.obj
 0001:00027a60       ??1?$_Alloc_construct_ptr@V?$allocator@U?$_Tree_node@U?$pair@$$CBV?$basic_string@DU?$char_traits@D@std@@V?$allocator@D@2@@std@@V?$weak_ptr@VScyjz14RawImageData@@@2@@std@@PAX@std@@@std@@@std@@QAE@XZ 00428a60 f i InstructionState.obj
 0001:00027ad0       ??1?$_Ref_count@VScyjz14RawImageData@@@std@@UAE@XZ 00428ad0 f i InstructionState.obj
 0001:00027af0       ??1?$_Ref_count_obj2@VRunningState@@@std@@UAE@XZ 00428af0 f i InstructionState.obj
 0001:00027b20       ??1?$_Ref_count_obj2@VStartUpState@@@std@@UAE@XZ 00428b20 f i InstructionState.obj
 0001:00027b50       ??1?$_Temporary_owner@VScyjz14RawImageData@@@std@@QAE@XZ 00428b50 f i InstructionState.obj
 0001:00027b90       ??1?$_Tree@V?$_Tmap_traits@V?$basic_string@DU?$char_traits@D@std@@V?$allocator@D@2@@std@@V?$weak_ptr@VScyjz14RawImageData@@@2@U?$less@V?$basic_string@DU?$char_traits@D@std@@V?$allocator@D@2@@std@@@2@V?$allocator@U?$pair@$$CBV?$basic_string@DU?$char_traits@D@std@@V?$allocator@D@2@@std@@V?$weak_ptr@VScyjz14RawImageData@@@2@@std@@@2@$0A@@std@@@std@@QAE@XZ 00428b90 f i InstructionState.obj
 0001:00027c00       ??1?$_Tree_const_iterator@V?$_Tree_val@U?$_Tree_simple_types@U?$pair@$$CBV?$basic_string@DU?$char_traits@D@std@@V?$allocator@D@2@@std@@V?$shared_ptr@VScyjz14RawImageData@@@2@@std@@@std@@@std@@@std@@QAE@XZ 00428c00 f i InstructionState.obj
 0001:00027c20       ??1?$_Tree_const_iterator@V?$_Tree_val@U?$_Tree_simple_types@U?$pair@$$CBV?$basic_string@DU?$char_traits@D@std@@V?$allocator@D@2@@std@@V?$weak_ptr@VScyjz14RawImageData@@@2@@std@@@std@@@std@@@std@@QAE@XZ 00428c20 f i InstructionState.obj
 0001:00027c40       ??1?$_Tree_iterator@V?$_Tree_val@U?$_Tree_simple_types@U?$pair@$$CBV?$basic_string@DU?$char_traits@D@std@@V?$allocator@D@2@@std@@V?$shared_ptr@VScyjz14RawImageData@@@2@@std@@@std@@@std@@@std@@QAE@XZ 00428c40 f i InstructionState.obj
 0001:00027c60       ??1?$_Tree_iterator@V?$_Tree_val@U?$_Tree_simple_types@U?$pair@$$CBV?$basic_string@DU?$char_traits@D@std@@V?$allocator@D@2@@std@@V?$weak_ptr@VScyjz14RawImageData@@@2@@std@@@std@@@std@@@std@@QAE@XZ 00428c60 f i InstructionState.obj
 0001:00027c80       ??1?$_Tree_temp_node@V?$allocator@U?$_Tree_node@U?$pair@$$CBV?$basic_string@DU?$char_traits@D@std@@V?$allocator@D@2@@std@@V?$shared_ptr@VScyjz14RawImageData@@@2@@std@@PAX@std@@@std@@@std@@QAE@XZ 00428c80 f i InstructionState.obj
 0001:00027d50       ??1?$_Tree_temp_node@V?$allocator@U?$_Tree_node@U?$pair@$$CBV?$basic_string@DU?$char_traits@D@std@@V?$allocator@D@2@@std@@V?$weak_ptr@VScyjz14RawImageData@@@2@@std@@PAX@std@@@std@@@std@@QAE@XZ 00428d50 f i InstructionState.obj
 0001:00027e20       ??1?$_Tree_temp_node_alloc@V?$allocator@U?$_Tree_node@U?$pair@$$CBV?$basic_string@DU?$char_traits@D@std@@V?$allocator@D@2@@std@@V?$shared_ptr@VScyjz14RawImageData@@@2@@std@@PAX@std@@@std@@@std@@QAE@XZ 00428e20 f i InstructionState.obj
 0001:00027e40       ??1?$_Tree_temp_node_alloc@V?$allocator@U?$_Tree_node@U?$pair@$$CBV?$basic_string@DU?$char_traits@D@std@@V?$allocator@D@2@@std@@V?$weak_ptr@VScyjz14RawImageData@@@2@@std@@PAX@std@@@std@@@std@@QAE@XZ 00428e40 f i InstructionState.obj
 0001:00027e60       ??1?$_Tree_unchecked_const_iterator@V?$_Tree_val@U?$_Tree_simple_types@U?$pair@$$CBV?$basic_string@DU?$char_traits@D@std@@V?$allocator@D@2@@std@@V?$shared_ptr@VScyjz14RawImageData@@@2@@std@@@std@@@std@@U_Iterator_base12@2@@std@@QAE@XZ 00428e60 f i InstructionState.obj
 0001:00027e80       ??1?$_Tree_unchecked_const_iterator@V?$_Tree_val@U?$_Tree_simple_types@U?$pair@$$CBV?$basic_string@DU?$char_traits@D@std@@V?$allocator@D@2@@std@@V?$weak_ptr@VScyjz14RawImageData@@@2@@std@@@std@@@std@@U_Iterator_base12@2@@std@@QAE@XZ 00428e80 f i InstructionState.obj
 0001:00027ea0       ??1?$map@V?$basic_string@DU?$char_traits@D@std@@V?$allocator@D@2@@std@@V?$weak_ptr@VScyjz14RawImageData@@@2@U?$less@V?$basic_string@DU?$char_traits@D@std@@V?$allocator@D@2@@std@@@2@V?$allocator@U?$pair@$$CBV?$basic_string@DU?$char_traits@D@std@@V?$allocator@D@2@@std@@V?$weak_ptr@VScyjz14RawImageData@@@2@@std@@@2@@std@@QAE@XZ 00428ea0 f i InstructionState.obj
 0001:00027ec0       ??1?$pair@$$CBV?$basic_string@DU?$char_traits@D@std@@V?$allocator@D@2@@std@@V?$shared_ptr@VScyjz14RawImageData@@@2@@std@@QAE@XZ 00428ec0 f i InstructionState.obj
 0001:00027ef0       ??1?$pair@$$CBV?$basic_string@DU?$char_traits@D@std@@V?$allocator@D@2@@std@@V?$weak_ptr@VScyjz14RawImageData@@@2@@std@@QAE@XZ 00428ef0 f i InstructionState.obj
 0001:00027f20       ??1?$pair@V?$_Tree_iterator@V?$_Tree_val@U?$_Tree_simple_types@U?$pair@$$CBV?$basic_string@DU?$char_traits@D@std@@V?$allocator@D@2@@std@@V?$shared_ptr@VScyjz14RawImageData@@@2@@std@@@std@@@std@@@std@@_N@std@@QAE@XZ 00428f20 f i InstructionState.obj
 0001:00027f40       ??1?$pair@V?$_Tree_iterator@V?$_Tree_val@U?$_Tree_simple_types@U?$pair@$$CBV?$basic_string@DU?$char_traits@D@std@@V?$allocator@D@2@@std@@V?$weak_ptr@VScyjz14RawImageData@@@2@@std@@@std@@@std@@@std@@_N@std@@QAE@XZ 00428f40 f i InstructionState.obj
 0001:00027f60       ??1?$pair@V?$basic_string@DU?$char_traits@D@std@@V?$allocator@D@2@@std@@V?$shared_ptr@VScyjz14RawImageData@@@2@@std@@QAE@XZ 00428f60 f i InstructionState.obj
 0001:00027f90       ??1?$pair@V?$basic_string@DU?$char_traits@D@std@@V?$allocator@D@2@@std@@V?$weak_ptr@VScyjz14RawImageData@@@2@@std@@QAE@XZ 00428f90 f i InstructionState.obj
 0001:00027fc0       ??1?$shared_ptr@VRunningState@@@std@@QAE@XZ 00428fc0 f i InstructionState.obj
 0001:00027fe0       ??1?$shared_ptr@VStartUpState@@@std@@QAE@XZ 00428fe0 f i InstructionState.obj
 0001:00028000       ??1?$weak_ptr@VRunningState@@@std@@QAE@XZ 00429000 f i InstructionState.obj
 0001:00028020       ??1?$weak_ptr@VScyjz14RawImageData@@@std@@QAE@XZ 00429020 f i InstructionState.obj
 0001:00028040       ??1Button@@UAE@XZ          00429040 f i InstructionState.obj
 0001:00028070       ??1Scyjz14ImageObject@@UAE@XZ 00429070 f i InstructionState.obj
 0001:000280a0       ??1Scyjz14RawImageData@@QAE@XZ 004290a0 f i InstructionState.obj
 0001:000280c0       ??1State@@UAE@XZ           004290c0 f i InstructionState.obj
 0001:000280e0       ??4?$shared_ptr@VRawImageData@@@std@@QAEAAV01@ABV01@@Z 004290e0 f i InstructionState.obj
 0001:00028120       ??4?$shared_ptr@VScyjz14RawImageData@@@std@@QAEAAV01@$$QAV01@@Z 00429120 f i InstructionState.obj
 0001:00028170       ??4Scyjz14Image@@QAEAAV0@$$QAV0@@Z 00429170 f i InstructionState.obj
 0001:000281b0       ??4SimpleImage@@QAEAAV0@ABV0@@Z 004291b0 f i InstructionState.obj
 0001:00028200       ??8?$_Tree_const_iterator@V?$_Tree_val@U?$_Tree_simple_types@U?$pair@$$CBV?$basic_string@DU?$char_traits@D@std@@V?$allocator@D@2@@std@@V?$weak_ptr@VScyjz14RawImageData@@@2@@std@@@std@@@std@@@std@@QBE_NABV01@@Z 00429200 f i InstructionState.obj
 0001:000282c0       ??9?$_Tree_const_iterator@V?$_Tree_val@U?$_Tree_simple_types@U?$pair@$$CBV?$basic_string@DU?$char_traits@D@std@@V?$allocator@D@2@@std@@V?$weak_ptr@VScyjz14RawImageData@@@2@@std@@@std@@@std@@@std@@QBE_NABV01@@Z 004292c0 f i InstructionState.obj
 0001:00028310       ??C?$_Tree_iterator@V?$_Tree_val@U?$_Tree_simple_types@U?$pair@$$CBV?$basic_string@DU?$char_traits@D@std@@V?$allocator@D@2@@std@@V?$weak_ptr@VScyjz14RawImageData@@@2@@std@@@std@@@std@@@std@@QBEPAU?$pair@$$CBV?$basic_string@DU?$char_traits@D@std@@V?$allocator@D@2@@std@@V?$weak_ptr@VScyjz14RawImageData@@@2@@1@XZ 00429310 f i InstructionState.obj
 0001:00028340       ??D?$_Tree_const_iterator@V?$_Tree_val@U?$_Tree_simple_types@U?$pair@$$CBV?$basic_string@DU?$char_traits@D@std@@V?$allocator@D@2@@std@@V?$weak_ptr@VScyjz14RawImageData@@@2@@std@@@std@@@std@@@std@@QBEABU?$pair@$$CBV?$basic_string@DU?$char_traits@D@std@@V?$allocator@D@2@@std@@V?$weak_ptr@VScyjz14RawImageData@@@2@@1@XZ 00429340 f i InstructionState.obj
 0001:00028450       ??D?$_Tree_iterator@V?$_Tree_val@U?$_Tree_simple_types@U?$pair@$$CBV?$basic_string@DU?$char_traits@D@std@@V?$allocator@D@2@@std@@V?$weak_ptr@VScyjz14RawImageData@@@2@@std@@@std@@@std@@@std@@QBEAAU?$pair@$$CBV?$basic_string@DU?$char_traits@D@std@@V?$allocator@D@2@@std@@V?$weak_ptr@VScyjz14RawImageData@@@2@@1@XZ 00429450 f i InstructionState.obj
 0001:00028470       ??E?$_Tree_unchecked_const_iterator@V?$_Tree_val@U?$_Tree_simple_types@U?$pair@$$CBV?$basic_string@DU?$char_traits@D@std@@V?$allocator@D@2@@std@@V?$weak_ptr@VScyjz14RawImageData@@@2@@std@@@std@@@std@@U_Iterator_base0@2@@std@@QAEAAV01@XZ 00429470 f i InstructionState.obj
 0001:00028500       ??_E?$_Ref_count@VScyjz14RawImageData@@@std@@UAEPAXI@Z 00429500 f i InstructionState.obj
 0001:00028500       ??_G?$_Ref_count@VScyjz14RawImageData@@@std@@UAEPAXI@Z 00429500 f i InstructionState.obj
 0001:00028540       ??_G?$_Ref_count_obj2@VRunningState@@@std@@UAEPAXI@Z 00429540 f i InstructionState.obj
 0001:00028540       ??_E?$_Ref_count_obj2@VRunningState@@@std@@UAEPAXI@Z 00429540 f i InstructionState.obj
 0001:00028580       ??_E?$_Ref_count_obj2@VStartUpState@@@std@@UAEPAXI@Z 00429580 f i InstructionState.obj
 0001:00028580       ??_G?$_Ref_count_obj2@VStartUpState@@@std@@UAEPAXI@Z 00429580 f i InstructionState.obj
 0001:000285c0       ??_G?$pair@$$CBV?$basic_string@DU?$char_traits@D@std@@V?$allocator@D@2@@std@@V?$shared_ptr@VScyjz14RawImageData@@@2@@std@@QAEPAXI@Z 004295c0 f i InstructionState.obj
 0001:00028600       ??_G?$pair@$$CBV?$basic_string@DU?$char_traits@D@std@@V?$allocator@D@2@@std@@V?$weak_ptr@VScyjz14RawImageData@@@2@@std@@QAEPAXI@Z 00429600 f i InstructionState.obj
 0001:00028640       ??_EButton@@UAEPAXI@Z      00429640 f i InstructionState.obj
 0001:00028640       ??_GButton@@UAEPAXI@Z      00429640 f i InstructionState.obj
 0001:00028680       ??_EInstructionState@@UAEPAXI@Z 00429680 f i InstructionState.obj
 0001:00028680       ??_GInstructionState@@UAEPAXI@Z 00429680 f i InstructionState.obj
 0001:000286c0       ??_GRunningState@@UAEPAXI@Z 004296c0 f i InstructionState.obj
 0001:000286c0       ??_ERunningState@@UAEPAXI@Z 004296c0 f i InstructionState.obj
 0001:00028700       ??_GScyjz14ImageObject@@UAEPAXI@Z 00429700 f i InstructionState.obj
 0001:00028700       ??_EScyjz14ImageObject@@UAEPAXI@Z 00429700 f i InstructionState.obj
 0001:00028740       ??_GScyjz14RawImageData@@QAEPAXI@Z 00429740 f i InstructionState.obj
 0001:00028780       ??_EStartUpState@@UAEPAXI@Z 00429780 f i InstructionState.obj
 0001:00028780       ??_GStartUpState@@UAEPAXI@Z 00429780 f i InstructionState.obj
 0001:000287c0       ??_EState@@UAEPAXI@Z       004297c0 f i InstructionState.obj
 0001:000287c0       ??_GState@@UAEPAXI@Z       004297c0 f i InstructionState.obj
 0001:00028800       ?_Alloc_sentinel_and_proxy@?$_Tree@V?$_Tmap_traits@V?$basic_string@DU?$char_traits@D@std@@V?$allocator@D@2@@std@@V?$shared_ptr@VScyjz14RawImageData@@@2@U?$less@V?$basic_string@DU?$char_traits@D@std@@V?$allocator@D@2@@std@@@2@V?$allocator@U?$pair@$$CBV?$basic_string@DU?$char_traits@D@std@@V?$allocator@D@2@@std@@V?$shared_ptr@VScyjz14RawImageData@@@2@@std@@@2@$0A@@std@@@std@@IAEXXZ 00429800 f i InstructionState.obj
 0001:000288d0       ?_Alloc_sentinel_and_proxy@?$_Tree@V?$_Tmap_traits@V?$basic_string@DU?$char_traits@D@std@@V?$allocator@D@2@@std@@V?$weak_ptr@VScyjz14RawImageData@@@2@U?$less@V?$basic_string@DU?$char_traits@D@std@@V?$allocator@D@2@@std@@@2@V?$allocator@U?$pair@$$CBV?$basic_string@DU?$char_traits@D@std@@V?$allocator@D@2@@std@@V?$weak_ptr@VScyjz14RawImageData@@@2@@std@@@2@$0A@@std@@@std@@IAEXXZ 004298d0 f i InstructionState.obj
 0001:000289a0       ?_Allocate@?$_Alloc_construct_ptr@V?$allocator@U?$_Tree_node@U?$pair@$$CBV?$basic_string@DU?$char_traits@D@std@@V?$allocator@D@2@@std@@V?$shared_ptr@VScyjz14RawImageData@@@2@@std@@PAX@std@@@std@@@std@@QAEXXZ 004299a0 f i InstructionState.obj
 0001:000289d0       ?_Allocate@?$_Alloc_construct_ptr@V?$allocator@U?$_Tree_node@U?$pair@$$CBV?$basic_string@DU?$char_traits@D@std@@V?$allocator@D@2@@std@@V?$weak_ptr@VScyjz14RawImageData@@@2@@std@@PAX@std@@@std@@@std@@QAEXXZ 004299d0 f i InstructionState.obj
 0001:00028a00       ?_Check_grow_by_1@?$_Tree@V?$_Tmap_traits@V?$basic_string@DU?$char_traits@D@std@@V?$allocator@D@2@@std@@V?$shared_ptr@VScyjz14RawImageData@@@2@U?$less@V?$basic_string@DU?$char_traits@D@std@@V?$allocator@D@2@@std@@@2@V?$allocator@U?$pair@$$CBV?$basic_string@DU?$char_traits@D@std@@V?$allocator@D@2@@std@@V?$shared_ptr@VScyjz14RawImageData@@@2@@std@@@2@$0A@@std@@@std@@IAEXXZ 00429a00 f i InstructionState.obj
 0001:00028a40       ?_Check_grow_by_1@?$_Tree@V?$_Tmap_traits@V?$basic_string@DU?$char_traits@D@std@@V?$allocator@D@2@@std@@V?$weak_ptr@VScyjz14RawImageData@@@2@U?$less@V?$basic_string@DU?$char_traits@D@std@@V?$allocator@D@2@@std@@@2@V?$allocator@U?$pair@$$CBV?$basic_string@DU?$char_traits@D@std@@V?$allocator@D@2@@std@@V?$weak_ptr@VScyjz14RawImageData@@@2@@std@@@2@$0A@@std@@@std@@IAEXXZ 00429a40 f i InstructionState.obj
 0001:00028a80       ?_Decref@?$_Ptr_base@VRunningState@@@std@@IAEXXZ 00429a80 f i InstructionState.obj
 0001:00028ab0       ?_Decref@?$_Ptr_base@VStartUpState@@@std@@IAEXXZ 00429ab0 f i InstructionState.obj
 0001:00028ae0       ?_Decwref@?$_Ptr_base@VRunningState@@@std@@IAEXXZ 00429ae0 f i InstructionState.obj
 0001:00028b10       ?_Decwref@?$_Ptr_base@VScyjz14RawImageData@@@std@@IAEXXZ 00429b10 f i InstructionState.obj
 0001:00028b40       ?_Delete_this@?$_Ref_count@VScyjz14RawImageData@@@std@@EAEXXZ 00429b40 f i InstructionState.obj
 0001:00028b90       ?_Delete_this@?$_Ref_count_obj2@VRunningState@@@std@@EAEXXZ 00429b90 f i InstructionState.obj
 0001:00028be0       ?_Delete_this@?$_Ref_count_obj2@VStartUpState@@@std@@EAEXXZ 00429be0 f i InstructionState.obj
 0001:00028c30       ?_Destroy@?$_Ref_count@VScyjz14RawImageData@@@std@@EAEXXZ 00429c30 f i InstructionState.obj
 0001:00028c70       ?_Destroy@?$_Ref_count_obj2@VRunningState@@@std@@EAEXXZ 00429c70 f i InstructionState.obj
 0001:00028c90       ?_Destroy@?$_Ref_count_obj2@VStartUpState@@@std@@EAEXXZ 00429c90 f i InstructionState.obj
 0001:00028cb0       ?_Erase_unchecked@?$_Tree@V?$_Tmap_traits@V?$basic_string@DU?$char_traits@D@std@@V?$allocator@D@2@@std@@V?$weak_ptr@VScyjz14RawImageData@@@2@U?$less@V?$basic_string@DU?$char_traits@D@std@@V?$allocator@D@2@@std@@@2@V?$allocator@U?$pair@$$CBV?$basic_string@DU?$char_traits@D@std@@V?$allocator@D@2@@std@@V?$weak_ptr@VScyjz14RawImageData@@@2@@std@@@2@$0A@@std@@@std@@AAEPAU?$_Tree_node@U?$pair@$$CBV?$basic_string@DU?$char_traits@D@std@@V?$allocator@D@2@@std@@V?$weak_ptr@VScyjz14RawImageData@@@2@@std@@PAX@2@V?$_Tree_unchecked_const_iterator@V?$_Tree_val@U?$_Tree_simple_types@U?$pair@$$CBV?$basic_string@DU?$char_traits@D@std@@V?$allocator@D@2@@std@@V?$weak_ptr@VScyjz14RawImageData@@@2@@std@@@std@@@std@@U_Iterator_base0@2@@2@@Z 00429cb0 f i InstructionState.obj
 0001:00028d30       ?_Extract@?$_In_place_key_extract_map@V?$basic_string@DU?$char_traits@D@std@@V?$allocator@D@2@@std@@U?$pair@V?$basic_string@DU?$char_traits@D@std@@V?$allocator@D@2@@std@@V?$shared_ptr@VScyjz14RawImageData@@@2@@2@@std@@SAABV?$basic_string@DU?$char_traits@D@std@@V?$allocator@D@2@@2@ABU?$pair@V?$basic_string@DU?$char_traits@D@std@@V?$allocator@D@2@@std@@V?$shared_ptr@VScyjz14RawImageData@@@2@@2@@Z 00429d30 f i InstructionState.obj
 0001:00028d40       ?_Extract@?$_In_place_key_extract_map@V?$basic_string@DU?$char_traits@D@std@@V?$allocator@D@2@@std@@U?$pair@V?$basic_string@DU?$char_traits@D@std@@V?$allocator@D@2@@std@@V?$weak_ptr@VScyjz14RawImageData@@@2@@2@@std@@SAABV?$basic_string@DU?$char_traits@D@std@@V?$allocator@D@2@@2@ABU?$pair@V?$basic_string@DU?$char_traits@D@std@@V?$allocator@D@2@@std@@V?$weak_ptr@VScyjz14RawImageData@@@2@@2@@Z 00429d40 f i InstructionState.obj
 0001:00028d50       ?_Extract@?$_Tree_val@U?$_Tree_simple_types@U?$pair@$$CBV?$basic_string@DU?$char_traits@D@std@@V?$allocator@D@2@@std@@V?$weak_ptr@VScyjz14RawImageData@@@2@@std@@@std@@@std@@QAEPAU?$_Tree_node@U?$pair@$$CBV?$basic_string@DU?$char_traits@D@std@@V?$allocator@D@2@@std@@V?$weak_ptr@VScyjz14RawImageData@@@2@@std@@PAX@2@V?$_Tree_unchecked_const_iterator@V?$_Tree_val@U?$_Tree_simple_types@U?$pair@$$CBV?$basic_string@DU?$char_traits@D@std@@V?$allocator@D@2@@std@@V?$weak_ptr@VScyjz14RawImageData@@@2@@std@@@std@@@std@@U_Iterator_base0@2@@2@@Z 00429d50 f i InstructionState.obj
 0001:00029290       ?_Get_first@?$_Compressed_pair@U?$less@V?$basic_string@DU?$char_traits@D@std@@V?$allocator@D@2@@std@@@std@@V?$_Compressed_pair@V?$allocator@U?$_Tree_node@U?$pair@$$CBV?$basic_string@DU?$char_traits@D@std@@V?$allocator@D@2@@std@@V?$shared_ptr@VScyjz14RawImageData@@@2@@std@@PAX@std@@@std@@V?$_Tree_val@U?$_Tree_simple_types@U?$pair@$$CBV?$basic_string@DU?$char_traits@D@std@@V?$allocator@D@2@@std@@V?$shared_ptr@VScyjz14RawImageData@@@2@@std@@@std@@@2@$00@2@$00@std@@QBEABU?$less@V?$basic_string@DU?$char_traits@D@std@@V?$allocator@D@2@@std@@@2@XZ 0042a290 f i InstructionState.obj
 0001:000292b0       ?_Get_first@?$_Compressed_pair@U?$less@V?$basic_string@DU?$char_traits@D@std@@V?$allocator@D@2@@std@@@std@@V?$_Compressed_pair@V?$allocator@U?$_Tree_node@U?$pair@$$CBV?$basic_string@DU?$char_traits@D@std@@V?$allocator@D@2@@std@@V?$weak_ptr@VScyjz14RawImageData@@@2@@std@@PAX@std@@@std@@V?$_Tree_val@U?$_Tree_simple_types@U?$pair@$$CBV?$basic_string@DU?$char_traits@D@std@@V?$allocator@D@2@@std@@V?$weak_ptr@VScyjz14RawImageData@@@2@@std@@@std@@@2@$00@2@$00@std@@QBEABU?$less@V?$basic_string@DU?$char_traits@D@std@@V?$allocator@D@2@@std@@@2@XZ 0042a2b0 f i InstructionState.obj
 0001:000292d0       ?_Get_first@?$_Compressed_pair@V?$allocator@U?$_Tree_node@U?$pair@$$CBV?$basic_string@DU?$char_traits@D@std@@V?$allocator@D@2@@std@@V?$shared_ptr@VScyjz14RawImageData@@@2@@std@@PAX@std@@@std@@V?$_Tree_val@U?$_Tree_simple_types@U?$pair@$$CBV?$basic_string@DU?$char_traits@D@std@@V?$allocator@D@2@@std@@V?$shared_ptr@VScyjz14RawImageData@@@2@@std@@@std@@@2@$00@std@@QAEAAV?$allocator@U?$_Tree_node@U?$pair@$$CBV?$basic_string@DU?$char_traits@D@std@@V?$allocator@D@2@@std@@V?$shared_ptr@VScyjz14RawImageData@@@2@@std@@PAX@std@@@2@XZ 0042a2d0 f i InstructionState.obj
 0001:000292f0       ?_Get_first@?$_Compressed_pair@V?$allocator@U?$_Tree_node@U?$pair@$$CBV?$basic_string@DU?$char_traits@D@std@@V?$allocator@D@2@@std@@V?$shared_ptr@VScyjz14RawImageData@@@2@@std@@PAX@std@@@std@@V?$_Tree_val@U?$_Tree_simple_types@U?$pair@$$CBV?$basic_string@DU?$char_traits@D@std@@V?$allocator@D@2@@std@@V?$shared_ptr@VScyjz14RawImageData@@@2@@std@@@std@@@2@$00@std@@QBEABV?$allocator@U?$_Tree_node@U?$pair@$$CBV?$basic_string@DU?$char_traits@D@std@@V?$allocator@D@2@@std@@V?$shared_ptr@VScyjz14RawImageData@@@2@@std@@PAX@std@@@2@XZ 0042a2f0 f i InstructionState.obj
 0001:00029310       ?_Get_first@?$_Compressed_pair@V?$allocator@U?$_Tree_node@U?$pair@$$CBV?$basic_string@DU?$char_traits@D@std@@V?$allocator@D@2@@std@@V?$weak_ptr@VScyjz14RawImageData@@@2@@std@@PAX@std@@@std@@V?$_Tree_val@U?$_Tree_simple_types@U?$pair@$$CBV?$basic_string@DU?$char_traits@D@std@@V?$allocator@D@2@@std@@V?$weak_ptr@VScyjz14RawImageData@@@2@@std@@@std@@@2@$00@std@@QAEAAV?$allocator@U?$_Tree_node@U?$pair@$$CBV?$basic_string@DU?$char_traits@D@std@@V?$allocator@D@2@@std@@V?$weak_ptr@VScyjz14RawImageData@@@2@@std@@PAX@std@@@2@XZ 0042a310 f i InstructionState.obj
 0001:00029330       ?_Get_first@?$_Compressed_pair@V?$allocator@U?$_Tree_node@U?$pair@$$CBV?$basic_string@DU?$char_traits@D@std@@V?$allocator@D@2@@std@@V?$weak_ptr@VScyjz14RawImageData@@@2@@std@@PAX@std@@@std@@V?$_Tree_val@U?$_Tree_simple_types@U?$pair@$$CBV?$basic_string@DU?$char_traits@D@std@@V?$allocator@D@2@@std@@V?$weak_ptr@VScyjz14RawImageData@@@2@@std@@@std@@@2@$00@std@@QBEABV?$allocator@U?$_Tree_node@U?$pair@$$CBV?$basic_string@DU?$char_traits@D@std@@V?$allocator@D@2@@std@@V?$weak_ptr@VScyjz14RawImageData@@@2@@std@@PAX@std@@@2@XZ 0042a330 f i InstructionState.obj
 0001:00029350       ?_Get_scary@?$_Tree@V?$_Tmap_traits@V?$basic_string@DU?$char_traits@D@std@@V?$allocator@D@2@@std@@V?$shared_ptr@VScyjz14RawImageData@@@2@U?$less@V?$basic_string@DU?$char_traits@D@std@@V?$allocator@D@2@@std@@@2@V?$allocator@U?$pair@$$CBV?$basic_string@DU?$char_traits@D@std@@V?$allocator@D@2@@std@@V?$shared_ptr@VScyjz14RawImageData@@@2@@std@@@2@$0A@@std@@@std@@IAEPAV?$_Tree_val@U?$_Tree_simple_types@U?$pair@$$CBV?$basic_string@DU?$char_traits@D@std@@V?$allocator@D@2@@std@@V?$shared_ptr@VScyjz14RawImageData@@@2@@std@@@std@@@2@XZ 0042a350 f i InstructionState.obj
 0001:00029370       ?_Get_scary@?$_Tree@V?$_Tmap_traits@V?$basic_string@DU?$char_traits@D@std@@V?$allocator@D@2@@std@@V?$shared_ptr@VScyjz14RawImageData@@@2@U?$less@V?$basic_string@DU?$char_traits@D@std@@V?$allocator@D@2@@std@@@2@V?$allocator@U?$pair@$$CBV?$basic_string@DU?$char_traits@D@std@@V?$allocator@D@2@@std@@V?$shared_ptr@VScyjz14RawImageData@@@2@@std@@@2@$0A@@std@@@std@@IBEPBV?$_Tree_val@U?$_Tree_simple_types@U?$pair@$$CBV?$basic_string@DU?$char_traits@D@std@@V?$allocator@D@2@@std@@V?$shared_ptr@VScyjz14RawImageData@@@2@@std@@@std@@@2@XZ 0042a370 f i InstructionState.obj
 0001:00029390       ?_Get_scary@?$_Tree@V?$_Tmap_traits@V?$basic_string@DU?$char_traits@D@std@@V?$allocator@D@2@@std@@V?$weak_ptr@VScyjz14RawImageData@@@2@U?$less@V?$basic_string@DU?$char_traits@D@std@@V?$allocator@D@2@@std@@@2@V?$allocator@U?$pair@$$CBV?$basic_string@DU?$char_traits@D@std@@V?$allocator@D@2@@std@@V?$weak_ptr@VScyjz14RawImageData@@@2@@std@@@2@$0A@@std@@@std@@IAEPAV?$_Tree_val@U?$_Tree_simple_types@U?$pair@$$CBV?$basic_string@DU?$char_traits@D@std@@V?$allocator@D@2@@std@@V?$weak_ptr@VScyjz14RawImageData@@@2@@std@@@std@@@2@XZ 0042a390 f i InstructionState.obj
 0001:000293b0       ?_Get_scary@?$_Tree@V?$_Tmap_traits@V?$basic_string@DU?$char_traits@D@std@@V?$allocator@D@2@@std@@V?$weak_ptr@VScyjz14RawImageData@@@2@U?$less@V?$basic_string@DU?$char_traits@D@std@@V?$allocator@D@2@@std@@@2@V?$allocator@U?$pair@$$CBV?$basic_string@DU?$char_traits@D@std@@V?$allocator@D@2@@std@@V?$weak_ptr@VScyjz14RawImageData@@@2@@std@@@2@$0A@@std@@@std@@IBEPBV?$_Tree_val@U?$_Tree_simple_types@U?$pair@$$CBV?$basic_string@DU?$char_traits@D@std@@V?$allocator@D@2@@std@@V?$weak_ptr@VScyjz14RawImageData@@@2@@std@@@std@@@2@XZ 0042a3b0 f i InstructionState.obj
 0001:000293d0       ?_Getal@?$_Tree@V?$_Tmap_traits@V?$basic_string@DU?$char_traits@D@std@@V?$allocator@D@2@@std@@V?$shared_ptr@VScyjz14RawImageData@@@2@U?$less@V?$basic_string@DU?$char_traits@D@std@@V?$allocator@D@2@@std@@@2@V?$allocator@U?$pair@$$CBV?$basic_string@DU?$char_traits@D@std@@V?$allocator@D@2@@std@@V?$shared_ptr@VScyjz14RawImageData@@@2@@std@@@2@$0A@@std@@@std@@IAEAAV?$allocator@U?$_Tree_node@U?$pair@$$CBV?$basic_string@DU?$char_traits@D@std@@V?$allocator@D@2@@std@@V?$shared_ptr@VScyjz14RawImageData@@@2@@std@@PAX@std@@@2@XZ 0042a3d0 f i InstructionState.obj
 0001:000293f0       ?_Getal@?$_Tree@V?$_Tmap_traits@V?$basic_string@DU?$char_traits@D@std@@V?$allocator@D@2@@std@@V?$shared_ptr@VScyjz14RawImageData@@@2@U?$less@V?$basic_string@DU?$char_traits@D@std@@V?$allocator@D@2@@std@@@2@V?$allocator@U?$pair@$$CBV?$basic_string@DU?$char_traits@D@std@@V?$allocator@D@2@@std@@V?$shared_ptr@VScyjz14RawImageData@@@2@@std@@@2@$0A@@std@@@std@@IBEABV?$allocator@U?$_Tree_node@U?$pair@$$CBV?$basic_string@DU?$char_traits@D@std@@V?$allocator@D@2@@std@@V?$shared_ptr@VScyjz14RawImageData@@@2@@std@@PAX@std@@@2@XZ 0042a3f0 f i InstructionState.obj
 0001:00029410       ?_Getal@?$_Tree@V?$_Tmap_traits@V?$basic_string@DU?$char_traits@D@std@@V?$allocator@D@2@@std@@V?$weak_ptr@VScyjz14RawImageData@@@2@U?$less@V?$basic_string@DU?$char_traits@D@std@@V?$allocator@D@2@@std@@@2@V?$allocator@U?$pair@$$CBV?$basic_string@DU?$char_traits@D@std@@V?$allocator@D@2@@std@@V?$weak_ptr@VScyjz14RawImageData@@@2@@std@@@2@$0A@@std@@@std@@IAEAAV?$allocator@U?$_Tree_node@U?$pair@$$CBV?$basic_string@DU?$char_traits@D@std@@V?$allocator@D@2@@std@@V?$weak_ptr@VScyjz14RawImageData@@@2@@std@@PAX@std@@@2@XZ 0042a410 f i InstructionState.obj
 0001:00029430       ?_Getal@?$_Tree@V?$_Tmap_traits@V?$basic_string@DU?$char_traits@D@std@@V?$allocator@D@2@@std@@V?$weak_ptr@VScyjz14RawImageData@@@2@U?$less@V?$basic_string@DU?$char_traits@D@std@@V?$allocator@D@2@@std@@@2@V?$allocator@U?$pair@$$CBV?$basic_string@DU?$char_traits@D@std@@V?$allocator@D@2@@std@@V?$weak_ptr@VScyjz14RawImageData@@@2@@std@@@2@$0A@@std@@@std@@IBEABV?$allocator@U?$_Tree_node@U?$pair@$$CBV?$basic_string@DU?$char_traits@D@std@@V?$allocator@D@2@@std@@V?$weak_ptr@VScyjz14RawImageData@@@2@@std@@PAX@std@@@2@XZ 0042a430 f i InstructionState.obj
 0001:00029450       ?_Getcomp@?$_Tree@V?$_Tmap_traits@V?$basic_string@DU?$char_traits@D@std@@V?$allocator@D@2@@std@@V?$shared_ptr@VScyjz14RawImageData@@@2@U?$less@V?$basic_string@DU?$char_traits@D@std@@V?$allocator@D@2@@std@@@2@V?$allocator@U?$pair@$$CBV?$basic_string@DU?$char_traits@D@std@@V?$allocator@D@2@@std@@V?$shared_ptr@VScyjz14RawImageData@@@2@@std@@@2@$0A@@std@@@std@@IBEABU?$less@V?$basic_string@DU?$char_traits@D@std@@V?$allocator@D@2@@std@@@2@XZ 0042a450 f i InstructionState.obj
 0001:00029470       ?_Getcomp@?$_Tree@V?$_Tmap_traits@V?$basic_string@DU?$char_traits@D@std@@V?$allocator@D@2@@std@@V?$weak_ptr@VScyjz14RawImageData@@@2@U?$less@V?$basic_string@DU?$char_traits@D@std@@V?$allocator@D@2@@std@@@2@V?$allocator@U?$pair@$$CBV?$basic_string@DU?$char_traits@D@std@@V?$allocator@D@2@@std@@V?$weak_ptr@VScyjz14RawImageData@@@2@@std@@@2@$0A@@std@@@std@@IBEABU?$less@V?$basic_string@DU?$char_traits@D@std@@V?$allocator@D@2@@std@@@2@XZ 0042a470 f i InstructionState.obj
 0001:00029490       ?_Incref@?$_Ptr_base@VRunningState@@@std@@IBEXXZ 0042a490 f i InstructionState.obj
 0001:000294c0       ?_Insert_node@?$_Tree_val@U?$_Tree_simple_types@U?$pair@$$CBV?$basic_string@DU?$char_traits@D@std@@V?$allocator@D@2@@std@@V?$shared_ptr@VScyjz14RawImageData@@@2@@std@@@std@@@std@@QAEPAU?$_Tree_node@U?$pair@$$CBV?$basic_string@DU?$char_traits@D@std@@V?$allocator@D@2@@std@@V?$shared_ptr@VScyjz14RawImageData@@@2@@std@@PAX@2@U?$_Tree_id@PAU?$_Tree_node@U?$pair@$$CBV?$basic_string@DU?$char_traits@D@std@@V?$allocator@D@2@@std@@V?$shared_ptr@VScyjz14RawImageData@@@2@@std@@PAX@std@@@2@QAU32@@Z 0042a4c0 f i InstructionState.obj
 0001:00029750       ?_Insert_node@?$_Tree_val@U?$_Tree_simple_types@U?$pair@$$CBV?$basic_string@DU?$char_traits@D@std@@V?$allocator@D@2@@std@@V?$weak_ptr@VScyjz14RawImageData@@@2@@std@@@std@@@std@@QAEPAU?$_Tree_node@U?$pair@$$CBV?$basic_string@DU?$char_traits@D@std@@V?$allocator@D@2@@std@@V?$weak_ptr@VScyjz14RawImageData@@@2@@std@@PAX@2@U?$_Tree_id@PAU?$_Tree_node@U?$pair@$$CBV?$basic_string@DU?$char_traits@D@std@@V?$allocator@D@2@@std@@V?$weak_ptr@VScyjz14RawImageData@@@2@@std@@PAX@std@@@2@QAU32@@Z 0042a750 f i InstructionState.obj
 0001:000299e0       ?_Lrotate@?$_Tree_val@U?$_Tree_simple_types@U?$pair@$$CBV?$basic_string@DU?$char_traits@D@std@@V?$allocator@D@2@@std@@V?$shared_ptr@VScyjz14RawImageData@@@2@@std@@@std@@@std@@QAEXPAU?$_Tree_node@U?$pair@$$CBV?$basic_string@DU?$char_traits@D@std@@V?$allocator@D@2@@std@@V?$shared_ptr@VScyjz14RawImageData@@@2@@std@@PAX@2@@Z 0042a9e0 f i InstructionState.obj
 0001:00029aa0       ?_Lrotate@?$_Tree_val@U?$_Tree_simple_types@U?$pair@$$CBV?$basic_string@DU?$char_traits@D@std@@V?$allocator@D@2@@std@@V?$weak_ptr@VScyjz14RawImageData@@@2@@std@@@std@@@std@@QAEXPAU?$_Tree_node@U?$pair@$$CBV?$basic_string@DU?$char_traits@D@std@@V?$allocator@D@2@@std@@V?$weak_ptr@VScyjz14RawImageData@@@2@@std@@PAX@2@@Z 0042aaa0 f i InstructionState.obj
 0001:00029b60       ?_Max@?$_Tree_val@U?$_Tree_simple_types@U?$pair@$$CBV?$basic_string@DU?$char_traits@D@std@@V?$allocator@D@2@@std@@V?$weak_ptr@VScyjz14RawImageData@@@2@@std@@@std@@@std@@SAPAU?$_Tree_node@U?$pair@$$CBV?$basic_string@DU?$char_traits@D@std@@V?$allocator@D@2@@std@@V?$weak_ptr@VScyjz14RawImageData@@@2@@std@@PAX@2@PAU32@@Z 0042ab60 f i InstructionState.obj
 0001:00029b90       ?_Min@?$_Tree_val@U?$_Tree_simple_types@U?$pair@$$CBV?$basic_string@DU?$char_traits@D@std@@V?$allocator@D@2@@std@@V?$weak_ptr@VScyjz14RawImageData@@@2@@std@@@std@@@std@@SAPAU?$_Tree_node@U?$pair@$$CBV?$basic_string@DU?$char_traits@D@std@@V?$allocator@D@2@@std@@V?$weak_ptr@VScyjz14RawImageData@@@2@@std@@PAX@2@PAU32@@Z 0042ab90 f i InstructionState.obj
 0001:00029bc0       ?_Orphan_ptr@?$_Tree_val@U?$_Tree_simple_types@U?$pair@$$CBV?$basic_string@DU?$char_traits@D@std@@V?$allocator@D@2@@std@@V?$weak_ptr@VScyjz14RawImageData@@@2@@std@@@std@@@std@@QAEXQAU?$_Tree_node@U?$pair@$$CBV?$basic_string@DU?$char_traits@D@std@@V?$allocator@D@2@@std@@V?$weak_ptr@VScyjz14RawImageData@@@2@@std@@PAX@2@@Z 0042abc0 f i InstructionState.obj
 0001:00029c70       ?_Release@?$_Alloc_construct_ptr@V?$allocator@U?$_Tree_node@U?$pair@$$CBV?$basic_string@DU?$char_traits@D@std@@V?$allocator@D@2@@std@@V?$shared_ptr@VScyjz14RawImageData@@@2@@std@@PAX@std@@@std@@@std@@QAEPAU?$_Tree_node@U?$pair@$$CBV?$basic_string@DU?$char_traits@D@std@@V?$allocator@D@2@@std@@V?$shared_ptr@VScyjz14RawImageData@@@2@@std@@PAX@2@XZ 0042ac70 f i InstructionState.obj
 0001:00029ca0       ?_Release@?$_Alloc_construct_ptr@V?$allocator@U?$_Tree_node@U?$pair@$$CBV?$basic_string@DU?$char_traits@D@std@@V?$allocator@D@2@@std@@V?$weak_ptr@VScyjz14RawImageData@@@2@@std@@PAX@std@@@std@@@std@@QAEPAU?$_Tree_node@U?$pair@$$CBV?$basic_string@DU?$char_traits@D@std@@V?$allocator@D@2@@std@@V?$weak_ptr@VScyjz14RawImageData@@@2@@std@@PAX@2@XZ 0042aca0 f i InstructionState.obj
 0001:00029cd0       ?_Rrotate@?$_Tree_val@U?$_Tree_simple_types@U?$pair@$$CBV?$basic_string@DU?$char_traits@D@std@@V?$allocator@D@2@@std@@V?$shared_ptr@VScyjz14RawImageData@@@2@@std@@@std@@@std@@QAEXPAU?$_Tree_node@U?$pair@$$CBV?$basic_string@DU?$char_traits@D@std@@V?$allocator@D@2@@std@@V?$shared_ptr@VScyjz14RawImageData@@@2@@std@@PAX@2@@Z 0042acd0 f i InstructionState.obj
 0001:00029da0       ?_Rrotate@?$_Tree_val@U?$_Tree_simple_types@U?$pair@$$CBV?$basic_string@DU?$char_traits@D@std@@V?$allocator@D@2@@std@@V?$weak_ptr@VScyjz14RawImageData@@@2@@std@@@std@@@std@@QAEXPAU?$_Tree_node@U?$pair@$$CBV?$basic_string@DU?$char_traits@D@std@@V?$allocator@D@2@@std@@V?$weak_ptr@VScyjz14RawImageData@@@2@@std@@PAX@2@@Z 0042ada0 f i InstructionState.obj
 0001:00029e70       ?_Swap@?$_Ptr_base@VRawImageData@@@std@@IAEXAAV12@@Z 0042ae70 f i InstructionState.obj
 0001:00029eb0       ?_Swap@?$_Ptr_base@VRunningState@@@std@@IAEXAAV12@@Z 0042aeb0 f i InstructionState.obj
 0001:00029ef0       ?_Swap@?$_Ptr_base@VScyjz14RawImageData@@@std@@IAEXAAV12@@Z 0042aef0 f i InstructionState.obj
 0001:00029f30       ?_Unwrapped@?$_Tree_iterator@V?$_Tree_val@U?$_Tree_simple_types@U?$pair@$$CBV?$basic_string@DU?$char_traits@D@std@@V?$allocator@D@2@@std@@V?$weak_ptr@VScyjz14RawImageData@@@2@@std@@@std@@@std@@@std@@QBE?AV?$_Tree_unchecked_iterator@V?$_Tree_val@U?$_Tree_simple_types@U?$pair@$$CBV?$basic_string@DU?$char_traits@D@std@@V?$allocator@D@2@@std@@V?$weak_ptr@VScyjz14RawImageData@@@2@@std@@@std@@@std@@@2@XZ 0042af30 f i InstructionState.obj
 0001:00029f70       ?allocate@?$allocator@U?$_Tree_node@U?$pair@$$CBV?$basic_string@DU?$char_traits@D@std@@V?$allocator@D@2@@std@@V?$shared_ptr@VScyjz14RawImageData@@@2@@std@@PAX@std@@@std@@QAEPAU?$_Tree_node@U?$pair@$$CBV?$basic_string@DU?$char_traits@D@std@@V?$allocator@D@2@@std@@V?$shared_ptr@VScyjz14RawImageData@@@2@@std@@PAX@2@I@Z 0042af70 f i InstructionState.obj
 0001:00029fa0       ?allocate@?$allocator@U?$_Tree_node@U?$pair@$$CBV?$basic_string@DU?$char_traits@D@std@@V?$allocator@D@2@@std@@V?$weak_ptr@VScyjz14RawImageData@@@2@@std@@PAX@std@@@std@@QAEPAU?$_Tree_node@U?$pair@$$CBV?$basic_string@DU?$char_traits@D@std@@V?$allocator@D@2@@std@@V?$weak_ptr@VScyjz14RawImageData@@@2@@std@@PAX@2@I@Z 0042afa0 f i InstructionState.obj
 0001:00029fd0       ?changeOffset@FilterPointsTranslation@@QAEXHH@Z 0042afd0 f i InstructionState.obj
 0001:0002a010       ?clear@?$vector@PAVDisplayableObject@@V?$allocator@PAVDisplayableObject@@@std@@@std@@QAEXXZ 0042b010 f i InstructionState.obj
 0001:0002a0b0       ?clearContents@DisplayableObjectContainer@@QAEXXZ 0042b0b0 f i InstructionState.obj
 0001:0002a0f0       ?compress@FilterPointsScaling@@QAEXXZ 0042b0f0 f i InstructionState.obj
 0001:0002a120       ?compressX@FilterPointsScaling@@QAEXXZ 0042b120 f i InstructionState.obj
 0001:0002a170       ?compressY@FilterPointsScaling@@QAEXXZ 0042b170 f i InstructionState.obj
 0001:0002a1c0       ?convertClickedToVirtualPixelXPosition@BaseEngine@@QAEHH@Z 0042b1c0 f i InstructionState.obj
 0001:0002a1f0       ?convertClickedToVirtualPixelYPosition@BaseEngine@@QAEHH@Z 0042b1f0 f i InstructionState.obj
 0001:0002a220       ?deallocate@?$_Default_allocator_traits@V?$allocator@U?$_Tree_node@U?$pair@$$CBV?$basic_string@DU?$char_traits@D@std@@V?$allocator@D@2@@std@@V?$weak_ptr@VScyjz14RawImageData@@@2@@std@@PAX@std@@@std@@@std@@SAXAAV?$allocator@U?$_Tree_node@U?$pair@$$CBV?$basic_string@DU?$char_traits@D@std@@V?$allocator@D@2@@std@@V?$weak_ptr@VScyjz14RawImageData@@@2@@std@@PAX@std@@@2@QAU?$_Tree_node@U?$pair@$$CBV?$basic_string@DU?$char_traits@D@std@@V?$allocator@D@2@@std@@V?$weak_ptr@VScyjz14RawImageData@@@2@@std@@PAX@2@I@Z 0042b220 f i InstructionState.obj
 0001:0002a240       ?deallocate@?$allocator@U?$_Tree_node@U?$pair@$$CBV?$basic_string@DU?$char_traits@D@std@@V?$allocator@D@2@@std@@V?$shared_ptr@VScyjz14RawImageData@@@2@@std@@PAX@std@@@std@@QAEXQAU?$_Tree_node@U?$pair@$$CBV?$basic_string@DU?$char_traits@D@std@@V?$allocator@D@2@@std@@V?$shared_ptr@VScyjz14RawImageData@@@2@@std@@PAX@2@I@Z 0042b240 f i InstructionState.obj
 0001:0002a270       ?deallocate@?$allocator@U?$_Tree_node@U?$pair@$$CBV?$basic_string@DU?$char_traits@D@std@@V?$allocator@D@2@@std@@V?$weak_ptr@VScyjz14RawImageData@@@2@@std@@PAX@std@@@std@@QAEXQAU?$_Tree_node@U?$pair@$$CBV?$basic_string@DU?$char_traits@D@std@@V?$allocator@D@2@@std@@V?$weak_ptr@VScyjz14RawImageData@@@2@@std@@PAX@2@I@Z 0042b270 f i InstructionState.obj
 0001:0002a2a0       ?end@?$_Tree@V?$_Tmap_traits@V?$basic_string@DU?$char_traits@D@std@@V?$allocator@D@2@@std@@V?$weak_ptr@VScyjz14RawImageData@@@2@U?$less@V?$basic_string@DU?$char_traits@D@std@@V?$allocator@D@2@@std@@@2@V?$allocator@U?$pair@$$CBV?$basic_string@DU?$char_traits@D@std@@V?$allocator@D@2@@std@@V?$weak_ptr@VScyjz14RawImageData@@@2@@std@@@2@$0A@@std@@@std@@QAE?AV?$_Tree_iterator@V?$_Tree_val@U?$_Tree_simple_types@U?$pair@$$CBV?$basic_string@DU?$char_traits@D@std@@V?$allocator@D@2@@std@@V?$weak_ptr@VScyjz14RawImageData@@@2@@std@@@std@@@std@@@2@XZ 0042b2a0 f i InstructionState.obj
 0001:0002a2e0       ?expired@?$weak_ptr@VRunningState@@@std@@QBE_NXZ 0042b2e0 f i InstructionState.obj
 0001:0002a320       ?expired@?$weak_ptr@VScyjz14RawImageData@@@std@@QBE_NXZ 0042b320 f i InstructionState.obj
 0001:0002a360       ?find@?$_Tree@V?$_Tmap_traits@V?$basic_string@DU?$char_traits@D@std@@V?$allocator@D@2@@std@@V?$weak_ptr@VScyjz14RawImageData@@@2@U?$less@V?$basic_string@DU?$char_traits@D@std@@V?$allocator@D@2@@std@@@2@V?$allocator@U?$pair@$$CBV?$basic_string@DU?$char_traits@D@std@@V?$allocator@D@2@@std@@V?$weak_ptr@VScyjz14RawImageData@@@2@@std@@@2@$0A@@std@@@std@@QAE?AV?$_Tree_iterator@V?$_Tree_val@U?$_Tree_simple_types@U?$pair@$$CBV?$basic_string@DU?$char_traits@D@std@@V?$allocator@D@2@@std@@V?$weak_ptr@VScyjz14RawImageData@@@2@@std@@@std@@@std@@@2@ABV?$basic_string@DU?$char_traits@D@std@@V?$allocator@D@2@@2@@Z 0042b360 f i InstructionState.obj
 0001:0002a3b0       ?get@Scyjz14ImageManager@@SAPAV1@XZ 0042b3b0 f i InstructionState.obj
 0001:0002a460       ?getFilterPointScaling@Scyjz14Engine@@QAEPAVScyjz14FilterPoints@@XZ 0042b460 f i InstructionState.obj
 0001:0002a480       ?getFilterPointsTranslation@Scyjz14Engine@@QAEPAVFilterPointsTranslation@@XZ 0042b480 f i InstructionState.obj
 0001:0002a4a0       ?getImagePtrbyURL@Scyjz14ImageManager@@QAE?AV?$shared_ptr@VScyjz14RawImageData@@@std@@V?$basic_string@DU?$char_traits@D@std@@V?$allocator@D@2@@3@_N1@Z 0042b4a0 f i InstructionState.obj
 0001:0002a8e0       ?getImagebyURL@Scyjz14ImageManager@@QAE?AVScyjz14Image@@V?$basic_string@DU?$char_traits@D@std@@V?$allocator@D@2@@std@@_N1@Z 0042b8e0 f i InstructionState.obj
 0001:0002a9b0       ?getLevelIdentifier@RunningState@@UAEHXZ 0042b9b0 f i InstructionState.obj
 0001:0002a9d0       ?getZoomX@FilterPointsScaling@@QAEMXZ 0042b9d0 f i InstructionState.obj
 0001:0002aa40       ?initialise@State@@UAEXXZ  0042ba40 f i InstructionState.obj
 0001:0002aa50       ?initialiseStateObject@State@@UAEXXZ 0042ba50 f i InstructionState.obj
 0001:0002aa60       ?loadAsNew@Scyjz14ImageManager@@QAE?AV?$shared_ptr@VScyjz14RawImageData@@@std@@V?$basic_string@DU?$char_traits@D@std@@V?$allocator@D@2@@3@@Z 0042ba60 f i InstructionState.obj
 0001:0002ac30       ?loadImage@Scyjz14ImageManager@@SA?AVScyjz14Image@@V?$basic_string@DU?$char_traits@D@std@@V?$allocator@D@2@@std@@_N@Z 0042bc30 f i InstructionState.obj
 0001:0002acf0       ?lock@?$weak_ptr@VScyjz14RawImageData@@@std@@QBE?AV?$shared_ptr@VScyjz14RawImageData@@@2@XZ 0042bcf0 f i InstructionState.obj
 0001:0002ad40       ?lockAndSetupBackground@BaseEngine@@QAEXXZ 0042bd40 f i InstructionState.obj
 0001:0002ad80       ?max_size@?$_Default_allocator_traits@V?$allocator@U?$_Tree_node@U?$pair@$$CBV?$basic_string@DU?$char_traits@D@std@@V?$allocator@D@2@@std@@V?$shared_ptr@VScyjz14RawImageData@@@2@@std@@PAX@std@@@std@@@std@@SAIABV?$allocator@U?$_Tree_node@U?$pair@$$CBV?$basic_string@DU?$char_traits@D@std@@V?$allocator@D@2@@std@@V?$shared_ptr@VScyjz14RawImageData@@@2@@std@@PAX@std@@@2@@Z 0042bd80 f i InstructionState.obj
 0001:0002ad90       ?max_size@?$_Default_allocator_traits@V?$allocator@U?$_Tree_node@U?$pair@$$CBV?$basic_string@DU?$char_traits@D@std@@V?$allocator@D@2@@std@@V?$weak_ptr@VScyjz14RawImageData@@@2@@std@@PAX@std@@@std@@@std@@SAIABV?$allocator@U?$_Tree_node@U?$pair@$$CBV?$basic_string@DU?$char_traits@D@std@@V?$allocator@D@2@@std@@V?$weak_ptr@VScyjz14RawImageData@@@2@@std@@PAX@std@@@2@@Z 0042bd90 f i InstructionState.obj
 0001:0002ada0       ?max_size@?$_Tree@V?$_Tmap_traits@V?$basic_string@DU?$char_traits@D@std@@V?$allocator@D@2@@std@@V?$shared_ptr@VScyjz14RawImageData@@@2@U?$less@V?$basic_string@DU?$char_traits@D@std@@V?$allocator@D@2@@std@@@2@V?$allocator@U?$pair@$$CBV?$basic_string@DU?$char_traits@D@std@@V?$allocator@D@2@@std@@V?$shared_ptr@VScyjz14RawImageData@@@2@@std@@@2@$0A@@std@@@std@@QBEIXZ 0042bda0 f i InstructionState.obj
 0001:0002adf0       ?max_size@?$_Tree@V?$_Tmap_traits@V?$basic_string@DU?$char_traits@D@std@@V?$allocator@D@2@@std@@V?$weak_ptr@VScyjz14RawImageData@@@2@U?$less@V?$basic_string@DU?$char_traits@D@std@@V?$allocator@D@2@@std@@@2@V?$allocator@U?$pair@$$CBV?$basic_string@DU?$char_traits@D@std@@V?$allocator@D@2@@std@@V?$weak_ptr@VScyjz14RawImageData@@@2@@std@@@2@$0A@@std@@@std@@QBEIXZ 0042bdf0 f i InstructionState.obj
 0001:0002ae40       ?pointer_to@?$pointer_traits@PAU?$pair@$$CBV?$basic_string@DU?$char_traits@D@std@@V?$allocator@D@2@@std@@V?$weak_ptr@VScyjz14RawImageData@@@2@@std@@@std@@SAPAU?$pair@$$CBV?$basic_string@DU?$char_traits@D@std@@V?$allocator@D@2@@std@@V?$weak_ptr@VScyjz14RawImageData@@@2@@2@AAU32@@Z 0042be40 f i InstructionState.obj
 0001:0002ae60       ?setEnterImage@Button@@QAEXV?$basic_string@DU?$char_traits@D@std@@V?$allocator@D@2@@std@@@Z 0042be60 f i InstructionState.obj
 0001:0002af20       ?setOffset@FilterPointsTranslation@@QAEXHH@Z 0042bf20 f i InstructionState.obj
 0001:0002af50       ?stretch@FilterPointsScaling@@QAEXXZ 0042bf50 f i InstructionState.obj
 0001:0002af80       ?stretchX@FilterPointsScaling@@QAEXXZ 0042bf80 f i InstructionState.obj
 0001:0002afd0       ?stretchY@FilterPointsScaling@@QAEXXZ 0042bfd0 f i InstructionState.obj
 0001:0002b020       ?swap@?$shared_ptr@VRawImageData@@@std@@QAEXAAV12@@Z 0042c020 f i InstructionState.obj
 0001:0002b040       ?swap@?$shared_ptr@VScyjz14RawImageData@@@std@@QAEXAAV12@@Z 0042c040 f i InstructionState.obj
 0001:0002b060       ?swap@?$weak_ptr@VRunningState@@@std@@QAEXAAV12@@Z 0042c060 f i InstructionState.obj
 0001:0002b080       ?useTopCentreFor00@Button@@QAEXXZ 0042c080 f i InstructionState.obj
 0001:0002b0c0       ?use_count@?$_Ptr_base@VRunningState@@@std@@QBEJXZ 0042c0c0 f i InstructionState.obj
 0001:0002b100       ?use_count@?$_Ptr_base@VScyjz14RawImageData@@@std@@QBEJXZ 0042c100 f i InstructionState.obj
 0001:0002b140       ?virtDraw@Scyjz14ImageObject@@UAEXXZ 0042c140 f i InstructionState.obj
 0001:0002b1c0       ?virtDrawStringsOnTop@State@@UAEXXZ 0042c1c0 f i InstructionState.obj
 0001:0002b1d0       ?virtDrawStringsUnderneath@State@@UAEXXZ 0042c1d0 f i InstructionState.obj
 0001:0002b1e0       ?virtKeyDown@State@@UAEXH@Z 0042c1e0 f i InstructionState.obj
 0001:0002b1f0       ?virtMainLoopDoBeforeUpdate@State@@UAEXXZ 0042c1f0 f i InstructionState.obj
 0001:0002b200       ?virtMainLoopPreUpdate@State@@UAEXXZ 0042c200 f i InstructionState.obj
 0001:0002b210       ?virtMouseDown@State@@UAEXHHH@Z 0042c210 f i InstructionState.obj
 0001:0002b220       ?virtMouseUp@State@@UAEXHHH@Z 0042c220 f i InstructionState.obj
 0001:0002b230       ?virtMouseWheel@State@@UAEXHHHH@Z 0042c230 f i InstructionState.obj
 0001:0002b240       ?virtSetupBackgroundBuffer@State@@UAEXXZ 0042c240 f i InstructionState.obj
 0001:0002b250       ??1LeaderBoardState@@UAE@XZ 0042c250 f   LeaderBoardState.obj
 0001:0002b2d0       ?initialiseStateObject@LeaderBoardState@@UAEXXZ 0042c2d0 f   LeaderBoardState.obj
 0001:0002b3e0       ?virtSetupBackgroundBuffer@LeaderBoardState@@UAEXXZ 0042c3e0 f   LeaderBoardState.obj
 0001:0002b480       ?virtDrawStringsUnderneath@LeaderBoardState@@UAEXXZ 0042c480 f   LeaderBoardState.obj
 0001:0002b680       ?virtDrawStringsOnTop@LeaderBoardState@@UAEXXZ 0042c680 f   LeaderBoardState.obj
 0001:0002b690       ?virtMouseUp@LeaderBoardState@@UAEXHHH@Z 0042c690 f   LeaderBoardState.obj
 0001:0002b760       ?loadScores@LeaderBoardState@@QAEXXZ 0042c760 f   LeaderBoardState.obj
 0001:0002bb00       ??$?0AAPAUScoreEntry@@AAPAU0@$0A@@?$pair@PAUScoreEntry@@PAU1@@std@@QAE@AAPAUScoreEntry@@0@Z 0042cb00 f i LeaderBoardState.obj
 0001:0002bb50       ??$?0AAPAV_Facet_base@std@@@?$_Compressed_pair@U?$default_delete@V_Facet_base@std@@@std@@PAV_Facet_base@2@$00@std@@QAE@U_Zero_then_variadic_args_t@1@AAPAV_Facet_base@1@@Z 0042cb50 f i LeaderBoardState.obj
 0001:0002bb80       ??$?0U?$default_delete@V_Facet_base@std@@@std@@$0A@@?$unique_ptr@V_Facet_base@std@@U?$default_delete@V_Facet_base@std@@@2@@std@@QAE@PAV_Facet_base@1@@Z 0042cb80 f i LeaderBoardState.obj
 0001:0002bbb0       ??$?0UScoreEntry@@@?$allocator@U_Container_proxy@std@@@std@@QAE@ABV?$allocator@UScoreEntry@@@1@@Z 0042cbb0 f i LeaderBoardState.obj
 0001:0002bbd0       ??$?RAAUScoreEntry@@AAU0@@?$less@X@std@@QBE_NAAUScoreEntry@@0@Z 0042cbd0 f i LeaderBoardState.obj
 0001:0002bbf0       ??$_Adl_verify_range@V?$_Vector_iterator@V?$_Vector_val@U?$_Simple_types@UScoreEntry@@@std@@@std@@@std@@V12@@std@@YAXABV?$_Vector_iterator@V?$_Vector_val@U?$_Simple_types@UScoreEntry@@@std@@@std@@@0@0@Z 0042cbf0 f i LeaderBoardState.obj
 0001:0002bc10       ??$_Debug_lt_pred@AAU?$less@X@std@@AAUScoreEntry@@AAU3@$0A@@std@@YA_NAAU?$less@X@0@AAUScoreEntry@@1@Z 0042cc10 f i LeaderBoardState.obj
 0001:0002bcc0       ??$_Destroy_range@V?$allocator@UScoreEntry@@@std@@@std@@YAXPAUScoreEntry@@QAU1@AAV?$allocator@UScoreEntry@@@0@@Z 0042ccc0 f i LeaderBoardState.obj
 0001:0002bd40       ??$_Emplace_back@UScoreEntry@@@?$_Uninitialized_backout_al@V?$allocator@UScoreEntry@@@std@@@std@@QAEX$$QAUScoreEntry@@@Z 0042cd40 f i LeaderBoardState.obj
 0001:0002bda0       ??$_Emplace_back_with_unused_capacity@UScoreEntry@@@?$vector@UScoreEntry@@V?$allocator@UScoreEntry@@@std@@@std@@AAE?A_T$$QAUScoreEntry@@@Z 0042cda0 f i LeaderBoardState.obj
 0001:0002be40       ??$_Emplace_reallocate@UScoreEntry@@@?$vector@UScoreEntry@@V?$allocator@UScoreEntry@@@std@@@std@@QAEPAUScoreEntry@@QAU2@$$QAU2@@Z 0042ce40 f i LeaderBoardState.obj
 0001:0002c090       ??$_Fgetc@D@std@@YA_NAADPAU_iobuf@@@Z 0042d090 f i LeaderBoardState.obj
 0001:0002c0d0       ??$_Fputc@D@std@@YA_NDPAU_iobuf@@@Z 0042d0d0 f i LeaderBoardState.obj
 0001:0002c110       ??$_Get_size_of_n@$0CA@@std@@YAII@Z 0042d110 f i LeaderBoardState.obj
 0001:0002c150       ??$_Get_unwrapped@ABQAUScoreEntry@@@std@@YA?A_TABQAUScoreEntry@@@Z 0042d150 f i LeaderBoardState.obj
 0001:0002c160       ??$_Get_unwrapped@ABV?$_Vector_iterator@V?$_Vector_val@U?$_Simple_types@UScoreEntry@@@std@@@std@@@std@@@std@@YA?A_TABV?$_Vector_iterator@V?$_Vector_val@U?$_Simple_types@UScoreEntry@@@std@@@std@@@0@@Z 0042d160 f i LeaderBoardState.obj
 0001:0002c170       ??$_Guess_median_unchecked@PAUScoreEntry@@U?$less@X@std@@@std@@YAXPAUScoreEntry@@00U?$less@X@0@@Z 0042d170 f i LeaderBoardState.obj
 0001:0002c2a0       ??$_Insertion_sort_unchecked@PAUScoreEntry@@U?$less@X@std@@@std@@YAPAUScoreEntry@@QAU1@0U?$less@X@0@@Z 0042d2a0 f i LeaderBoardState.obj
 0001:0002c450       ??$_Make_heap_unchecked@PAUScoreEntry@@U?$less@X@std@@@std@@YAXPAUScoreEntry@@0U?$less@X@0@@Z 0042d450 f i LeaderBoardState.obj
 0001:0002c540       ??$_Med3_unchecked@PAUScoreEntry@@U?$less@X@std@@@std@@YAXPAUScoreEntry@@00U?$less@X@0@@Z 0042d540 f i LeaderBoardState.obj
 0001:0002c5f0       ??$_Move_backward_unchecked@PAUScoreEntry@@PAU1@@std@@YAPAUScoreEntry@@PAU1@00@Z 0042d5f0 f i LeaderBoardState.obj
 0001:0002c640       ??$_Next_iter@PAUScoreEntry@@@std@@YAPAUScoreEntry@@PAU1@@Z 0042d640 f i LeaderBoardState.obj
 0001:0002c660       ??$_Partition_by_median_guess_unchecked@PAUScoreEntry@@U?$less@X@std@@@std@@YA?AU?$pair@PAUScoreEntry@@PAU1@@0@PAUScoreEntry@@0U?$less@X@0@@Z 0042d660 f i LeaderBoardState.obj
 0001:0002ca20       ??$_Pass_fn@U?$less@X@std@@$0A@@std@@YA?AU?$less@X@0@U10@@Z 0042da20 f i LeaderBoardState.obj
 0001:0002ca30       ??$_Pocma@V?$allocator@D@std@@@std@@YAXAAV?$allocator@D@0@0@Z 0042da30 f i LeaderBoardState.obj
 0001:0002ca50       ??$_Pop_heap_hole_by_index@PAUScoreEntry@@U1@U?$less@X@std@@@std@@YAXPAUScoreEntry@@HH$$QAU1@U?$less@X@0@@Z 0042da50 f i LeaderBoardState.obj
 0001:0002cb90       ??$_Pop_heap_hole_unchecked@PAUScoreEntry@@U1@U?$less@X@std@@@std@@YAXPAUScoreEntry@@00$$QAU1@U?$less@X@0@@Z 0042db90 f i LeaderBoardState.obj
 0001:0002cbf0       ??$_Pop_heap_unchecked@PAUScoreEntry@@U?$less@X@std@@@std@@YAXPAUScoreEntry@@0U?$less@X@0@@Z 0042dbf0 f i LeaderBoardState.obj
 0001:0002ccd0       ??$_Prev_iter@PAUScoreEntry@@@std@@YAPAUScoreEntry@@PAU1@@Z 0042dcd0 f i LeaderBoardState.obj
 0001:0002ccf0       ??$_Push_heap_by_index@PAUScoreEntry@@U1@U?$less@X@std@@@std@@YAXPAUScoreEntry@@HH$$QAU1@U?$less@X@0@@Z 0042dcf0 f i LeaderBoardState.obj
 0001:0002cda0       ??$_Reallocate_grow_by@V<lambda_15711c68e099a15a58f4d77303cb286d>@@D@?$basic_string@DU?$char_traits@D@std@@V?$allocator@D@2@@std@@AAEAAV01@IV<lambda_15711c68e099a15a58f4d77303cb286d>@@D@Z 0042dda0 f i LeaderBoardState.obj
 0001:0002cf10       ??$_Sort_heap_unchecked@PAUScoreEntry@@U?$less@X@std@@@std@@YAXPAUScoreEntry@@0U?$less@X@0@@Z 0042df10 f i LeaderBoardState.obj
 0001:0002cf60       ??$_Sort_unchecked@PAUScoreEntry@@U?$less@X@std@@@std@@YAXPAUScoreEntry@@0HU?$less@X@0@@Z 0042df60 f i LeaderBoardState.obj
 0001:0002d090       ??$_Unfancy@UScoreEntry@@@std@@YAPAUScoreEntry@@PAU1@@Z 0042e090 f i LeaderBoardState.obj
 0001:0002d0a0       ??$_Ungetc@D@std@@YA_NABDPAU_iobuf@@@Z 0042e0a0 f i LeaderBoardState.obj
 0001:0002d0f0       ??$_Uninitialized_move@PAUScoreEntry@@V?$allocator@UScoreEntry@@@std@@@std@@YAPAUScoreEntry@@QAU1@0PAU1@AAV?$allocator@UScoreEntry@@@0@@Z 0042e0f0 f i LeaderBoardState.obj
 0001:0002d1d0       ??$_Voidify_iter@PAUScoreEntry@@@std@@YAPAXPAUScoreEntry@@@Z 0042e1d0 f i LeaderBoardState.obj
 0001:0002d1e0       ??$addressof@$$CBV?$codecvt@DDU_Mbstatet@@@std@@@std@@YAPBV?$codecvt@DDU_Mbstatet@@@0@ABV10@@Z 0042e1e0 f i LeaderBoardState.obj
 0001:0002d1f0       ??$addressof@D@std@@YAPADAAD@Z 0042e1f0 f i LeaderBoardState.obj
 0001:0002d200       ??$addressof@V?$_Vector_val@U?$_Simple_types@UScoreEntry@@@std@@@std@@@std@@YAPAV?$_Vector_val@U?$_Simple_types@UScoreEntry@@@std@@@0@AAV10@@Z 0042e200 f i LeaderBoardState.obj
 0001:0002d210       ??$addressof@V?$basic_filebuf@DU?$char_traits@D@std@@@std@@@std@@YAPAV?$basic_filebuf@DU?$char_traits@D@std@@@0@AAV10@@Z 0042e210 f i LeaderBoardState.obj
 0001:0002d220       ??$addressof@V?$basic_string@DU?$char_traits@D@std@@V?$allocator@D@2@@std@@@std@@YAPAV?$basic_string@DU?$char_traits@D@std@@V?$allocator@D@2@@0@AAV10@@Z 0042e220 f i LeaderBoardState.obj
 0001:0002d230       ??$addressof@V?$basic_stringbuf@DU?$char_traits@D@std@@V?$allocator@D@2@@std@@@std@@YAPAV?$basic_stringbuf@DU?$char_traits@D@std@@V?$allocator@D@2@@0@AAV10@@Z 0042e230 f i LeaderBoardState.obj
 0001:0002d240       ??$construct@UScoreEntry@@U1@@?$_Default_allocator_traits@V?$allocator@UScoreEntry@@@std@@@std@@SAXAAV?$allocator@UScoreEntry@@@1@QAUScoreEntry@@$$QAU3@@Z 0042e240 f i LeaderBoardState.obj
 0001:0002d290       ??$destroy@UScoreEntry@@@?$_Default_allocator_traits@V?$allocator@UScoreEntry@@@std@@@std@@SAXAAV?$allocator@UScoreEntry@@@1@QAUScoreEntry@@@Z 0042e290 f i LeaderBoardState.obj
 0001:0002d2b0       ??$emplace_back@UScoreEntry@@@?$vector@UScoreEntry@@V?$allocator@UScoreEntry@@@std@@@std@@QAE?A_T$$QAUScoreEntry@@@Z 0042e2b0 f i LeaderBoardState.obj
 0001:0002d330       ??$exchange@PAV_Facet_base@std@@$$T@std@@YAPAV_Facet_base@0@AAPAV10@$$QA$$T@Z 0042e330 f i LeaderBoardState.obj
 0001:0002d360       ??$forward@AAPAUScoreEntry@@@std@@YAAAPAUScoreEntry@@AAPAU1@@Z 0042e360 f i LeaderBoardState.obj
 0001:0002d370       ??$forward@AAPAV_Facet_base@std@@@std@@YAAAPAV_Facet_base@0@AAPAV10@@Z 0042e370 f i LeaderBoardState.obj
 0001:0002d380       ??$forward@UScoreEntry@@@std@@YA$$QAUScoreEntry@@AAU1@@Z 0042e380 f i LeaderBoardState.obj
 0001:0002d390       ??$getline@DU?$char_traits@D@std@@V?$allocator@D@2@@std@@YAAAV?$basic_istream@DU?$char_traits@D@std@@@0@$$QAV10@AAV?$basic_string@DU?$char_traits@D@std@@V?$allocator@D@2@@0@D@Z 0042e390 f i LeaderBoardState.obj
 0001:0002d610       ??$getline@DU?$char_traits@D@std@@V?$allocator@D@2@@std@@YAAAV?$basic_istream@DU?$char_traits@D@std@@@0@AAV10@AAV?$basic_string@DU?$char_traits@D@std@@V?$allocator@D@2@@0@@Z 0042e610 f i LeaderBoardState.obj
 0001:0002d660       ??$getline@DU?$char_traits@D@std@@V?$allocator@D@2@@std@@YAAAV?$basic_istream@DU?$char_traits@D@std@@@0@AAV10@AAV?$basic_string@DU?$char_traits@D@std@@V?$allocator@D@2@@0@D@Z 0042e660 f i LeaderBoardState.obj
 0001:0002d690       ??$iter_swap@PAUScoreEntry@@PAU1@@std@@YAXPAUScoreEntry@@0@Z 0042e690 f i LeaderBoardState.obj
 0001:0002d6b0       ??$max@PAD@std@@YAABQADABQAD0@Z 0042e6b0 f i LeaderBoardState.obj
 0001:0002d6f0       ??$min@H@std@@YAABHABH0@Z  0042e6f0 f i LeaderBoardState.obj
 0001:0002d730       ??$move@AAUScoreEntry@@@std@@YA$$QAUScoreEntry@@AAU1@@Z 0042e730 f i LeaderBoardState.obj
 0001:0002d740       ??$move@AAV?$basic_istream@DU?$char_traits@D@std@@@std@@@std@@YA$$QAV?$basic_istream@DU?$char_traits@D@std@@@0@AAV10@@Z 0042e740 f i LeaderBoardState.obj
 0001:0002d750       ??$sort@V?$_Vector_iterator@V?$_Vector_val@U?$_Simple_types@UScoreEntry@@@std@@@std@@@std@@@std@@YAXV?$_Vector_iterator@V?$_Vector_val@U?$_Simple_types@UScoreEntry@@@std@@@std@@@0@0@Z 0042e750 f i LeaderBoardState.obj
 0001:0002d800       ??$sort@V?$_Vector_iterator@V?$_Vector_val@U?$_Simple_types@UScoreEntry@@@std@@@std@@@std@@U?$less@X@2@@std@@YAXV?$_Vector_iterator@V?$_Vector_val@U?$_Simple_types@UScoreEntry@@@std@@@std@@@0@0U?$less@X@0@@Z 0042e800 f i LeaderBoardState.obj
 0001:0002d8e0       ??$swap@UScoreEntry@@$0A@@std@@YAXAAUScoreEntry@@0@Z 0042e8e0 f i LeaderBoardState.obj
 0001:0002d960       ??$use_facet@V?$codecvt@DDU_Mbstatet@@@std@@@std@@YAABV?$codecvt@DDU_Mbstatet@@@0@ABVlocale@0@@Z 0042e960 f i LeaderBoardState.obj
 0001:0002dab0       ??0?$_Uninitialized_backout_al@V?$allocator@UScoreEntry@@@std@@@std@@QAE@PAUScoreEntry@@AAV?$allocator@UScoreEntry@@@1@@Z 0042eab0 f i LeaderBoardState.obj
 0001:0002daf0       ??0?$_Vector_const_iterator@V?$_Vector_val@U?$_Simple_types@UScoreEntry@@@std@@@std@@@std@@QAE@ABV01@@Z 0042eaf0 f i LeaderBoardState.obj
 0001:0002db30       ??0?$_Vector_const_iterator@V?$_Vector_val@U?$_Simple_types@UScoreEntry@@@std@@@std@@@std@@QAE@PAUScoreEntry@@PBU_Container_base12@1@@Z 0042eb30 f i LeaderBoardState.obj
 0001:0002db70       ??0?$_Vector_iterator@V?$_Vector_val@U?$_Simple_types@UScoreEntry@@@std@@@std@@@std@@QAE@ABV01@@Z 0042eb70 f i LeaderBoardState.obj
 0001:0002dba0       ??0?$_Vector_iterator@V?$_Vector_val@U?$_Simple_types@UScoreEntry@@@std@@@std@@@std@@QAE@PAUScoreEntry@@PBU_Container_base12@1@@Z 0042eba0 f i LeaderBoardState.obj
 0001:0002dbd0       ??0?$basic_filebuf@DU?$char_traits@D@std@@@std@@QAE@XZ 0042ebd0 f i LeaderBoardState.obj
 0001:0002dc50       ??0?$basic_ifstream@DU?$char_traits@D@std@@@std@@QAE@PBDHH@Z 0042ec50 f i LeaderBoardState.obj
 0001:0002dda0       ??0?$basic_istringstream@DU?$char_traits@D@std@@V?$allocator@D@2@@std@@QAE@ABV?$basic_string@DU?$char_traits@D@std@@V?$allocator@D@2@@1@H@Z 0042eda0 f i LeaderBoardState.obj
 0001:0002dec0       ??0?$basic_string@DU?$char_traits@D@std@@V?$allocator@D@2@@std@@QAE@XZ 0042eec0 f i LeaderBoardState.obj
 0001:0002df50       ??0?$basic_stringbuf@DU?$char_traits@D@std@@V?$allocator@D@2@@std@@QAE@ABV?$basic_string@DU?$char_traits@D@std@@V?$allocator@D@2@@1@H@Z 0042ef50 f i LeaderBoardState.obj
 0001:0002e010       ??0?$fpos@U_Mbstatet@@@std@@QAE@U_Mbstatet@@_J@Z 0042f010 f i LeaderBoardState.obj
 0001:0002e060       ??0?$fpos@U_Mbstatet@@@std@@QAE@_J@Z 0042f060 f i LeaderBoardState.obj
 0001:0002e0b0       ??0ScoreEntry@@QAE@$$QAU0@@Z 0042f0b0 f i LeaderBoardState.obj
 0001:0002e0f0       ??0_Sentry_base@?$basic_istream@DU?$char_traits@D@std@@@std@@QAE@AAV12@@Z 0042f0f0 f i LeaderBoardState.obj
 0001:0002e150       ??0bad_cast@std@@QAE@ABV01@@Z 0042f150 f i LeaderBoardState.obj
 0001:0002e180       ??0bad_cast@std@@QAE@XZ    0042f180 f i LeaderBoardState.obj
 0001:0002e1b0       ??0sentry@?$basic_istream@DU?$char_traits@D@std@@@std@@QAE@AAV12@_N@Z 0042f1b0 f i LeaderBoardState.obj
 0001:0002e240       ??1?$_Uninitialized_backout_al@V?$allocator@UScoreEntry@@@std@@@std@@QAE@XZ 0042f240 f i LeaderBoardState.obj
 0001:0002e270       ??1?$_Vector_const_iterator@V?$_Vector_val@U?$_Simple_types@UScoreEntry@@@std@@@std@@@std@@QAE@XZ 0042f270 f i LeaderBoardState.obj
 0001:0002e290       ??1?$_Vector_iterator@V?$_Vector_val@U?$_Simple_types@UScoreEntry@@@std@@@std@@@std@@QAE@XZ 0042f290 f i LeaderBoardState.obj
 0001:0002e2b0       ??1?$basic_filebuf@DU?$char_traits@D@std@@@std@@UAE@XZ 0042f2b0 f i LeaderBoardState.obj
 0001:0002e340       ??1?$basic_ifstream@DU?$char_traits@D@std@@@std@@UAE@XZ 0042f340 f i LeaderBoardState.obj
 0001:0002e3b0       ??1?$basic_istringstream@DU?$char_traits@D@std@@V?$allocator@D@2@@std@@UAE@XZ 0042f3b0 f i LeaderBoardState.obj
 0001:0002e420       ??1?$basic_stringbuf@DU?$char_traits@D@std@@V?$allocator@D@2@@std@@UAE@XZ 0042f420 f i LeaderBoardState.obj
 0001:0002e450       ??1?$unique_ptr@V_Facet_base@std@@U?$default_delete@V_Facet_base@std@@@2@@std@@QAE@XZ 0042f450 f i LeaderBoardState.obj
 0001:0002e490       ??1?$vector@UScoreEntry@@V?$allocator@UScoreEntry@@@std@@@std@@QAE@XZ 0042f490 f i LeaderBoardState.obj
 0001:0002e500       ??1ScoreEntry@@QAE@XZ      0042f500 f i LeaderBoardState.obj
 0001:0002e520       ??1_Sentry_base@?$basic_istream@DU?$char_traits@D@std@@@std@@QAE@XZ 0042f520 f i LeaderBoardState.obj
 0001:0002e5b0       ??1bad_cast@std@@UAE@XZ    0042f5b0 f i LeaderBoardState.obj
 0001:0002e5d0       ??1locale@std@@QAE@XZ      0042f5d0 f i LeaderBoardState.obj
 0001:0002e630       ??1sentry@?$basic_istream@DU?$char_traits@D@std@@@std@@QAE@XZ 0042f630 f i LeaderBoardState.obj
 0001:0002e650       ??4?$basic_string@DU?$char_traits@D@std@@V?$allocator@D@2@@std@@QAEAAV01@$$QAV01@@Z 0042f650 f i LeaderBoardState.obj
 0001:0002e6a0       ??4ScoreEntry@@QAEAAU0@$$QAU0@@Z 0042f6a0 f i LeaderBoardState.obj
 0001:0002e6e0       ??A?$vector@UScoreEntry@@V?$allocator@UScoreEntry@@@std@@@std@@QAEAAUScoreEntry@@I@Z 0042f6e0 f i LeaderBoardState.obj
 0001:0002e790       ??B?$fpos@U_Mbstatet@@@std@@QBE_JXZ 0042f790 f i LeaderBoardState.obj
 0001:0002e7c0       ??Bsentry@?$basic_istream@DU?$char_traits@D@std@@@std@@QBE_NXZ 0042f7c0 f i LeaderBoardState.obj
 0001:0002e7e0       ??MScoreEntry@@QBE_NABU0@@Z 0042f7e0 f i LeaderBoardState.obj
 0001:0002e820       ??R<lambda_15711c68e099a15a58f4d77303cb286d>@@QBE@QADQBDID@Z 0042f820 f i LeaderBoardState.obj
 0001:0002e890       ??R?$default_delete@V_Facet_base@std@@@std@@QBEXPAV_Facet_base@1@@Z 0042f890 f i LeaderBoardState.obj
 0001:0002e8e0       ??Y?$basic_string@DU?$char_traits@D@std@@V?$allocator@D@2@@std@@QAEAAV01@D@Z 0042f8e0 f i LeaderBoardState.obj
 0001:0002e910       ??_D?$basic_ifstream@DU?$char_traits@D@std@@@std@@QAEXXZ 0042f910 f i LeaderBoardState.obj
 0001:0002e940       ??_D?$basic_istringstream@DU?$char_traits@D@std@@V?$allocator@D@2@@std@@QAEXXZ 0042f940 f i LeaderBoardState.obj
 0001:0002e96a       ??_E?$basic_ifstream@DU?$char_traits@D@std@@@std@@$4PPPPPPPM@A@AEPAXI@Z 0042f96a f i LeaderBoardState.obj
 0001:0002e974       ??_E?$basic_istringstream@DU?$char_traits@D@std@@V?$allocator@D@2@@std@@$4PPPPPPPM@A@AEPAXI@Z 0042f974 f i LeaderBoardState.obj
 0001:0002e980       ??_E?$basic_filebuf@DU?$char_traits@D@std@@@std@@UAEPAXI@Z 0042f980 f i LeaderBoardState.obj
 0001:0002e980       ??_G?$basic_filebuf@DU?$char_traits@D@std@@@std@@UAEPAXI@Z 0042f980 f i LeaderBoardState.obj
 0001:0002e9c0       ??_E?$basic_ifstream@DU?$char_traits@D@std@@@std@@UAEPAXI@Z 0042f9c0 f i LeaderBoardState.obj
 0001:0002e9c0       ??_G?$basic_ifstream@DU?$char_traits@D@std@@@std@@UAEPAXI@Z 0042f9c0 f i LeaderBoardState.obj
 0001:0002ea10       ??_G?$basic_istringstream@DU?$char_traits@D@std@@V?$allocator@D@2@@std@@UAEPAXI@Z 0042fa10 f i LeaderBoardState.obj
 0001:0002ea10       ??_E?$basic_istringstream@DU?$char_traits@D@std@@V?$allocator@D@2@@std@@UAEPAXI@Z 0042fa10 f i LeaderBoardState.obj
 0001:0002ea60       ??_G?$basic_stringbuf@DU?$char_traits@D@std@@V?$allocator@D@2@@std@@UAEPAXI@Z 0042fa60 f i LeaderBoardState.obj
 0001:0002ea60       ??_E?$basic_stringbuf@DU?$char_traits@D@std@@V?$allocator@D@2@@std@@UAEPAXI@Z 0042fa60 f i LeaderBoardState.obj
 0001:0002eaa0       ??_GLeaderBoardState@@UAEPAXI@Z 0042faa0 f i LeaderBoardState.obj
 0001:0002eaa0       ??_ELeaderBoardState@@UAEPAXI@Z 0042faa0 f i LeaderBoardState.obj
 0001:0002eae0       ??_GScoreEntry@@QAEPAXI@Z  0042fae0 f i LeaderBoardState.obj
 0001:0002eb20       ??_Gbad_cast@std@@UAEPAXI@Z 0042fb20 f i LeaderBoardState.obj
 0001:0002eb20       ??_Ebad_cast@std@@UAEPAXI@Z 0042fb20 f i LeaderBoardState.obj
 0001:0002eb60       ?_Calculate_growth@?$vector@UScoreEntry@@V?$allocator@UScoreEntry@@@std@@@std@@ABEII@Z 0042fb60 f i LeaderBoardState.obj
 0001:0002ebd0       ?_Change_array@?$vector@UScoreEntry@@V?$allocator@UScoreEntry@@@std@@@std@@AAEXQAUScoreEntry@@II@Z 0042fbd0 f i LeaderBoardState.obj
 0001:0002eca0       ?_Check_offset@?$_String_val@U?$_Simple_types@D@std@@@std@@QBEXI@Z 0042fca0 f i LeaderBoardState.obj
 0001:0002ecd0       ?_Clamp_suffix_size@?$_String_val@U?$_Simple_types@D@std@@@std@@QBEIII@Z 0042fcd0 f i LeaderBoardState.obj
 0001:0002ed10       ?_Destroy@?$vector@UScoreEntry@@V?$allocator@UScoreEntry@@@std@@@std@@AAEXPAUScoreEntry@@0@Z 0042fd10 f i LeaderBoardState.obj
 0001:0002ed40       ?_Endwrite@?$basic_filebuf@DU?$char_traits@D@std@@@std@@IAE_NXZ 0042fd40 f i LeaderBoardState.obj
 0001:0002eea0       ?_Eos@?$basic_string@DU?$char_traits@D@std@@V?$allocator@D@2@@std@@AAEXI@Z 0042fea0 f i LeaderBoardState.obj
 0001:0002eef0       ?_Erase_noexcept@?$basic_string@DU?$char_traits@D@std@@V?$allocator@D@2@@std@@AAEAAV12@II@Z 0042fef0 f i LeaderBoardState.obj
 0001:0002ef80       ?_Get_first@?$_Compressed_pair@U?$default_delete@V_Facet_base@std@@@std@@PAV_Facet_base@2@$00@std@@QAEAAU?$default_delete@V_Facet_base@std@@@2@XZ 0042ff80 f i LeaderBoardState.obj
 0001:0002efa0       ?_Get_first@?$_Compressed_pair@V?$allocator@UScoreEntry@@@std@@V?$_Vector_val@U?$_Simple_types@UScoreEntry@@@std@@@2@$00@std@@QAEAAV?$allocator@UScoreEntry@@@2@XZ 0042ffa0 f i LeaderBoardState.obj
 0001:0002efc0       ?_Get_first@?$_Compressed_pair@V?$allocator@UScoreEntry@@@std@@V?$_Vector_val@U?$_Simple_types@UScoreEntry@@@std@@@2@$00@std@@QBEABV?$allocator@UScoreEntry@@@2@XZ 0042ffc0 f i LeaderBoardState.obj
 0001:0002efe0       ?_Getal@?$vector@UScoreEntry@@V?$allocator@UScoreEntry@@@std@@@std@@AAEAAV?$allocator@UScoreEntry@@@2@XZ 0042ffe0 f i LeaderBoardState.obj
 0001:0002f000       ?_Getal@?$vector@UScoreEntry@@V?$allocator@UScoreEntry@@@std@@@std@@ABEABV?$allocator@UScoreEntry@@@2@XZ 00430000 f i LeaderBoardState.obj
 0001:0002f020       ?_Getfacet@locale@std@@QBEPBVfacet@12@I@Z 00430020 f i LeaderBoardState.obj
 0001:0002f0c0       ?_Getstate@?$basic_stringbuf@DU?$char_traits@D@std@@V?$allocator@D@2@@std@@CAHH@Z 004300c0 f i LeaderBoardState.obj
 0001:0002f130       ?_Init@?$basic_filebuf@DU?$char_traits@D@std@@@std@@IAEXPAU_iobuf@@W4_Initfl@12@@Z 00430130 f i LeaderBoardState.obj
 0001:0002f230       ?_Init@?$basic_stringbuf@DU?$char_traits@D@std@@V?$allocator@D@2@@std@@IAEXPBDIH@Z 00430230 f i LeaderBoardState.obj
 0001:0002f380       ?_Initcvt@?$basic_filebuf@DU?$char_traits@D@std@@@std@@IAEXABV?$codecvt@DDU_Mbstatet@@@2@@Z 00430380 f i LeaderBoardState.obj
 0001:0002f3e0       ?_Lock@?$basic_filebuf@DU?$char_traits@D@std@@@std@@UAEXXZ 004303e0 f i LeaderBoardState.obj
 0001:0002f410       ?_Move_assign@?$basic_string@DU?$char_traits@D@std@@V?$allocator@D@2@@std@@AAEXAAV12@U_Equal_allocators@2@@Z 00430410 f i LeaderBoardState.obj
 0001:0002f460       ?_Orphan_range@?$vector@UScoreEntry@@V?$allocator@UScoreEntry@@@std@@@std@@ABEXPAUScoreEntry@@0@Z 00430460 f i LeaderBoardState.obj
 0001:0002f490       ?_Orphan_range_locked@?$vector@UScoreEntry@@V?$allocator@UScoreEntry@@@std@@@std@@ABEXPAUScoreEntry@@0@Z 00430490 f i LeaderBoardState.obj
 0001:0002f520       ?_Orphan_range_unlocked@?$vector@UScoreEntry@@V?$allocator@UScoreEntry@@@std@@@std@@ABEXPAUScoreEntry@@0@Z 00430520 f i LeaderBoardState.obj
 0001:0002f5b0       ?_Release@?$_Uninitialized_backout_al@V?$allocator@UScoreEntry@@@std@@@std@@QAEPAUScoreEntry@@XZ 004305b0 f i LeaderBoardState.obj
 0001:0002f5e0       ?_Reset_back@?$basic_filebuf@DU?$char_traits@D@std@@@std@@AAEXXZ 004305e0 f i LeaderBoardState.obj
 0001:0002f630       ?_Set_back@?$basic_filebuf@DU?$char_traits@D@std@@@std@@AAEXXZ 00430630 f i LeaderBoardState.obj
 0001:0002f6a0       ?_Throw_bad_cast@std@@YAXXZ 004306a0 f i LeaderBoardState.obj
 0001:0002f6d0       ?_Tidy@?$basic_stringbuf@DU?$char_traits@D@std@@V?$allocator@D@2@@std@@IAEXXZ 004306d0 f i LeaderBoardState.obj
 0001:0002f7e0       ?_Tidy@?$vector@UScoreEntry@@V?$allocator@UScoreEntry@@@std@@@std@@AAEXXZ 004307e0 f i LeaderBoardState.obj
 0001:0002f8d0       ?_Umove@?$vector@UScoreEntry@@V?$allocator@UScoreEntry@@@std@@@std@@AAEPAUScoreEntry@@PAU3@00@Z 004308d0 f i LeaderBoardState.obj
 0001:0002f910       ?_Umove_if_noexcept1@?$vector@UScoreEntry@@V?$allocator@UScoreEntry@@@std@@@std@@AAEXPAUScoreEntry@@00U?$integral_constant@_N$00@2@@Z 00430910 f i LeaderBoardState.obj
 0001:0002f950       ?_Umove_if_noexcept@?$vector@UScoreEntry@@V?$allocator@UScoreEntry@@@std@@@std@@AAEXPAUScoreEntry@@00@Z 00430950 f i LeaderBoardState.obj
 0001:0002f990       ?_Unlock@?$basic_filebuf@DU?$char_traits@D@std@@@std@@UAEXXZ 00430990 f i LeaderBoardState.obj
 0001:0002f9c0       ?_Unwrapped@?$_Vector_iterator@V?$_Vector_val@U?$_Simple_types@UScoreEntry@@@std@@@std@@@std@@QBEPAUScoreEntry@@XZ 004309c0 f i LeaderBoardState.obj
 0001:0002f9e0       ?_Verify_range@std@@YAXABV?$_Vector_const_iterator@V?$_Vector_val@U?$_Simple_types@UScoreEntry@@@std@@@std@@@1@0@Z 004309e0 f i LeaderBoardState.obj
 0001:0002fae0       ?_Xlength@?$vector@UScoreEntry@@V?$allocator@UScoreEntry@@@std@@@std@@CAXXZ 00430ae0 f i LeaderBoardState.obj
 0001:0002fb00       ?_Xran@?$_String_val@U?$_Simple_types@D@std@@@std@@SAXXZ 00430b00 f i LeaderBoardState.obj
 0001:0002fb20       ?allocate@?$allocator@UScoreEntry@@@std@@QAEPAUScoreEntry@@I@Z 00430b20 f i LeaderBoardState.obj
 0001:0002fb50       ?begin@?$vector@UScoreEntry@@V?$allocator@UScoreEntry@@@std@@@std@@QAE?AV?$_Vector_iterator@V?$_Vector_val@U?$_Simple_types@UScoreEntry@@@std@@@std@@@2@XZ 00430b50 f i LeaderBoardState.obj
 0001:0002fba0       ?capacity@?$vector@UScoreEntry@@V?$allocator@UScoreEntry@@@std@@@std@@QBEIXZ 00430ba0 f i LeaderBoardState.obj
 0001:0002fbd0       ?close@?$basic_filebuf@DU?$char_traits@D@std@@@std@@QAEPAV12@XZ 00430bd0 f i LeaderBoardState.obj
 0001:0002fc60       ?close@?$basic_ifstream@DU?$char_traits@D@std@@@std@@QAEXXZ 00430c60 f i LeaderBoardState.obj
 0001:0002fca0       ?deallocate@?$allocator@UScoreEntry@@@std@@QAEXQAUScoreEntry@@I@Z 00430ca0 f i LeaderBoardState.obj
 0001:0002fcd0       ?drawBackgroundString@BaseEngine@@QAEXHHPBDIPAVFont@@@Z 00430cd0 f i LeaderBoardState.obj
 0001:0002fd10       ?end@?$vector@UScoreEntry@@V?$allocator@UScoreEntry@@@std@@@std@@QAE?AV?$_Vector_iterator@V?$_Vector_val@U?$_Simple_types@UScoreEntry@@@std@@@std@@@2@XZ 00430d10 f i LeaderBoardState.obj
 0001:0002fd60       ?eq@?$_Narrow_char_traits@DH@std@@SA_NABD0@Z 00430d60 f i LeaderBoardState.obj
 0001:0002fda0       ?erase@?$basic_string@DU?$char_traits@D@std@@V?$allocator@D@2@@std@@QAEAAV12@I@Z 00430da0 f i LeaderBoardState.obj
 0001:0002fde0       ?erase@?$basic_string@DU?$char_traits@D@std@@V?$allocator@D@2@@std@@QAEAAV12@II@Z 00430de0 f i LeaderBoardState.obj
 0001:0002fe20       ?front@?$basic_string@DU?$char_traits@D@std@@V?$allocator@D@2@@std@@QAEAADXZ 00430e20 f i LeaderBoardState.obj
 0001:0002fec0       ?getFont@BaseEngine@@QAEPAVFont@@PBDH@Z 00430ec0 f i LeaderBoardState.obj
 0001:0002fef0       ?get_allocator@?$basic_string@DU?$char_traits@D@std@@V?$allocator@D@2@@std@@QBE?AV?$allocator@D@2@XZ 00430ef0 f i LeaderBoardState.obj
 0001:0002ff10       ?imbue@?$basic_filebuf@DU?$char_traits@D@std@@@std@@MAEXABVlocale@2@@Z 00430f10 f i LeaderBoardState.obj
 0001:0002ff40       ?max_size@?$_Default_allocator_traits@V?$allocator@UScoreEntry@@@std@@@std@@SAIABV?$allocator@UScoreEntry@@@2@@Z 00430f40 f i LeaderBoardState.obj
 0001:0002ff50       ?max_size@?$vector@UScoreEntry@@V?$allocator@UScoreEntry@@@std@@@std@@QBEIXZ 00430f50 f i LeaderBoardState.obj
 0001:0002ffa0       ?not_eof@?$_Narrow_char_traits@DH@std@@SAHABH@Z 00430fa0 f i LeaderBoardState.obj
 0001:00030000       ?open@?$basic_filebuf@DU?$char_traits@D@std@@@std@@QAEPAV12@PBDHH@Z 00431000 f i LeaderBoardState.obj
 0001:000300f0       ?overflow@?$basic_filebuf@DU?$char_traits@D@std@@@std@@MAEHH@Z 004310f0 f i LeaderBoardState.obj
 0001:00030340       ?overflow@?$basic_stringbuf@DU?$char_traits@D@std@@V?$allocator@D@2@@std@@MAEHH@Z 00431340 f i LeaderBoardState.obj
 0001:000305c0       ?pbackfail@?$basic_filebuf@DU?$char_traits@D@std@@@std@@MAEHH@Z 004315c0 f i LeaderBoardState.obj
 0001:00030770       ?pbackfail@?$basic_stringbuf@DU?$char_traits@D@std@@V?$allocator@D@2@@std@@MAEHH@Z 00431770 f i LeaderBoardState.obj
 0001:00030890       ?pointer_to@?$pointer_traits@PAD@std@@SAPADAAD@Z 00431890 f i LeaderBoardState.obj
 0001:000308b0       ?push_back@?$basic_string@DU?$char_traits@D@std@@V?$allocator@D@2@@std@@QAEXD@Z 004318b0 f i LeaderBoardState.obj
 0001:00030960       ?push_back@?$vector@UScoreEntry@@V?$allocator@UScoreEntry@@@std@@@std@@QAEX$$QAUScoreEntry@@@Z 00431960 f i LeaderBoardState.obj
 0001:00030990       ?release@?$unique_ptr@V_Facet_base@std@@U?$default_delete@V_Facet_base@std@@@2@@std@@QAEPAV_Facet_base@2@XZ 00431990 f i LeaderBoardState.obj
 0001:000309c0       ?seekoff@?$basic_filebuf@DU?$char_traits@D@std@@@std@@MAE?AV?$fpos@U_Mbstatet@@@2@_JHH@Z 004319c0 f i LeaderBoardState.obj
 0001:00030ad0       ?seekoff@?$basic_stringbuf@DU?$char_traits@D@std@@V?$allocator@D@2@@std@@MAE?AV?$fpos@U_Mbstatet@@@2@_JHH@Z 00431ad0 f i LeaderBoardState.obj
 0001:00030d60       ?seekpos@?$basic_filebuf@DU?$char_traits@D@std@@@std@@MAE?AV?$fpos@U_Mbstatet@@@2@V32@H@Z 00431d60 f i LeaderBoardState.obj
 0001:00030e30       ?seekpos@?$basic_stringbuf@DU?$char_traits@D@std@@V?$allocator@D@2@@std@@MAE?AV?$fpos@U_Mbstatet@@@2@V32@H@Z 00431e30 f i LeaderBoardState.obj
 0001:00030fe0       ?setbuf@?$basic_filebuf@DU?$char_traits@D@std@@@std@@MAEPAV?$basic_streambuf@DU?$char_traits@D@std@@@2@PAD_J@Z 00431fe0 f i LeaderBoardState.obj
 0001:00031080       ?size@?$vector@UScoreEntry@@V?$allocator@UScoreEntry@@@std@@@std@@QBEIXZ 00432080 f i LeaderBoardState.obj
 0001:000310b0       ?state@?$fpos@U_Mbstatet@@@std@@QBE?AU_Mbstatet@@XZ 004320b0 f i LeaderBoardState.obj
 0001:000310e0       ?sync@?$basic_filebuf@DU?$char_traits@D@std@@@std@@MAEHXZ 004320e0 f i LeaderBoardState.obj
 0001:00031160       ?to_char_type@?$_Narrow_char_traits@DH@std@@SADABH@Z 00432160 f i LeaderBoardState.obj
 0001:00031170       ?to_int_type@?$_Narrow_char_traits@DH@std@@SAHABD@Z 00432170 f i LeaderBoardState.obj
 0001:00031180       ?uflow@?$basic_filebuf@DU?$char_traits@D@std@@@std@@MAEHXZ 00432180 f i LeaderBoardState.obj
 0001:00031490       ?underflow@?$basic_filebuf@DU?$char_traits@D@std@@@std@@MAEHXZ 00432490 f i LeaderBoardState.obj
 0001:00031550       ?underflow@?$basic_stringbuf@DU?$char_traits@D@std@@V?$allocator@D@2@@std@@MAEHXZ 00432550 f i LeaderBoardState.obj
 0001:00031660       ?xsgetn@?$basic_filebuf@DU?$char_traits@D@std@@@std@@MAE_JPAD_J@Z 00432660 f i LeaderBoardState.obj
 0001:00031820       ?xsputn@?$basic_filebuf@DU?$char_traits@D@std@@@std@@MAE_JPBD_J@Z 00432820 f i LeaderBoardState.obj
 0001:00031980       __vsnprintf_l              00432980 f i LeaderBoardState.obj
 0001:000319f0       __vsprintf_l               004329f0 f i LeaderBoardState.obj
 0001:00031a20       _sprintf                   00432a20 f i LeaderBoardState.obj
 0001:00031a60       ??0LoseState@@QAE@PAVScyjz14Engine@@@Z 00432a60 f   LoseState.obj
 0001:00031b90       ??1LoseState@@UAE@XZ       00432b90 f   LoseState.obj
 0001:00031c20       ?initialiseStateObject@LoseState@@UAEXXZ 00432c20 f   LoseState.obj
 0001:00031dc0       ?virtSetupBackgroundBuffer@LoseState@@UAEXXZ 00432dc0 f   LoseState.obj
 0001:00032160       ?virtMouseUp@LoseState@@UAEXHHH@Z 00433160 f   LoseState.obj
 0001:000322c0       ?virtMainLoopDoBeforeUpdate@LoseState@@UAEXXZ 004332c0 f   LoseState.obj
 0001:00032570       ??$?0$$V@?$_Compressed_pair@V?$allocator@VDrawingSurface@@@std@@V?$_Vector_val@U?$_Simple_types@VDrawingSurface@@@std@@@2@$00@std@@QAE@U_Zero_then_variadic_args_t@1@@Z 00433570 f i LoseState.obj
 0001:000325a0       ??$?0ABV?$allocator@VScyjz14Image@@@std@@$$V@?$_Compressed_pair@V?$allocator@VScyjz14Image@@@std@@V?$_Vector_val@U?$_Simple_types@VScyjz14Image@@@std@@@2@$00@std@@QAE@U_One_then_variadic_args_t@1@ABV?$allocator@VScyjz14Image@@@1@@Z 004335a0 f i LoseState.obj
 0001:000325d0       ??$?0VDrawingSurface@@@?$allocator@U_Container_proxy@std@@@std@@QAE@ABV?$allocator@VDrawingSurface@@@1@@Z 004335d0 f i LoseState.obj
 0001:000325f0       ??$?0VScyjz14Image@@@?$allocator@U_Container_proxy@std@@@std@@QAE@ABV?$allocator@VScyjz14Image@@@1@@Z 004335f0 f i LoseState.obj
 0001:00032610       ??$_Destroy_range@V?$allocator@VDrawingSurface@@@std@@@std@@YAXPAVDrawingSurface@@QAV1@AAV?$allocator@VDrawingSurface@@@0@@Z 00433610 f i LoseState.obj
 0001:00032690       ??$_Destroy_range@V?$allocator@VScyjz14Image@@@std@@@std@@YAXPAVScyjz14Image@@QAV1@AAV?$allocator@VScyjz14Image@@@0@@Z 00433690 f i LoseState.obj
 0001:00032710       ??$_Emplace_back@ABVDrawingSurface@@@?$_Uninitialized_backout_al@V?$allocator@VDrawingSurface@@@std@@@std@@QAEXABVDrawingSurface@@@Z 00433710 f i LoseState.obj
 0001:00032770       ??$_Emplace_back@ABVScyjz14Image@@@?$_Uninitialized_backout_al@V?$allocator@VScyjz14Image@@@std@@@std@@QAEXABVScyjz14Image@@@Z 00433770 f i LoseState.obj
 0001:000327d0       ??$_Emplace_back@VDrawingSurface@@@?$_Uninitialized_backout_al@V?$allocator@VDrawingSurface@@@std@@@std@@QAEX$$QAVDrawingSurface@@@Z 004337d0 f i LoseState.obj
 0001:00032830       ??$_Get_size_of_n@$0CI@@std@@YAII@Z 00433830 f i LoseState.obj
 0001:00032860       ??$_Get_unwrapped@ABQAVDrawingSurface@@@std@@YA?A_TABQAVDrawingSurface@@@Z 00433860 f i LoseState.obj
 0001:00032870       ??$_Get_unwrapped@ABQBVScyjz14Image@@@std@@YA?A_TABQBVScyjz14Image@@@Z 00433870 f i LoseState.obj
 0001:00032880       ??$_Range_construct_or_tidy@PBVScyjz14Image@@@?$vector@VScyjz14Image@@V?$allocator@VScyjz14Image@@@std@@@std@@AAEXPBVScyjz14Image@@0Uforward_iterator_tag@1@@Z 00433880 f i LoseState.obj
 0001:00032960       ??$_Resize@VDrawingSurface@@@?$vector@VDrawingSurface@@V?$allocator@VDrawingSurface@@@std@@@std@@AAEXIABVDrawingSurface@@@Z 00433960 f i LoseState.obj
 0001:00032a90       ??$_Resize_reallocate@VDrawingSurface@@@?$vector@VDrawingSurface@@V?$allocator@VDrawingSurface@@@std@@@std@@AAEXIABVDrawingSurface@@@Z 00433a90 f i LoseState.obj
 0001:00032c40       ??$_Ucopy@PBVScyjz14Image@@@?$vector@VScyjz14Image@@V?$allocator@VScyjz14Image@@@std@@@std@@AAEPAVScyjz14Image@@PBV2@0PAV2@@Z 00433c40 f i LoseState.obj
 0001:00032c80       ??$_Unfancy@VDrawingSurface@@@std@@YAPAVDrawingSurface@@PAV1@@Z 00433c80 f i LoseState.obj
 0001:00032c90       ??$_Unfancy@VScyjz14Image@@@std@@YAPAVScyjz14Image@@PAV1@@Z 00433c90 f i LoseState.obj
 0001:00032ca0       ??$_Uninitialized_copy@PBVScyjz14Image@@V?$allocator@VScyjz14Image@@@std@@@std@@YAPAVScyjz14Image@@QBV1@0PAV1@AAV?$allocator@VScyjz14Image@@@0@@Z 00433ca0 f i LoseState.obj
 0001:00032d70       ??$_Uninitialized_fill_n@V?$allocator@VDrawingSurface@@@std@@@std@@YAPAVDrawingSurface@@PAV1@IABV1@AAV?$allocator@VDrawingSurface@@@0@@Z 00433d70 f i LoseState.obj
 0001:00032e20       ??$_Uninitialized_move@PAVDrawingSurface@@V?$allocator@VDrawingSurface@@@std@@@std@@YAPAVDrawingSurface@@QAV1@0PAV1@AAV?$allocator@VDrawingSurface@@@0@@Z 00433e20 f i LoseState.obj
 0001:00032f00       ??$_Voidify_iter@PAVDrawingSurface@@@std@@YAPAXPAVDrawingSurface@@@Z 00433f00 f i LoseState.obj
 0001:00032f10       ??$_Voidify_iter@PAVScyjz14Image@@@std@@YAPAXPAVScyjz14Image@@@Z 00433f10 f i LoseState.obj
 0001:00032f20       ??$construct@VDrawingSurface@@ABV1@@?$_Default_allocator_traits@V?$allocator@VDrawingSurface@@@std@@@std@@SAXAAV?$allocator@VDrawingSurface@@@1@QAVDrawingSurface@@ABV3@@Z 00433f20 f i LoseState.obj
 0001:00032f70       ??$construct@VDrawingSurface@@V1@@?$_Default_allocator_traits@V?$allocator@VDrawingSurface@@@std@@@std@@SAXAAV?$allocator@VDrawingSurface@@@1@QAVDrawingSurface@@$$QAV3@@Z 00433f70 f i LoseState.obj
 0001:00032fc0       ??$construct@VScyjz14Image@@ABV1@@?$_Default_allocator_traits@V?$allocator@VScyjz14Image@@@std@@@std@@SAXAAV?$allocator@VScyjz14Image@@@1@QAVScyjz14Image@@ABV3@@Z 00433fc0 f i LoseState.obj
 0001:00033010       ??$destroy@VDrawingSurface@@@?$_Default_allocator_traits@V?$allocator@VDrawingSurface@@@std@@@std@@SAXAAV?$allocator@VDrawingSurface@@@1@QAVDrawingSurface@@@Z 00434010 f i LoseState.obj
 0001:00033030       ??$destroy@VScyjz14Image@@@?$_Default_allocator_traits@V?$allocator@VScyjz14Image@@@std@@@std@@SAXAAV?$allocator@VScyjz14Image@@@1@QAVScyjz14Image@@@Z 00434030 f i LoseState.obj
 0001:00033050       ??$distance@PBVScyjz14Image@@@std@@YAHPBVScyjz14Image@@0@Z 00434050 f i LoseState.obj
 0001:00033070       ??$forward@ABV?$allocator@VScyjz14Image@@@std@@@std@@YAABV?$allocator@VScyjz14Image@@@0@ABV10@@Z 00434070 f i LoseState.obj
 0001:00033080       ??$forward@ABVDrawingSurface@@@std@@YAABVDrawingSurface@@ABV1@@Z 00434080 f i LoseState.obj
 0001:00033090       ??$forward@ABVScyjz14Image@@@std@@YAABVScyjz14Image@@ABV1@@Z 00434090 f i LoseState.obj
 0001:000330a0       ??$forward@VDrawingSurface@@@std@@YA$$QAVDrawingSurface@@AAV1@@Z 004340a0 f i LoseState.obj
 0001:000330b0       ??$move@AAVDrawingSurface@@@std@@YA$$QAVDrawingSurface@@AAV1@@Z 004340b0 f i LoseState.obj
 0001:000330c0       ??0?$_Uninitialized_backout_al@V?$allocator@VDrawingSurface@@@std@@@std@@QAE@PAVDrawingSurface@@AAV?$allocator@VDrawingSurface@@@1@@Z 004340c0 f i LoseState.obj
 0001:00033100       ??0?$_Uninitialized_backout_al@V?$allocator@VScyjz14Image@@@std@@@std@@QAE@PAVScyjz14Image@@AAV?$allocator@VScyjz14Image@@@1@@Z 00434100 f i LoseState.obj
 0001:00033140       ??0?$_Vector_val@U?$_Simple_types@VDrawingSurface@@@std@@@std@@QAE@XZ 00434140 f i LoseState.obj
 0001:00033190       ??0?$_Vector_val@U?$_Simple_types@VScyjz14Image@@@std@@@std@@QAE@XZ 00434190 f i LoseState.obj
 0001:000331e0       ??0?$allocator@VDrawingSurface@@@std@@QAE@XZ 004341e0 f i LoseState.obj
 0001:00033200       ??0?$allocator@VScyjz14Image@@@std@@QAE@XZ 00434200 f i LoseState.obj
 0001:00033220       ??0?$initializer_list@VScyjz14Image@@@std@@QAE@PBVScyjz14Image@@0@Z 00434220 f i LoseState.obj
 0001:00033250       ??0?$vector@VDrawingSurface@@V?$allocator@VDrawingSurface@@@std@@@std@@QAE@XZ 00434250 f i LoseState.obj
 0001:000332d0       ??0?$vector@VScyjz14Image@@V?$allocator@VScyjz14Image@@@std@@@std@@QAE@V?$initializer_list@VScyjz14Image@@@1@ABV?$allocator@VScyjz14Image@@@1@@Z 004342d0 f i LoseState.obj
 0001:000333b0       ??1?$_Tidy_guard@V?$vector@VScyjz14Image@@V?$allocator@VScyjz14Image@@@std@@@std@@@std@@QAE@XZ 004343b0 f i LoseState.obj
 0001:000333e0       ??1?$_Uninitialized_backout_al@V?$allocator@VDrawingSurface@@@std@@@std@@QAE@XZ 004343e0 f i LoseState.obj
 0001:00033410       ??1?$_Uninitialized_backout_al@V?$allocator@VScyjz14Image@@@std@@@std@@QAE@XZ 00434410 f i LoseState.obj
 0001:00033440       ??1?$vector@VDrawingSurface@@V?$allocator@VDrawingSurface@@@std@@@std@@QAE@XZ 00434440 f i LoseState.obj
 0001:000334b0       ??1?$vector@VScyjz14Image@@V?$allocator@VScyjz14Image@@@std@@@std@@QAE@XZ 004344b0 f i LoseState.obj
 0001:00033520       ??A?$vector@VDrawingSurface@@V?$allocator@VDrawingSurface@@@std@@@std@@QAEAAVDrawingSurface@@I@Z 00434520 f i LoseState.obj
 0001:000335d0       ??A?$vector@VScyjz14Image@@V?$allocator@VScyjz14Image@@@std@@@std@@QAEAAVScyjz14Image@@I@Z 004345d0 f i LoseState.obj
 0001:00033680       ??_GDrawingSurface@@QAEPAXI@Z 00434680 f i LoseState.obj
 0001:000336c0       ??_ELoseState@@UAEPAXI@Z   004346c0 f i LoseState.obj
 0001:000336c0       ??_GLoseState@@UAEPAXI@Z   004346c0 f i LoseState.obj
 0001:00033700       ??_GScyjz14Image@@QAEPAXI@Z 00434700 f i LoseState.obj
 0001:00033740       ?_Buy_nonzero@?$vector@VScyjz14Image@@V?$allocator@VScyjz14Image@@@std@@@std@@AAEXI@Z 00434740 f i LoseState.obj
 0001:00033780       ?_Buy_raw@?$vector@VScyjz14Image@@V?$allocator@VScyjz14Image@@@std@@@std@@AAEXI@Z 00434780 f i LoseState.obj
 0001:00033800       ?_Calculate_growth@?$vector@VDrawingSurface@@V?$allocator@VDrawingSurface@@@std@@@std@@ABEII@Z 00434800 f i LoseState.obj
 0001:00033870       ?_Change_array@?$vector@VDrawingSurface@@V?$allocator@VDrawingSurface@@@std@@@std@@AAEXQAVDrawingSurface@@II@Z 00434870 f i LoseState.obj
 0001:00033940       ?_Destroy@?$vector@VDrawingSurface@@V?$allocator@VDrawingSurface@@@std@@@std@@AAEXPAVDrawingSurface@@0@Z 00434940 f i LoseState.obj
 0001:00033970       ?_Destroy@?$vector@VScyjz14Image@@V?$allocator@VScyjz14Image@@@std@@@std@@AAEXPAVScyjz14Image@@0@Z 00434970 f i LoseState.obj
 0001:000339a0       ?_Get_first@?$_Compressed_pair@V?$allocator@VDrawingSurface@@@std@@V?$_Vector_val@U?$_Simple_types@VDrawingSurface@@@std@@@2@$00@std@@QAEAAV?$allocator@VDrawingSurface@@@2@XZ 004349a0 f i LoseState.obj
 0001:000339c0       ?_Get_first@?$_Compressed_pair@V?$allocator@VDrawingSurface@@@std@@V?$_Vector_val@U?$_Simple_types@VDrawingSurface@@@std@@@2@$00@std@@QBEABV?$allocator@VDrawingSurface@@@2@XZ 004349c0 f i LoseState.obj
 0001:000339e0       ?_Get_first@?$_Compressed_pair@V?$allocator@VScyjz14Image@@@std@@V?$_Vector_val@U?$_Simple_types@VScyjz14Image@@@std@@@2@$00@std@@QAEAAV?$allocator@VScyjz14Image@@@2@XZ 004349e0 f i LoseState.obj
 0001:00033a00       ?_Get_first@?$_Compressed_pair@V?$allocator@VScyjz14Image@@@std@@V?$_Vector_val@U?$_Simple_types@VScyjz14Image@@@std@@@2@$00@std@@QBEABV?$allocator@VScyjz14Image@@@2@XZ 00434a00 f i LoseState.obj
 0001:00033a20       ?_Getal@?$vector@VDrawingSurface@@V?$allocator@VDrawingSurface@@@std@@@std@@AAEAAV?$allocator@VDrawingSurface@@@2@XZ 00434a20 f i LoseState.obj
 0001:00033a40       ?_Getal@?$vector@VDrawingSurface@@V?$allocator@VDrawingSurface@@@std@@@std@@ABEABV?$allocator@VDrawingSurface@@@2@XZ 00434a40 f i LoseState.obj
 0001:00033a60       ?_Getal@?$vector@VScyjz14Image@@V?$allocator@VScyjz14Image@@@std@@@std@@AAEAAV?$allocator@VScyjz14Image@@@2@XZ 00434a60 f i LoseState.obj
 0001:00033a80       ?_Getal@?$vector@VScyjz14Image@@V?$allocator@VScyjz14Image@@@std@@@std@@ABEABV?$allocator@VScyjz14Image@@@2@XZ 00434a80 f i LoseState.obj
 0001:00033aa0       ?_Orphan_range@?$vector@VDrawingSurface@@V?$allocator@VDrawingSurface@@@std@@@std@@ABEXPAVDrawingSurface@@0@Z 00434aa0 f i LoseState.obj
 0001:00033ad0       ?_Orphan_range_locked@?$vector@VDrawingSurface@@V?$allocator@VDrawingSurface@@@std@@@std@@ABEXPAVDrawingSurface@@0@Z 00434ad0 f i LoseState.obj
 0001:00033b60       ?_Orphan_range_unlocked@?$vector@VDrawingSurface@@V?$allocator@VDrawingSurface@@@std@@@std@@ABEXPAVDrawingSurface@@0@Z 00434b60 f i LoseState.obj
 0001:00033bf0       ?_Release@?$_Uninitialized_backout_al@V?$allocator@VDrawingSurface@@@std@@@std@@QAEPAVDrawingSurface@@XZ 00434bf0 f i LoseState.obj
 0001:00033c20       ?_Release@?$_Uninitialized_backout_al@V?$allocator@VScyjz14Image@@@std@@@std@@QAEPAVScyjz14Image@@XZ 00434c20 f i LoseState.obj
 0001:00033c50       ?_Tidy@?$vector@VDrawingSurface@@V?$allocator@VDrawingSurface@@@std@@@std@@AAEXXZ 00434c50 f i LoseState.obj
 0001:00033d50       ?_Tidy@?$vector@VScyjz14Image@@V?$allocator@VScyjz14Image@@@std@@@std@@AAEXXZ 00434d50 f i LoseState.obj
 0001:00033e50       ?_Ufill@?$vector@VDrawingSurface@@V?$allocator@VDrawingSurface@@@std@@@std@@AAEPAVDrawingSurface@@PAV3@IABV3@@Z 00434e50 f i LoseState.obj
 0001:00033e90       ?_Umove_if_noexcept1@?$vector@VDrawingSurface@@V?$allocator@VDrawingSurface@@@std@@@std@@AAEXPAVDrawingSurface@@00U?$integral_constant@_N$00@2@@Z 00434e90 f i LoseState.obj
 0001:00033ed0       ?_Umove_if_noexcept@?$vector@VDrawingSurface@@V?$allocator@VDrawingSurface@@@std@@@std@@AAEXPAVDrawingSurface@@00@Z 00434ed0 f i LoseState.obj
 0001:00033f10       ?_Unchecked_begin@?$vector@VDrawingSurface@@V?$allocator@VDrawingSurface@@@std@@@std@@QAEPAVDrawingSurface@@XZ 00434f10 f i LoseState.obj
 0001:00033f30       ?_Unchecked_end@?$vector@VDrawingSurface@@V?$allocator@VDrawingSurface@@@std@@@std@@QAEPAVDrawingSurface@@XZ 00434f30 f i LoseState.obj
 0001:00033f50       ?_Xlength@?$vector@VDrawingSurface@@V?$allocator@VDrawingSurface@@@std@@@std@@CAXXZ 00434f50 f i LoseState.obj
 0001:00033f70       ?_Xlength@?$vector@VScyjz14Image@@V?$allocator@VScyjz14Image@@@std@@@std@@CAXXZ 00434f70 f i LoseState.obj
 0001:00033f90       ?allocate@?$allocator@VDrawingSurface@@@std@@QAEPAVDrawingSurface@@I@Z 00434f90 f i LoseState.obj
 0001:00033fc0       ?allocate@?$allocator@VScyjz14Image@@@std@@QAEPAVScyjz14Image@@I@Z 00434fc0 f i LoseState.obj
 0001:00033ff0       ?begin@?$initializer_list@VScyjz14Image@@@std@@QBEPBVScyjz14Image@@XZ 00434ff0 f i LoseState.obj
 0001:00034010       ?capacity@?$vector@VDrawingSurface@@V?$allocator@VDrawingSurface@@@std@@@std@@QBEIXZ 00435010 f i LoseState.obj
 0001:00034040       ?clearScore@Scyjz14Engine@@QAEXXZ 00435040 f i LoseState.obj
 0001:00034060       ?deallocate@?$allocator@VDrawingSurface@@@std@@QAEXQAVDrawingSurface@@I@Z 00435060 f i LoseState.obj
 0001:00034090       ?deallocate@?$allocator@VScyjz14Image@@@std@@QAEXQAVScyjz14Image@@I@Z 00435090 f i LoseState.obj
 0001:000340c0       ?end@?$initializer_list@VScyjz14Image@@@std@@QBEPBVScyjz14Image@@XZ 004350c0 f i LoseState.obj
 0001:000340e0       ?getScore@Scyjz14Engine@@QAEHXZ 004350e0 f i LoseState.obj
 0001:00034100       ?max_size@?$_Default_allocator_traits@V?$allocator@VDrawingSurface@@@std@@@std@@SAIABV?$allocator@VDrawingSurface@@@2@@Z 00435100 f i LoseState.obj
 0001:00034110       ?max_size@?$_Default_allocator_traits@V?$allocator@VScyjz14Image@@@std@@@std@@SAIABV?$allocator@VScyjz14Image@@@2@@Z 00435110 f i LoseState.obj
 0001:00034120       ?max_size@?$vector@VDrawingSurface@@V?$allocator@VDrawingSurface@@@std@@@std@@QBEIXZ 00435120 f i LoseState.obj
 0001:00034170       ?max_size@?$vector@VScyjz14Image@@V?$allocator@VScyjz14Image@@@std@@@std@@QBEIXZ 00435170 f i LoseState.obj
 0001:000341c0       ?resetBackgroundSurface@Scyjz14Engine@@QAEXXZ 004351c0 f i LoseState.obj
 0001:000341f0       ?resize@?$vector@VDrawingSurface@@V?$allocator@VDrawingSurface@@@std@@@std@@QAEXIABVDrawingSurface@@@Z 004351f0 f i LoseState.obj
 0001:00034220       ?setBackgroundSurface@Scyjz14Engine@@QAEXPAVDrawingSurface@@@Z 00435220 f i LoseState.obj
 0001:00034240       ?size@?$vector@VScyjz14Image@@V?$allocator@VScyjz14Image@@@std@@@std@@QBEIXZ 00435240 f i LoseState.obj
 0001:00034270       ??$?0H@?$allocator@U_Container_proxy@std@@@std@@QAE@ABV?$allocator@H@1@@Z 00435270 f i ObjectIndexes.obj
 0001:00034290       ??$_Destroy_range@V?$allocator@H@std@@@std@@YAXPAHQAHAAV?$allocator@H@0@@Z 00435290 f i ObjectIndexes.obj
 0001:000342a0       ??1?$unique_ptr@V?$vector@HV?$allocator@H@std@@@std@@U?$default_delete@V?$vector@HV?$allocator@H@std@@@std@@@2@@std@@QAE@XZ 004352a0 f i ObjectIndexes.obj
 0001:000342e0       ??1?$vector@HV?$allocator@H@std@@@std@@QAE@XZ 004352e0 f i ObjectIndexes.obj
 0001:00034350       ??R?$default_delete@V?$vector@HV?$allocator@H@std@@@std@@@std@@QBEXPAV?$vector@HV?$allocator@H@std@@@1@@Z 00435350 f i ObjectIndexes.obj
 0001:00034390       ??_G?$vector@HV?$allocator@H@std@@@std@@QAEPAXI@Z 00435390 f i ObjectIndexes.obj
 0001:000343d0       ?_Destroy@?$vector@HV?$allocator@H@std@@@std@@AAEXPAH0@Z 004353d0 f i ObjectIndexes.obj
 0001:00034400       ?_Get_first@?$_Compressed_pair@U?$default_delete@V?$vector@HV?$allocator@H@std@@@std@@@std@@PAV?$vector@HV?$allocator@H@std@@@2@$00@std@@QAEAAU?$default_delete@V?$vector@HV?$allocator@H@std@@@std@@@2@XZ 00435400 f i ObjectIndexes.obj
 0001:00034420       ?_Get_first@?$_Compressed_pair@V?$allocator@H@std@@V?$_Vector_val@U?$_Simple_types@H@std@@@2@$00@std@@QAEAAV?$allocator@H@2@XZ 00435420 f i ObjectIndexes.obj
 0001:00034440       ?_Getal@?$vector@HV?$allocator@H@std@@@std@@AAEAAV?$allocator@H@2@XZ 00435440 f i ObjectIndexes.obj
 0001:00034460       ?_Tidy@?$vector@HV?$allocator@H@std@@@std@@AAEXXZ 00435460 f i ObjectIndexes.obj
 0001:00034550       ?deallocate@?$allocator@H@std@@QAEXQAHI@Z 00435550 f i ObjectIndexes.obj
 0001:00034580       ?virtSetupBackgroundBuffer@ImageMappingDemo@@UAEXXZ 00435580 f   ImageMappingDemo.obj
 0001:00034680       ?virtInitialiseObjects@ImageMappingDemo@@UAEHXZ 00435680 f   ImageMappingDemo.obj
 0001:000349f0       ?virtKeyDown@ImageMappingDemo@@UAEXH@Z 004359f0 f   ImageMappingDemo.obj
 0001:00034a20       ?virtMainLoopDoBeforeUpdate@ImageMappingDemo@@UAEXXZ 00435a20 f   ImageMappingDemo.obj
 0001:00034ab0       ?mapCoordinates@ImageMappingDemo@@UAE_NAAN0ABVSimpleImage@@@Z 00435ab0 f   ImageMappingDemo.obj
 0001:00034f20       ??0MappableImageObject@@QAE@PAVImagePixelMapping@@HHPAVBaseEngine@@V?$basic_string@DU?$char_traits@D@std@@V?$allocator@D@2@@std@@_N3@Z 00435f20 f i ImageMappingDemo.obj
 0001:00034fe0       ??1MappableImageObject@@UAE@XZ 00435fe0 f i ImageMappingDemo.obj
 0001:00035000       ??_EMappableImageObject@@UAEPAXI@Z 00436000 f i ImageMappingDemo.obj
 0001:00035000       ??_GMappableImageObject@@UAEPAXI@Z 00436000 f i ImageMappingDemo.obj
 0001:00035040       ?getPixelColour@MappableImageObject@@QAEHHH@Z 00436040 f i ImageMappingDemo.obj
 0001:00035070       ?getPixelColour@SimpleImage@@QBEHHH@Z 00436070 f i ImageMappingDemo.obj
 0001:000350a0       ?getRawPixelColour@RawImageData@@QBEHHH@Z 004360a0 f i ImageMappingDemo.obj
 0001:000350f0       ?getTheData@SimpleImage@@QBEABV?$shared_ptr@VRawImageData@@@std@@XZ 004360f0 f i ImageMappingDemo.obj
 0001:00035110       ?setOpaque@RawImageData@@QAEXXZ 00436110 f i ImageMappingDemo.obj
 0001:00035180       ?setRotation@ImagePixelMappingRotate@@QAEXN@Z 00436180 f i ImageMappingDemo.obj
 0001:000351a0       ?setTransparencyColour@MappableImageObject@@QAEXH@Z 004361a0 f i ImageMappingDemo.obj
 0001:000351d0       ?setTransparencyColour@SimpleImage@@QAEXH@Z 004361d0 f i ImageMappingDemo.obj
 0001:00035240       ?setTransparentColour@RawImageData@@QAEXI@Z 00436240 f i ImageMappingDemo.obj
 0001:00035360       ?setXShift@ImagePixelMappingShiftXY@@QAEXN@Z 00436360 f i ImageMappingDemo.obj
 0001:00035380       ?setYShift@ImagePixelMappingShiftXY@@QAEXN@Z 00436380 f i ImageMappingDemo.obj
 0001:000353a0       ?virtDraw@MappableImageObject@@UAEXXZ 004363a0 f i ImageMappingDemo.obj
 0001:00035430       _SDL_main                  00436430 f   mainfunction.obj
 0001:000354b0       ?doProgram@@YAHHQAPAD@Z    004364b0 f   mainfunction.obj
 0001:000355f0       ??$?0$$V@?$_Compressed_pair@U?$default_delete@VScyjz14TileManager@@@std@@PAVScyjz14TileManager@@$00@std@@QAE@U_Zero_then_variadic_args_t@1@@Z 004365f0 f i mainfunction.obj
 0001:00035610       ??$?0$$V@?$_Compressed_pair@V?$allocator@H@std@@V?$_Vector_val@U?$_Simple_types@H@std@@@2@$00@std@@QAE@U_Zero_then_variadic_args_t@1@@Z 00436610 f i mainfunction.obj
 0001:00035640       ??$?0AAPAV?$vector@HV?$allocator@H@std@@@std@@@?$_Compressed_pair@U?$default_delete@V?$vector@HV?$allocator@H@std@@@std@@@std@@PAV?$vector@HV?$allocator@H@std@@@2@$00@std@@QAE@U_Zero_then_variadic_args_t@1@AAPAV?$vector@HV?$allocator@H@std@@@1@@Z 00436640 f i mainfunction.obj
 0001:00035670       ??$?0U?$default_delete@V?$vector@HV?$allocator@H@std@@@std@@@std@@$0A@@?$unique_ptr@V?$vector@HV?$allocator@H@std@@@std@@U?$default_delete@V?$vector@HV?$allocator@H@std@@@std@@@2@@std@@QAE@$$QAV01@@Z 00436670 f i mainfunction.obj
 0001:000356c0       ??$?0U?$default_delete@V?$vector@HV?$allocator@H@std@@@std@@@std@@$0A@@?$unique_ptr@V?$vector@HV?$allocator@H@std@@@std@@U?$default_delete@V?$vector@HV?$allocator@H@std@@@std@@@2@@std@@QAE@PAV?$vector@HV?$allocator@H@std@@@1@@Z 004366c0 f i mainfunction.obj
 0001:000356f0       ??$?0U?$default_delete@V?$vector@HV?$allocator@H@std@@@std@@@std@@PAV?$vector@HV?$allocator@H@std@@@1@@?$_Compressed_pair@U?$default_delete@V?$vector@HV?$allocator@H@std@@@std@@@std@@PAV?$vector@HV?$allocator@H@std@@@2@$00@std@@QAE@U_One_then_variadic_args_t@1@$$QAU?$default_delete@V?$vector@HV?$allocator@H@std@@@std@@@1@$$QAPAV?$vector@HV?$allocator@H@std@@@1@@Z 004366f0 f i mainfunction.obj
 0001:00035730       ??$?0U?$default_delete@VScyjz14TileManager@@@std@@$0A@@?$unique_ptr@VScyjz14TileManager@@U?$default_delete@VScyjz14TileManager@@@std@@@std@@QAE@XZ 00436730 f i mainfunction.obj
 0001:00035760       ??$?0VStartUpState@@$0A@@?$shared_ptr@VState@@@std@@QAE@PAVStartUpState@@@Z 00436760 f i mainfunction.obj
 0001:00035850       ??$?4U?$default_delete@V?$vector@HV?$allocator@H@std@@@std@@@std@@$0A@@?$unique_ptr@V?$vector@HV?$allocator@H@std@@@std@@U?$default_delete@V?$vector@HV?$allocator@H@std@@@std@@@2@@std@@QAEAAV01@$$QAV01@@Z 00436850 f i mainfunction.obj
 0001:000358b0       ??$_Erase_head@V?$allocator@U?$_Tree_node@U?$pair@$$CBV?$basic_string@DU?$char_traits@D@std@@V?$allocator@D@2@@std@@V?$shared_ptr@VRawImageData@@@2@@std@@PAX@std@@@std@@@?$_Tree_val@U?$_Tree_simple_types@U?$pair@$$CBV?$basic_string@DU?$char_traits@D@std@@V?$allocator@D@2@@std@@V?$shared_ptr@VRawImageData@@@2@@std@@@std@@@std@@QAEXAAV?$allocator@U?$_Tree_node@U?$pair@$$CBV?$basic_string@DU?$char_traits@D@std@@V?$allocator@D@2@@std@@V?$shared_ptr@VRawImageData@@@2@@std@@PAX@std@@@1@@Z 004368b0 f i mainfunction.obj
 0001:00035900       ??$_Erase_head@V?$allocator@U?$_Tree_node@U?$pair@$$CBV?$basic_string@DU?$char_traits@D@std@@V?$allocator@D@2@@std@@V?$shared_ptr@VScyjz14RawImageData@@@2@@std@@PAX@std@@@std@@@?$_Tree_val@U?$_Tree_simple_types@U?$pair@$$CBV?$basic_string@DU?$char_traits@D@std@@V?$allocator@D@2@@std@@V?$shared_ptr@VScyjz14RawImageData@@@2@@std@@@std@@@std@@QAEXAAV?$allocator@U?$_Tree_node@U?$pair@$$CBV?$basic_string@DU?$char_traits@D@std@@V?$allocator@D@2@@std@@V?$shared_ptr@VScyjz14RawImageData@@@2@@std@@PAX@std@@@1@@Z 00436900 f i mainfunction.obj
 0001:00035950       ??$_Erase_tree@V?$allocator@U?$_Tree_node@U?$pair@$$CBV?$basic_string@DU?$char_traits@D@std@@V?$allocator@D@2@@std@@V?$shared_ptr@VRawImageData@@@2@@std@@PAX@std@@@std@@@?$_Tree_val@U?$_Tree_simple_types@U?$pair@$$CBV?$basic_string@DU?$char_traits@D@std@@V?$allocator@D@2@@std@@V?$shared_ptr@VRawImageData@@@2@@std@@@std@@@std@@QAEXAAV?$allocator@U?$_Tree_node@U?$pair@$$CBV?$basic_string@DU?$char_traits@D@std@@V?$allocator@D@2@@std@@V?$shared_ptr@VRawImageData@@@2@@std@@PAX@std@@@1@PAU?$_Tree_node@U?$pair@$$CBV?$basic_string@DU?$char_traits@D@std@@V?$allocator@D@2@@std@@V?$shared_ptr@VRawImageData@@@2@@std@@PAX@1@@Z 00436950 f i mainfunction.obj
 0001:000359b0       ??$_Erase_tree@V?$allocator@U?$_Tree_node@U?$pair@$$CBV?$basic_string@DU?$char_traits@D@std@@V?$allocator@D@2@@std@@V?$shared_ptr@VScyjz14RawImageData@@@2@@std@@PAX@std@@@std@@@?$_Tree_val@U?$_Tree_simple_types@U?$pair@$$CBV?$basic_string@DU?$char_traits@D@std@@V?$allocator@D@2@@std@@V?$shared_ptr@VScyjz14RawImageData@@@2@@std@@@std@@@std@@QAEXAAV?$allocator@U?$_Tree_node@U?$pair@$$CBV?$basic_string@DU?$char_traits@D@std@@V?$allocator@D@2@@std@@V?$shared_ptr@VScyjz14RawImageData@@@2@@std@@PAX@std@@@1@PAU?$_Tree_node@U?$pair@$$CBV?$basic_string@DU?$char_traits@D@std@@V?$allocator@D@2@@std@@V?$shared_ptr@VScyjz14RawImageData@@@2@@std@@PAX@1@@Z 004369b0 f i mainfunction.obj
 0001:00035a10       ??$_Freenode0@V?$allocator@U?$_Tree_node@U?$pair@$$CBV?$basic_string@DU?$char_traits@D@std@@V?$allocator@D@2@@std@@V?$shared_ptr@VRawImageData@@@2@@std@@PAX@std@@@std@@@?$_Tree_node@U?$pair@$$CBV?$basic_string@DU?$char_traits@D@std@@V?$allocator@D@2@@std@@V?$shared_ptr@VRawImageData@@@2@@std@@PAX@std@@SAXAAV?$allocator@U?$_Tree_node@U?$pair@$$CBV?$basic_string@DU?$char_traits@D@std@@V?$allocator@D@2@@std@@V?$shared_ptr@VRawImageData@@@2@@std@@PAX@std@@@1@PAU01@@Z 00436a10 f i mainfunction.obj
 0001:00035aa0       ??$_Freenode0@V?$allocator@U?$_Tree_node@U?$pair@$$CBV?$basic_string@DU?$char_traits@D@std@@V?$allocator@D@2@@std@@V?$shared_ptr@VScyjz14RawImageData@@@2@@std@@PAX@std@@@std@@@?$_Tree_node@U?$pair@$$CBV?$basic_string@DU?$char_traits@D@std@@V?$allocator@D@2@@std@@V?$shared_ptr@VScyjz14RawImageData@@@2@@std@@PAX@std@@SAXAAV?$allocator@U?$_Tree_node@U?$pair@$$CBV?$basic_string@DU?$char_traits@D@std@@V?$allocator@D@2@@std@@V?$shared_ptr@VScyjz14RawImageData@@@2@@std@@PAX@std@@@1@PAU01@@Z 00436aa0 f i mainfunction.obj
 0001:00035b30       ??$_Freenode@V?$allocator@U?$_Tree_node@U?$pair@$$CBV?$basic_string@DU?$char_traits@D@std@@V?$allocator@D@2@@std@@V?$shared_ptr@VRawImageData@@@2@@std@@PAX@std@@@std@@@?$_Tree_node@U?$pair@$$CBV?$basic_string@DU?$char_traits@D@std@@V?$allocator@D@2@@std@@V?$shared_ptr@VRawImageData@@@2@@std@@PAX@std@@SAXAAV?$allocator@U?$_Tree_node@U?$pair@$$CBV?$basic_string@DU?$char_traits@D@std@@V?$allocator@D@2@@std@@V?$shared_ptr@VRawImageData@@@2@@std@@PAX@std@@@1@PAU01@@Z 00436b30 f i mainfunction.obj
 0001:00035bb0       ??$_Freenode@V?$allocator@U?$_Tree_node@U?$pair@$$CBV?$basic_string@DU?$char_traits@D@std@@V?$allocator@D@2@@std@@V?$shared_ptr@VScyjz14RawImageData@@@2@@std@@PAX@std@@@std@@@?$_Tree_node@U?$pair@$$CBV?$basic_string@DU?$char_traits@D@std@@V?$allocator@D@2@@std@@V?$shared_ptr@VScyjz14RawImageData@@@2@@std@@PAX@std@@SAXAAV?$allocator@U?$_Tree_node@U?$pair@$$CBV?$basic_string@DU?$char_traits@D@std@@V?$allocator@D@2@@std@@V?$shared_ptr@VScyjz14RawImageData@@@2@@std@@PAX@std@@@1@PAU01@@Z 00436bb0 f i mainfunction.obj
 0001:00035c30       ??$_Set_ptr_rep_and_enable_shared@VStartUpState@@@?$shared_ptr@VState@@@std@@AAEXQAVStartUpState@@QAV_Ref_count_base@1@@Z 00436c30 f i mainfunction.obj
 0001:00035c60       ??$addressof@V?$unique_ptr@V?$vector@HV?$allocator@H@std@@@std@@U?$default_delete@V?$vector@HV?$allocator@H@std@@@std@@@2@@std@@@std@@YAPAV?$unique_ptr@V?$vector@HV?$allocator@H@std@@@std@@U?$default_delete@V?$vector@HV?$allocator@H@std@@@std@@@2@@0@AAV10@@Z 00436c60 f i mainfunction.obj
 0001:00035c70       ??$exchange@PAU?$_Tree_node@U?$pair@$$CBV?$basic_string@DU?$char_traits@D@std@@V?$allocator@D@2@@std@@V?$shared_ptr@VRawImageData@@@2@@std@@PAX@std@@AAPAU12@@std@@YAPAU?$_Tree_node@U?$pair@$$CBV?$basic_string@DU?$char_traits@D@std@@V?$allocator@D@2@@std@@V?$shared_ptr@VRawImageData@@@2@@std@@PAX@0@AAPAU10@0@Z 00436c70 f i mainfunction.obj
 0001:00035ca0       ??$exchange@PAU?$_Tree_node@U?$pair@$$CBV?$basic_string@DU?$char_traits@D@std@@V?$allocator@D@2@@std@@V?$shared_ptr@VScyjz14RawImageData@@@2@@std@@PAX@std@@AAPAU12@@std@@YAPAU?$_Tree_node@U?$pair@$$CBV?$basic_string@DU?$char_traits@D@std@@V?$allocator@D@2@@std@@V?$shared_ptr@VScyjz14RawImageData@@@2@@std@@PAX@0@AAPAU10@0@Z 00436ca0 f i mainfunction.obj
 0001:00035cd0       ??$exchange@PAV?$vector@HV?$allocator@H@std@@@std@@$$T@std@@YAPAV?$vector@HV?$allocator@H@std@@@0@AAPAV10@$$QA$$T@Z 00436cd0 f i mainfunction.obj
 0001:00035d00       ??$exchange@PAV?$vector@HV?$allocator@H@std@@@std@@AAPAV12@@std@@YAPAV?$vector@HV?$allocator@H@std@@@0@AAPAV10@0@Z 00436d00 f i mainfunction.obj
 0001:00035d30       ??$exchange@PAVScyjz14TileManager@@AAPAV1@@std@@YAPAVScyjz14TileManager@@AAPAV1@0@Z 00436d30 f i mainfunction.obj
 0001:00035d60       ??$forward@AAPAV?$vector@HV?$allocator@H@std@@@std@@@std@@YAAAPAV?$vector@HV?$allocator@H@std@@@0@AAPAV10@@Z 00436d60 f i mainfunction.obj
 0001:00035d70       ??$forward@PAV?$vector@HV?$allocator@H@std@@@std@@@std@@YA$$QAPAV?$vector@HV?$allocator@H@std@@@0@AAPAV10@@Z 00436d70 f i mainfunction.obj
 0001:00035d80       ??$forward@U?$default_delete@V?$vector@HV?$allocator@H@std@@@std@@@std@@@std@@YA$$QAU?$default_delete@V?$vector@HV?$allocator@H@std@@@std@@@0@AAU10@@Z 00436d80 f i mainfunction.obj
 0001:00035d90       ??$make_unique@V?$vector@HV?$allocator@H@std@@@std@@$$V$0A@@std@@YA?AV?$unique_ptr@V?$vector@HV?$allocator@H@std@@@std@@U?$default_delete@V?$vector@HV?$allocator@H@std@@@std@@@2@@0@XZ 00436d90 f i mainfunction.obj
 0001:00035e10       ??$move@AAPAVState@@@std@@YA$$QAPAVState@@AAPAV1@@Z 00436e10 f i mainfunction.obj
 0001:00035e20       ??$reset@VStartUpState@@@?$shared_ptr@VState@@@std@@QAEXPAVStartUpState@@@Z 00436e20 f i mainfunction.obj
 0001:00035e60       ??$swap@PAVState@@$0A@@std@@YAXAAPAVState@@0@Z 00436e60 f i mainfunction.obj
 0001:00035eb0       ??0?$_Ref_count@VStartUpState@@@std@@QAE@PAVStartUpState@@@Z 00436eb0 f i mainfunction.obj
 0001:00035f00       ??0?$_Temporary_owner@VStartUpState@@@std@@QAE@QAVStartUpState@@@Z 00436f00 f i mainfunction.obj
 0001:00035f20       ??0?$_Vector_val@U?$_Simple_types@H@std@@@std@@QAE@XZ 00436f20 f i mainfunction.obj
 0001:00035f70       ??0?$allocator@H@std@@QAE@XZ 00436f70 f i mainfunction.obj
 0001:00035f90       ??0?$shared_ptr@VState@@@std@@QAE@XZ 00436f90 f i mainfunction.obj
 0001:00035fb0       ??0?$vector@HV?$allocator@H@std@@@std@@QAE@XZ 00436fb0 f i mainfunction.obj
 0001:00036030       ??0Scyjz14Engine@@QAE@XZ   00437030 f i mainfunction.obj
 0001:000361e0       ??0Scyjz14TileManager@@QAE@XZ 004371e0 f i mainfunction.obj
 0001:000362d0       ??0TileManager@@QAE@HH@Z   004372d0 f i mainfunction.obj
 0001:00036350       ??1?$_Ref_count@VStartUpState@@@std@@UAE@XZ 00437350 f i mainfunction.obj
 0001:00036370       ??1?$_Temporary_owner@VStartUpState@@@std@@QAE@XZ 00437370 f i mainfunction.obj
 0001:000363c0       ??1?$_Tree@V?$_Tmap_traits@V?$basic_string@DU?$char_traits@D@std@@V?$allocator@D@2@@std@@V?$shared_ptr@VRawImageData@@@2@U?$less@V?$basic_string@DU?$char_traits@D@std@@V?$allocator@D@2@@std@@@2@V?$allocator@U?$pair@$$CBV?$basic_string@DU?$char_traits@D@std@@V?$allocator@D@2@@std@@V?$shared_ptr@VRawImageData@@@2@@std@@@2@$0A@@std@@@std@@QAE@XZ 004373c0 f i mainfunction.obj
 0001:00036430       ??1?$_Tree@V?$_Tmap_traits@V?$basic_string@DU?$char_traits@D@std@@V?$allocator@D@2@@std@@V?$shared_ptr@VScyjz14RawImageData@@@2@U?$less@V?$basic_string@DU?$char_traits@D@std@@V?$allocator@D@2@@std@@@2@V?$allocator@U?$pair@$$CBV?$basic_string@DU?$char_traits@D@std@@V?$allocator@D@2@@std@@V?$shared_ptr@VScyjz14RawImageData@@@2@@std@@@2@$0A@@std@@@std@@QAE@XZ 00437430 f i mainfunction.obj
 0001:000364a0       ??1?$map@V?$basic_string@DU?$char_traits@D@std@@V?$allocator@D@2@@std@@V?$shared_ptr@VRawImageData@@@2@U?$less@V?$basic_string@DU?$char_traits@D@std@@V?$allocator@D@2@@std@@@2@V?$allocator@U?$pair@$$CBV?$basic_string@DU?$char_traits@D@std@@V?$allocator@D@2@@std@@V?$shared_ptr@VRawImageData@@@2@@std@@@2@@std@@QAE@XZ 004374a0 f i mainfunction.obj
 0001:000364c0       ??1?$map@V?$basic_string@DU?$char_traits@D@std@@V?$allocator@D@2@@std@@V?$shared_ptr@VScyjz14RawImageData@@@2@U?$less@V?$basic_string@DU?$char_traits@D@std@@V?$allocator@D@2@@std@@@2@V?$allocator@U?$pair@$$CBV?$basic_string@DU?$char_traits@D@std@@V?$allocator@D@2@@std@@V?$shared_ptr@VScyjz14RawImageData@@@2@@std@@@2@@std@@QAE@XZ 004374c0 f i mainfunction.obj
 0001:000364e0       ??1?$shared_ptr@VState@@@std@@QAE@XZ 004374e0 f i mainfunction.obj
 0001:00036500       ??1?$unique_ptr@VScyjz14TileManager@@U?$default_delete@VScyjz14TileManager@@@std@@@std@@QAE@XZ 00437500 f i mainfunction.obj
 0001:00036540       ??1ImageManager@@QAE@XZ    00437540 f i mainfunction.obj
 0001:00036570       ??1Scyjz14Engine@@UAE@XZ   00437570 f i mainfunction.obj
 0001:000365b0       ??1Scyjz14ImageManager@@QAE@XZ 004375b0 f i mainfunction.obj
 0001:000365e0       ??1Scyjz14TileManager@@UAE@XZ 004375e0 f i mainfunction.obj
 0001:00036610       ??1TileManager@@UAE@XZ     00437610 f i mainfunction.obj
 0001:00036660       ??R?$default_delete@VScyjz14TileManager@@@std@@QBEXPAVScyjz14TileManager@@@Z 00437660 f i mainfunction.obj
 0001:000366b0       ??_G?$_Ref_count@VStartUpState@@@std@@UAEPAXI@Z 004376b0 f i mainfunction.obj
 0001:000366b0       ??_E?$_Ref_count@VStartUpState@@@std@@UAEPAXI@Z 004376b0 f i mainfunction.obj
 0001:000366f0       ??_GImageManager@@QAEPAXI@Z 004376f0 f i mainfunction.obj
 0001:00036730       ??_GScyjz14Engine@@UAEPAXI@Z 00437730 f i mainfunction.obj
 0001:00036730       ??_EScyjz14Engine@@UAEPAXI@Z 00437730 f i mainfunction.obj
 0001:00036770       ??_GScyjz14ImageManager@@QAEPAXI@Z 00437770 f i mainfunction.obj
 0001:000367b0       ??_EScyjz14TileManager@@UAEPAXI@Z 004377b0 f i mainfunction.obj
 0001:000367b0       ??_GScyjz14TileManager@@UAEPAXI@Z 004377b0 f i mainfunction.obj
 0001:000367f0       ??_ETileManager@@UAEPAXI@Z 004377f0 f i mainfunction.obj
 0001:000367f0       ??_GTileManager@@UAEPAXI@Z 004377f0 f i mainfunction.obj
 0001:00036830       ?_Decref@?$_Ptr_base@VState@@@std@@IAEXXZ 00437830 f i mainfunction.obj
 0001:00036860       ?_Delete_this@?$_Ref_count@VStartUpState@@@std@@EAEXXZ 00437860 f i mainfunction.obj
 0001:000368b0       ?_Destroy@?$_Ref_count@VStartUpState@@@std@@EAEXXZ 004378b0 f i mainfunction.obj
 0001:00036900       ?_Get_first@?$_Compressed_pair@U?$default_delete@VScyjz14TileManager@@@std@@PAVScyjz14TileManager@@$00@std@@QAEAAU?$default_delete@VScyjz14TileManager@@@2@XZ 00437900 f i mainfunction.obj
 0001:00036920       ?_Swap@?$_Ptr_base@VState@@@std@@IAEXAAV12@@Z 00437920 f i mainfunction.obj
 0001:00036960       ?cleanup@ObjectIndexes@@SAXXZ 00437960 f i mainfunction.obj
 0001:00036990       ?deallocate@?$_Default_allocator_traits@V?$allocator@U?$_Tree_node@U?$pair@$$CBV?$basic_string@DU?$char_traits@D@std@@V?$allocator@D@2@@std@@V?$shared_ptr@VRawImageData@@@2@@std@@PAX@std@@@std@@@std@@SAXAAV?$allocator@U?$_Tree_node@U?$pair@$$CBV?$basic_string@DU?$char_traits@D@std@@V?$allocator@D@2@@std@@V?$shared_ptr@VRawImageData@@@2@@std@@PAX@std@@@2@QAU?$_Tree_node@U?$pair@$$CBV?$basic_string@DU?$char_traits@D@std@@V?$allocator@D@2@@std@@V?$shared_ptr@VRawImageData@@@2@@std@@PAX@2@I@Z 00437990 f i mainfunction.obj
 0001:000369b0       ?deallocate@?$_Default_allocator_traits@V?$allocator@U?$_Tree_node@U?$pair@$$CBV?$basic_string@DU?$char_traits@D@std@@V?$allocator@D@2@@std@@V?$shared_ptr@VScyjz14RawImageData@@@2@@std@@PAX@std@@@std@@@std@@SAXAAV?$allocator@U?$_Tree_node@U?$pair@$$CBV?$basic_string@DU?$char_traits@D@std@@V?$allocator@D@2@@std@@V?$shared_ptr@VScyjz14RawImageData@@@2@@std@@PAX@std@@@2@QAU?$_Tree_node@U?$pair@$$CBV?$basic_string@DU?$char_traits@D@std@@V?$allocator@D@2@@std@@V?$shared_ptr@VScyjz14RawImageData@@@2@@std@@PAX@2@I@Z 004379b0 f i mainfunction.obj
 0001:000369d0       ?destroyImageManager@ImageManager@@SAXXZ 004379d0 f i mainfunction.obj
 0001:00036a30       ?destroyImageManager@Scyjz14ImageManager@@SAXXZ 00437a30 f i mainfunction.obj
 0001:00036a90       ?get_deleter@?$unique_ptr@V?$vector@HV?$allocator@H@std@@@std@@U?$default_delete@V?$vector@HV?$allocator@H@std@@@std@@@2@@std@@QAEAAU?$default_delete@V?$vector@HV?$allocator@H@std@@@std@@@2@XZ 00437a90 f i mainfunction.obj
 0001:00036ab0       ?initialize@ObjectIndexes@@SAXXZ 00437ab0 f i mainfunction.obj
 0001:00036b20       ?release@?$unique_ptr@V?$vector@HV?$allocator@H@std@@@std@@U?$default_delete@V?$vector@HV?$allocator@H@std@@@std@@@2@@std@@QAEPAV?$vector@HV?$allocator@H@std@@@2@XZ 00437b20 f i mainfunction.obj
 0001:00036b50       ?reset@?$unique_ptr@V?$vector@HV?$allocator@H@std@@@std@@U?$default_delete@V?$vector@HV?$allocator@H@std@@@std@@@2@@std@@QAEXPAV?$vector@HV?$allocator@H@std@@@2@@Z 00437b50 f i mainfunction.obj
 0001:00036ba0       ?reset@?$unique_ptr@VScyjz14TileManager@@U?$default_delete@VScyjz14TileManager@@@std@@@std@@QAEXPAVScyjz14TileManager@@@Z 00437ba0 f i mainfunction.obj
 0001:00036bf0       ?swap@?$shared_ptr@VState@@@std@@QAEXAAV12@@Z 00437bf0 f i mainfunction.obj
 0001:00036c10       ??0BaseEngine@@QAE@XZ      00437c10 f   BaseEngine.obj
 0001:00036e50       ??1BaseEngine@@UAE@XZ      00437e50 f   BaseEngine.obj
 0001:00036ea0       ?initialise@BaseEngine@@QAEHPBDHH0H@Z 00437ea0 f   BaseEngine.obj
 0001:00036fd0       ?deinitialise@BaseEngine@@QAEXXZ 00437fd0 f   BaseEngine.obj
 0001:00037000       ?mainLoop@BaseEngine@@QAEHXZ 00438000 f   BaseEngine.obj
 0001:00037130       ?handleEvent@BaseEngine@@QAE_NPATSDL_Event@@@Z 00438130 f   BaseEngine.obj
 0001:00037770       ?isKeyPressed@BaseEngine@@QBE_NH@Z 00438770 f   BaseEngine.obj
 0001:000377a0       ?virtKeyUp@BaseEngine@@UAEXH@Z 004387a0 f   BaseEngine.obj
 0001:000377b0       ?virtKeyDown@BaseEngine@@UAEXH@Z 004387b0 f   BaseEngine.obj
 0001:000377c0       ?virtMouseMoved@BaseEngine@@UAEXHH@Z 004387c0 f   BaseEngine.obj
 0001:000377d0       ?virtMouseDown@BaseEngine@@UAEXHHH@Z 004387d0 f   BaseEngine.obj
 0001:000377e0       ?virtMouseUp@BaseEngine@@UAEXHHH@Z 004387e0 f   BaseEngine.obj
 0001:000377f0       ?virtInitialise@BaseEngine@@UAEHXZ 004387f0 f   BaseEngine.obj
 0001:00037840       ?virtCreateWindows@BaseEngine@@UAEXPBD@Z 00438840 f   BaseEngine.obj
 0001:000378d0       ?virtCreateSurfaces@BaseEngine@@UAEXXZ 004388d0 f   BaseEngine.obj
 0001:00037920       ?virtCleanUp@BaseEngine@@UAEXXZ 00438920 f   BaseEngine.obj
 0001:00037930       ?virtSetupBackgroundBuffer@BaseEngine@@UAEXXZ 00438930 f   BaseEngine.obj
 0001:00037950       ?virtDrawStringsUnderneath@BaseEngine@@UAEXXZ 00438950 f   BaseEngine.obj
 0001:00037960       ?virtDrawStringsOnTop@BaseEngine@@UAEXXZ 00438960 f   BaseEngine.obj
 0001:00037970       ?virtCheckForUpdateTime@BaseEngine@@UAE_NXZ 00438970 f   BaseEngine.obj
 0001:000379c0       ?virtRenderScreen@BaseEngine@@UAEXXZ 004389c0 f   BaseEngine.obj
 0001:00037b50       ?getColour@BaseEngine@@QBEIH@Z 00438b50 f   BaseEngine.obj
 0001:00037d90       ?virtInitialiseObjects@BaseEngine@@UAEHXZ 00438d90 f   BaseEngine.obj
 0001:00037dc0       ?drawAllObjects@BaseEngine@@UAEXXZ 00438dc0 f   BaseEngine.obj
 0001:00037f80       ?updateAllObjects@BaseEngine@@UAEXH@Z 00438f80 f   BaseEngine.obj
 0001:00038140       _mydebug                   00439140 f   BaseEngine.obj
 0001:00038900       ??$?0ABV?$allocator@PAVDisplayableObject@@@std@@$$V@?$_Compressed_pair@V?$allocator@PAVDisplayableObject@@@std@@V?$_Vector_val@U?$_Simple_types@PAVDisplayableObject@@@std@@@2@$00@std@@QAE@U_One_then_variadic_args_t@1@ABV?$allocator@PAVDisplayableObject@@@1@@Z 00439900 f i BaseEngine.obj
 0001:00038930       ??$?0PAVDisplayableObject@@@?$allocator@U_Container_proxy@std@@@std@@QAE@ABV?$allocator@PAVDisplayableObject@@@1@@Z 00439930 f i BaseEngine.obj
 0001:00038950       ??$_Adl_verify_range@V?$_Vector_iterator@V?$_Vector_val@U?$_Simple_types@PAVDisplayableObject@@@std@@@std@@@std@@V12@@std@@YAXABV?$_Vector_iterator@V?$_Vector_val@U?$_Simple_types@PAVDisplayableObject@@@std@@@std@@@0@0@Z 00439950 f i BaseEngine.obj
 0001:00038970       ??$_Construct_n_copies_of_ty@U_Value_init_tag@std@@@?$vector@PAVDisplayableObject@@V?$allocator@PAVDisplayableObject@@@std@@@std@@AAEXIABU_Value_init_tag@1@@Z 00439970 f i BaseEngine.obj
 0001:00038a80       ??$_Get_unwrapped@AAV?$_Vector_iterator@V?$_Vector_val@U?$_Simple_types@PAVDisplayableObject@@@std@@@std@@@std@@@std@@YA?A_TAAV?$_Vector_iterator@V?$_Vector_val@U?$_Simple_types@PAVDisplayableObject@@@std@@@std@@@0@@Z 00439a80 f i BaseEngine.obj
 0001:00038a90       ??$addressof@V?$_Vector_val@U?$_Simple_types@PAVDisplayableObject@@@std@@@std@@@std@@YAPAV?$_Vector_val@U?$_Simple_types@PAVDisplayableObject@@@std@@@0@AAV10@@Z 00439a90 f i BaseEngine.obj
 0001:00038f20       ??$forward@ABV?$allocator@PAVDisplayableObject@@@std@@@std@@YAABV?$allocator@PAVDisplayableObject@@@0@ABV10@@Z 00439f20 f i BaseEngine.obj
 0001:00038f30       ??0?$_Vector_const_iterator@V?$_Vector_val@U?$_Simple_types@PAVDisplayableObject@@@std@@@std@@@std@@QAE@$$QAV01@@Z 00439f30 f i BaseEngine.obj
 0001:00038f70       ??0?$_Vector_const_iterator@V?$_Vector_val@U?$_Simple_types@PAVDisplayableObject@@@std@@@std@@@std@@QAE@ABV01@@Z 00439f70 f i BaseEngine.obj
 0001:00038fb0       ??0?$_Vector_const_iterator@V?$_Vector_val@U?$_Simple_types@PAVDisplayableObject@@@std@@@std@@@std@@QAE@PAPAVDisplayableObject@@PBU_Container_base12@1@@Z 00439fb0 f i BaseEngine.obj
 0001:00038ff0       ??0?$_Vector_iterator@V?$_Vector_val@U?$_Simple_types@PAVDisplayableObject@@@std@@@std@@@std@@QAE@$$QAV01@@Z 00439ff0 f i BaseEngine.obj
 0001:00039020       ??0?$_Vector_iterator@V?$_Vector_val@U?$_Simple_types@PAVDisplayableObject@@@std@@@std@@@std@@QAE@ABV01@@Z 0043a020 f i BaseEngine.obj
 0001:00039050       ??0?$_Vector_iterator@V?$_Vector_val@U?$_Simple_types@PAVDisplayableObject@@@std@@@std@@@std@@QAE@PAPAVDisplayableObject@@PBU_Container_base12@1@@Z 0043a050 f i BaseEngine.obj
 0001:00039080       ??0?$_Vector_val@U?$_Simple_types@PAVDisplayableObject@@@std@@@std@@QAE@XZ 0043a080 f i BaseEngine.obj
 0001:000390d0       ??0?$allocator@PAVDisplayableObject@@@std@@QAE@XZ 0043a0d0 f i BaseEngine.obj
 0001:000390f0       ??0?$vector@PAVDisplayableObject@@V?$allocator@PAVDisplayableObject@@@std@@@std@@QAE@IABV?$allocator@PAVDisplayableObject@@@1@@Z 0043a0f0 f i BaseEngine.obj
 0001:00039130       ??0DisplayableObjectContainer@@QAE@H@Z 0043a130 f i BaseEngine.obj
 0001:00039190       ??0FilterPoints@@QAE@XZ    0043a190 f i BaseEngine.obj
 0001:000391b0       ??1?$_Tidy_guard@V?$vector@PAVDisplayableObject@@V?$allocator@PAVDisplayableObject@@@std@@@std@@@std@@QAE@XZ 0043a1b0 f i BaseEngine.obj
 0001:000391e0       ??1?$_Vector_const_iterator@V?$_Vector_val@U?$_Simple_types@PAVDisplayableObject@@@std@@@std@@@std@@QAE@XZ 0043a1e0 f i BaseEngine.obj
 0001:00039200       ??1?$_Vector_iterator@V?$_Vector_val@U?$_Simple_types@PAVDisplayableObject@@@std@@@std@@@std@@QAE@XZ 0043a200 f i BaseEngine.obj
 0001:00039220       ??1?$vector@PAVDisplayableObject@@V?$allocator@PAVDisplayableObject@@@std@@@std@@QAE@XZ 0043a220 f i BaseEngine.obj
 0001:00039290       ??1DisplayableObjectContainer@@UAE@XZ 0043a290 f i BaseEngine.obj
 0001:00039300       ??8?$_Vector_const_iterator@V?$_Vector_val@U?$_Simple_types@PAVDisplayableObject@@@std@@@std@@@std@@QBE_NABV01@@Z 0043a300 f i BaseEngine.obj
 0001:00039350       ??9?$_Vector_const_iterator@V?$_Vector_val@U?$_Simple_types@PAVDisplayableObject@@@std@@@std@@@std@@QBE_NABV01@@Z 0043a350 f i BaseEngine.obj
 0001:000393a0       ??D?$_Vector_const_iterator@V?$_Vector_val@U?$_Simple_types@PAVDisplayableObject@@@std@@@std@@@std@@QBEABQAVDisplayableObject@@XZ 0043a3a0 f i BaseEngine.obj
 0001:000394b0       ??D?$_Vector_iterator@V?$_Vector_val@U?$_Simple_types@PAVDisplayableObject@@@std@@@std@@@std@@QBEAAPAVDisplayableObject@@XZ 0043a4b0 f i BaseEngine.obj
 0001:000394d0       ??E?$_Vector_const_iterator@V?$_Vector_val@U?$_Simple_types@PAVDisplayableObject@@@std@@@std@@@std@@QAEAAV01@XZ 0043a4d0 f i BaseEngine.obj
 0001:000395e0       ??E?$_Vector_iterator@V?$_Vector_val@U?$_Simple_types@PAVDisplayableObject@@@std@@@std@@@std@@QAE?AV01@H@Z 0043a5e0 f i BaseEngine.obj
 0001:00039630       ??_GBaseEngine@@UAEPAXI@Z  0043a630 f i BaseEngine.obj
 0001:00039630       ??_EBaseEngine@@UAEPAXI@Z  0043a630 f i BaseEngine.obj
 0001:00039670       ??_EDisplayableObjectContainer@@UAEPAXI@Z 0043a670 f i BaseEngine.obj
 0001:00039670       ??_GDisplayableObjectContainer@@UAEPAXI@Z 0043a670 f i BaseEngine.obj
 0001:000396b0       ?_Buy_nonzero@?$vector@PAVDisplayableObject@@V?$allocator@PAVDisplayableObject@@@std@@@std@@AAEXI@Z 0043a6b0 f i BaseEngine.obj
 0001:000396f0       ?_Buy_raw@?$vector@PAVDisplayableObject@@V?$allocator@PAVDisplayableObject@@@std@@@std@@AAEXI@Z 0043a6f0 f i BaseEngine.obj
 0001:00039770       ?_Compat@?$_Vector_const_iterator@V?$_Vector_val@U?$_Simple_types@PAVDisplayableObject@@@std@@@std@@@std@@QBEXABV12@@Z 0043a770 f i BaseEngine.obj
 0001:00039810       ?_Tidy@?$vector@PAVDisplayableObject@@V?$allocator@PAVDisplayableObject@@@std@@@std@@AAEXXZ 0043a810 f i BaseEngine.obj
 0001:00039900       ?_Unwrapped@?$_Vector_iterator@V?$_Vector_val@U?$_Simple_types@PAVDisplayableObject@@@std@@@std@@@std@@QBEPAPAVDisplayableObject@@XZ 0043a900 f i BaseEngine.obj
 0001:00039920       ?_Verify_range@std@@YAXABV?$_Vector_const_iterator@V?$_Vector_val@U?$_Simple_types@PAVDisplayableObject@@@std@@@std@@@1@0@Z 0043a920 f i BaseEngine.obj
 0001:00039a20       ?begin@?$vector@PAVDisplayableObject@@V?$allocator@PAVDisplayableObject@@@std@@@std@@QAE?AV?$_Vector_iterator@V?$_Vector_val@U?$_Simple_types@PAVDisplayableObject@@@std@@@std@@@2@XZ 0043aa20 f i BaseEngine.obj
 0001:00039a70       ?end@?$vector@PAVDisplayableObject@@V?$allocator@PAVDisplayableObject@@@std@@@std@@QAE?AV?$_Vector_iterator@V?$_Vector_val@U?$_Simple_types@PAVDisplayableObject@@@std@@@std@@@2@XZ 0043aa70 f i BaseEngine.obj
 0001:00039ac0       ?getHasActed@DisplayableObject@@QBE_NXZ 0043aac0 f i BaseEngine.obj
 0001:00039ae0       ?isTimeToAct@BaseEngine@@QBE_NXZ 0043aae0 f i BaseEngine.obj
 0001:00039b20       ?mySDLUpdateTexture@DrawingSurface@@QAEXPAUSDL_Texture@@@Z 0043ab20 f i BaseEngine.obj
 0001:00039b60       ?setHasActed@DisplayableObject@@QAEX_N@Z 0043ab60 f i BaseEngine.obj
 0001:00039b80       ?setTimeToAct@BaseEngine@@QAEXH@Z 0043ab80 f i BaseEngine.obj
 0001:00039bb0       ?symbolToKeycode@BaseEngine@@SAHH@Z 0043abb0 f i BaseEngine.obj
 0001:0003a0a0       ?virtMainLoopDoBeforeUpdate@BaseEngine@@UAEXXZ 0043b0a0 f i BaseEngine.obj
 0001:0003a0b0       _fprintf                   0043b0b0 f i BaseEngine.obj
 0001:0003a0f0       ??0DisplayableObject@@QAE@PAVBaseEngine@@HH_N@Z 0043b0f0 f   DisplayableObject.obj
 0001:0003a1b0       ??0DisplayableObject@@QAE@HHPAVBaseEngine@@HH_N@Z 0043b1b0 f   DisplayableObject.obj
 0001:0003a270       ??1DisplayableObject@@UAE@XZ 0043b270 f   DisplayableObject.obj
 0001:0003a290       ?virtDraw@DisplayableObject@@UAEXXZ 0043b290 f   DisplayableObject.obj
 0001:0003a330       ?virtDoUpdate@DisplayableObject@@UAEXH@Z 0043b330 f   DisplayableObject.obj
 0001:0003a340       ?redrawDisplay@DisplayableObject@@QAEXXZ 0043b340 f   DisplayableObject.obj
 0001:0003a360       ?redrawRectangle@DisplayableObject@@QAEXXZ 0043b360 f   DisplayableObject.obj
 0001:0003a3a0       ?virtIsObjectInRedrawArea@DisplayableObject@@QAE_NXZ 0043b3a0 f   DisplayableObject.obj
 0001:0003a440       ?fixPosition@DisplayableObject@@QAEXXZ 0043b440 f   DisplayableObject.obj
 0001:0003a610       ??_GDisplayableObject@@UAEPAXI@Z 0043b610 f i DisplayableObject.obj
 0001:0003a610       ??_EDisplayableObject@@UAEPAXI@Z 0043b610 f i DisplayableObject.obj
 0001:0003a650       ?convertVirtualPixelToClickedXPosition@BaseEngine@@QAEHH@Z 0043b650 f i DisplayableObject.obj
 0001:0003a680       ?convertVirtualPixelToClickedYPosition@BaseEngine@@QAEHH@Z 0043b680 f i DisplayableObject.obj
 0001:0003a6b0       ?convertVirtualToRealXPosition@DrawingSurface@@QAEHH@Z 0043b6b0 f i DisplayableObject.obj
 0001:0003a6f0       ?convertVirtualToRealYPosition@DrawingSurface@@QAEHH@Z 0043b6f0 f i DisplayableObject.obj
 0001:0003a730       ?redrawRectangle@BaseEngine@@QAEXHHHH@Z 0043b730 f i DisplayableObject.obj
 0001:0003a8a0       ?setForegroundPixel@BaseEngine@@QAEXHHI@Z 0043b8a0 f i DisplayableObject.obj
 0001:0003a8d0       ??0FontManager@@QAE@XZ     0043b8d0 f   FontManager.obj
 0001:0003a940       ??1FontManager@@QAE@XZ     0043b940 f   FontManager.obj
 0001:0003a9b0       ?getFont@FontManager@@QAEPAVFont@@PBDH@Z 0043b9b0 f   FontManager.obj
 0001:0003ab50       ?loadFonts@FontManager@@QAEXXZ 0043bb50 f   FontManager.obj
 0001:0003ac80       ??$growArrayOfObjects@PAVFont@@@@YAPAPAVFont@@PAPAV0@AAHH@Z 0043bc80 f i FontManager.obj
 0001:0003ad40       ??0Font@@QAE@PBDH@Z        0043bd40 f i FontManager.obj
 0001:0003adc0       ??1Font@@QAE@XZ            0043bdc0 f i FontManager.obj
 0001:0003ae40       ??_GFont@@QAEPAXI@Z        0043be40 f i FontManager.obj
 0001:0003ae80       ?getName@Font@@QAEPBDXZ    0043be80 f i FontManager.obj
 0001:0003aea0       ?getSize@Font@@QAEHXZ      0043bea0 f i FontManager.obj
 0001:0003aec0       ??1PauseState@@UAE@XZ      0043bec0 f   PauseState.obj
 0001:0003af90       ?virtKeyDown@PauseState@@UAEXH@Z 0043bf90 f   PauseState.obj
 0001:0003afe0       ?initialiseStateObject@PauseState@@UAEXXZ 0043bfe0 f   PauseState.obj
 0001:0003b270       ?virtMouseUp@PauseState@@UAEXHHH@Z 0043c270 f   PauseState.obj
 0001:0003b490       ?virtDrawStringsOnTop@PauseState@@UAEXXZ 0043c490 f   PauseState.obj
 0001:0003b6e0       ??$?CVState@@$0A@@?$shared_ptr@VState@@@std@@QBEPAVState@@XZ 0043c6e0 f i PauseState.obj
 0001:0003b700       ??$_Emplace_back_with_unused_capacity@ABQAVDisplayableObject@@@?$vector@PAVDisplayableObject@@V?$allocator@PAVDisplayableObject@@@std@@@std@@AAE?A_TABQAVDisplayableObject@@@Z 0043c700 f i PauseState.obj
 0001:0003b7a0       ??$_Emplace_reallocate@ABQAVDisplayableObject@@@?$vector@PAVDisplayableObject@@V?$allocator@PAVDisplayableObject@@@std@@@std@@QAEPAPAVDisplayableObject@@QAPAV2@ABQAV2@@Z 0043c7a0 f i PauseState.obj
 0001:0003b9f0       ??$_Find_unchecked1@PAPAVDisplayableObject@@PAV1@@std@@YAPAPAVDisplayableObject@@PAPAV1@QAPAV1@ABQAV1@U?$integral_constant@_N$0A@@0@@Z 0043c9f0 f i PauseState.obj
 0001:0003ba30       ??$_Find_unchecked@PAPAVDisplayableObject@@PAV1@@std@@YAPAPAVDisplayableObject@@QAPAV1@0ABQAV1@@Z 0043ca30 f i PauseState.obj
 0001:0003ba60       ??$_Get_unwrapped@ABV?$_Vector_iterator@V?$_Vector_val@U?$_Simple_types@PAVDisplayableObject@@@std@@@std@@@std@@@std@@YA?A_TABV?$_Vector_iterator@V?$_Vector_val@U?$_Simple_types@PAVDisplayableObject@@@std@@@std@@@0@@Z 0043ca60 f i PauseState.obj
 0001:0003ba70       ??$_Move_unchecked@PAPAVDisplayableObject@@PAPAV1@@std@@YAPAPAVDisplayableObject@@PAPAV1@00@Z 0043ca70 f i PauseState.obj
 0001:0003bae0       ??$_Refancy@PAPAVDisplayableObject@@$0A@@std@@YAPAPAVDisplayableObject@@PAPAV1@@Z 0043cae0 f i PauseState.obj
 0001:0003baf0       ??$_Seek_wrapped@V?$_Vector_iterator@V?$_Vector_val@U?$_Simple_types@PAVDisplayableObject@@@std@@@std@@@std@@PAPAVDisplayableObject@@@std@@YAXAAV?$_Vector_iterator@V?$_Vector_val@U?$_Simple_types@PAVDisplayableObject@@@std@@@std@@@0@$$QAPAPAVDisplayableObject@@@Z 0043caf0 f i PauseState.obj
 0001:0003bb20       ??$construct@PAVDisplayableObject@@ABQAV1@@?$_Default_allocator_traits@V?$allocator@PAVDisplayableObject@@@std@@@std@@SAXAAV?$allocator@PAVDisplayableObject@@@1@QAPAVDisplayableObject@@ABQAV3@@Z 0043cb20 f i PauseState.obj
 0001:0003bb70       ??$destroy@PAVDisplayableObject@@@?$_Default_allocator_traits@V?$allocator@PAVDisplayableObject@@@std@@@std@@SAXAAV?$allocator@PAVDisplayableObject@@@1@QAPAVDisplayableObject@@@Z 0043cb70 f i PauseState.obj
 0001:0003bb80       ??$emplace_back@ABQAVDisplayableObject@@@?$vector@PAVDisplayableObject@@V?$allocator@PAVDisplayableObject@@@std@@@std@@QAE?A_TABQAVDisplayableObject@@@Z 0043cb80 f i PauseState.obj
 0001:0003bc00       ??$find@V?$_Vector_iterator@V?$_Vector_val@U?$_Simple_types@PAVDisplayableObject@@@std@@@std@@@std@@PAVDisplayableObject@@@std@@YA?AV?$_Vector_iterator@V?$_Vector_val@U?$_Simple_types@PAVDisplayableObject@@@std@@@std@@@0@V10@V10@ABQAVDisplayableObject@@@Z 0043cc00 f i PauseState.obj
 0001:0003bcf0       ??$forward@ABQAVDisplayableObject@@@std@@YAABQAVDisplayableObject@@ABQAV1@@Z 0043ccf0 f i PauseState.obj
 0001:0003bd00       ??$forward@PAPAVDisplayableObject@@@std@@YA$$QAPAPAVDisplayableObject@@AAPAPAV1@@Z 0043cd00 f i PauseState.obj
 0001:0003bd10       ??_EPauseState@@UAEPAXI@Z  0043cd10 f i PauseState.obj
 0001:0003bd10       ??_GPauseState@@UAEPAXI@Z  0043cd10 f i PauseState.obj
 0001:0003bd50       ?_Seek_to@?$_Vector_const_iterator@V?$_Vector_val@U?$_Simple_types@PAVDisplayableObject@@@std@@@std@@@std@@QAEXPBQAVDisplayableObject@@@Z 0043cd50 f i PauseState.obj
 0001:0003bd80       ?_Umove@?$vector@PAVDisplayableObject@@V?$allocator@PAVDisplayableObject@@@std@@@std@@AAEPAPAVDisplayableObject@@PAPAV3@00@Z 0043cd80 f i PauseState.obj
 0001:0003bdc0       ?appendObjectToArray@DisplayableObjectContainer@@QAEXPAVDisplayableObject@@@Z 0043cdc0 f i PauseState.obj
 0001:0003be00       ?drawForegroundString@BaseEngine@@QAEXHHPBDIPAVFont@@@Z 0043ce00 f i PauseState.obj
 0001:0003be40       ?erase@?$vector@PAVDisplayableObject@@V?$allocator@PAVDisplayableObject@@@std@@@std@@QAE?AV?$_Vector_iterator@V?$_Vector_val@U?$_Simple_types@PAVDisplayableObject@@@std@@@std@@@2@V?$_Vector_const_iterator@V?$_Vector_val@U?$_Simple_types@PAVDisplayableObject@@@std@@@std@@@2@@Z 0043ce40 f i PauseState.obj
 0001:0003bff0       ?get@?$_Ptr_base@VState@@@std@@IBEPAVState@@XZ 0043cff0 f i PauseState.obj
 0001:0003c010       ?getContentCount@DisplayableObjectContainer@@QBEHXZ 0043d010 f i PauseState.obj
 0001:0003c030       ?push_back@?$vector@PAVDisplayableObject@@V?$allocator@PAVDisplayableObject@@@std@@@std@@QAEXABQAVDisplayableObject@@@Z 0043d030 f i PauseState.obj
 0001:0003c050       ?removeDisplayableObject@DisplayableObjectContainer@@QAE_NPAVDisplayableObject@@@Z 0043d050 f i PauseState.obj
 0001:0003c160       ?unpause@BaseEngine@@QAEXXZ 0043d160 f i PauseState.obj
 0001:0003c1b0       ?knockedAway@Player@@QAEXHH@Z 0043d1b0 f   Player.obj
 0001:0003c230       ?virtDoUpdate@Player@@UAEXH@Z 0043d230 f   Player.obj
 0001:0003c470       ??$?0AAPAVScyjz14Engine@@@?$_Ref_count_obj2@VLoseState@@@std@@QAE@AAPAVScyjz14Engine@@@Z 0043d470 f i Player.obj
 0001:0003c520       ??$?0VLoseState@@$0A@@?$shared_ptr@VState@@@std@@QAE@$$QAV?$shared_ptr@VLoseState@@@1@@Z 0043d520 f i Player.obj
 0001:0003c560       ??$_Construct_in_place@VLoseState@@AAPAVScyjz14Engine@@@std@@YAXAAVLoseState@@AAPAVScyjz14Engine@@@Z 0043d560 f i Player.obj
 0001:0003c5c0       ??$_Destroy_in_place@VLoseState@@@std@@YAXAAVLoseState@@@Z 0043d5c0 f i Player.obj
 0001:0003c5e0       ??$_Move_construct_from@VLoseState@@@?$_Ptr_base@VLoseState@@@std@@IAEX$$QAV01@@Z 0043d5e0 f i Player.obj
 0001:0003c630       ??$_Move_construct_from@VLoseState@@@?$_Ptr_base@VState@@@std@@IAEX$$QAV?$_Ptr_base@VLoseState@@@1@@Z 0043d630 f i Player.obj
 0001:0003c680       ??$_Set_ptr_rep_and_enable_shared@VLoseState@@@?$shared_ptr@VLoseState@@@std@@AAEXQAVLoseState@@QAV_Ref_count_base@1@@Z 0043d680 f i Player.obj
 0001:0003c6b0       ??$_Voidify_iter@PAVLoseState@@@std@@YAPAXPAVLoseState@@@Z 0043d6b0 f i Player.obj
 0001:0003c6c0       ??$addressof@$$CBV?$_Tree_val@U?$_Tree_simple_types@U?$pair@$$CBHUMovement@Player@@@std@@@std@@@std@@@std@@YAPBV?$_Tree_val@U?$_Tree_simple_types@U?$pair@$$CBHUMovement@Player@@@std@@@std@@@0@ABV10@@Z 0043d6c0 f i Player.obj
 0001:0003c6d0       ??$addressof@VLoseState@@@std@@YAPAVLoseState@@AAV1@@Z 0043d6d0 f i Player.obj
 0001:0003c6e0       ??$make_shared@VLoseState@@AAPAVScyjz14Engine@@@std@@YA?AV?$shared_ptr@VLoseState@@@0@AAPAVScyjz14Engine@@@Z 0043d6e0 f i Player.obj
 0001:0003c7e0       ??$move@AAV?$shared_ptr@VLoseState@@@std@@@std@@YA$$QAV?$shared_ptr@VLoseState@@@0@AAV10@@Z 0043d7e0 f i Player.obj
 0001:0003c7f0       ??0?$_Ptr_base@VLoseState@@@std@@IAE@XZ 0043d7f0 f i Player.obj
 0001:0003c820       ??0?$_Tree_unchecked_const_iterator@V?$_Tree_val@U?$_Tree_simple_types@U?$pair@$$CBHUMovement@Player@@@std@@@std@@@std@@U_Iterator_base0@2@@std@@QAE@PAU?$_Tree_node@U?$pair@$$CBHUMovement@Player@@@std@@PAX@1@PBV?$_Tree_val@U?$_Tree_simple_types@U?$pair@$$CBHUMovement@Player@@@std@@@std@@@1@@Z 0043d820 f i Player.obj
 0001:0003c850       ??0?$shared_ptr@VLoseState@@@std@@QAE@$$QAV01@@Z 0043d850 f i Player.obj
 0001:0003c890       ??0?$shared_ptr@VLoseState@@@std@@QAE@XZ 0043d890 f i Player.obj
 0001:0003c8b0       ??1?$_Ref_count_obj2@VLoseState@@@std@@UAE@XZ 0043d8b0 f i Player.obj
 0001:0003c8e0       ??1?$shared_ptr@VLoseState@@@std@@QAE@XZ 0043d8e0 f i Player.obj
 0001:0003c900       ??9?$_Tree_unchecked_const_iterator@V?$_Tree_val@U?$_Tree_simple_types@U?$pair@$$CBHUMovement@Player@@@std@@@std@@@std@@U_Iterator_base0@2@@std@@QBE_NU_Default_sentinel@1@@Z 0043d900 f i Player.obj
 0001:0003c940       ??D?$_Tree_unchecked_const_iterator@V?$_Tree_val@U?$_Tree_simple_types@U?$pair@$$CBHUMovement@Player@@@std@@@std@@@std@@U_Iterator_base0@2@@std@@QBEABU?$pair@$$CBHUMovement@Player@@@1@XZ 0043d940 f i Player.obj
 0001:0003c960       ??E?$_Tree_unchecked_const_iterator@V?$_Tree_val@U?$_Tree_simple_types@U?$pair@$$CBHUMovement@Player@@@std@@@std@@@std@@U_Iterator_base0@2@@std@@QAEAAV01@XZ 0043d960 f i Player.obj
 0001:0003c9f0       ??_E?$_Ref_count_obj2@VLoseState@@@std@@UAEPAXI@Z 0043d9f0 f i Player.obj
 0001:0003c9f0       ??_G?$_Ref_count_obj2@VLoseState@@@std@@UAEPAXI@Z 0043d9f0 f i Player.obj
 0001:0003ca30       ?_Decref@?$_Ptr_base@VLoseState@@@std@@IAEXXZ 0043da30 f i Player.obj
 0001:0003ca60       ?_Delete_this@?$_Ref_count_obj2@VLoseState@@@std@@EAEXXZ 0043da60 f i Player.obj
 0001:0003cab0       ?_Destroy@?$_Ref_count_obj2@VLoseState@@@std@@EAEXXZ 0043dab0 f i Player.obj
 0001:0003cad0       ?_Get_scary@?$_Tree@V?$_Tmap_traits@HUMovement@Player@@U?$less@H@std@@V?$allocator@U?$pair@$$CBHUMovement@Player@@@std@@@4@$0A@@std@@@std@@IBEPBV?$_Tree_val@U?$_Tree_simple_types@U?$pair@$$CBHUMovement@Player@@@std@@@std@@@2@XZ 0043dad0 f i Player.obj
 0001:0003caf0       ?_Min@?$_Tree_val@U?$_Tree_simple_types@U?$pair@$$CBHUMovement@Player@@@std@@@std@@@std@@SAPAU?$_Tree_node@U?$pair@$$CBHUMovement@Player@@@std@@PAX@2@PAU32@@Z 0043daf0 f i Player.obj
 0001:0003cb20       ?_Unchecked_begin@?$_Tree@V?$_Tmap_traits@HUMovement@Player@@U?$less@H@std@@V?$allocator@U?$pair@$$CBHUMovement@Player@@@std@@@4@$0A@@std@@@std@@QBE?AV?$_Tree_unchecked_const_iterator@V?$_Tree_val@U?$_Tree_simple_types@U?$pair@$$CBHUMovement@Player@@@std@@@std@@@std@@U_Iterator_base0@2@@2@XZ 0043db20 f i Player.obj
 0001:0003cb60       ?_Unchecked_end@?$_Tree@V?$_Tmap_traits@HUMovement@Player@@U?$less@H@std@@V?$allocator@U?$pair@$$CBHUMovement@Player@@@std@@@4@$0A@@std@@@std@@QBE?AU_Default_sentinel@2@XZ 0043db60 f i Player.obj
 0001:0003cb80       ?getXCentre@DisplayableObject@@QBEHXZ 0043db80 f i Player.obj
 0001:0003cbb0       ?getYCentre@DisplayableObject@@QBEHXZ 0043dbb0 f i Player.obj
 0001:0003cbe0       ?isPaused@BaseEngine@@QAE_NXZ 0043dbe0 f i Player.obj
 0001:0003cc20       ?lifeDecrease@AgentBaseObject@@QAEXH@Z 0043dc20 f i Player.obj
 0001:0003cc60       ??1RunningState@@UAE@XZ    0043dc60 f   RunningState.obj
 0001:0003cce0       ?virtSetupBackgroundBuffer@RunningState@@UAEXXZ 0043dce0 f   RunningState.obj
 0001:0003ce80       ?virtDrawStringsUnderneath@RunningState@@UAEXXZ 0043de80 f   RunningState.obj
 0001:0003ce90       ?virtDrawStringsOnTop@RunningState@@UAEXXZ 0043de90 f   RunningState.obj
 0001:0003cf00       ?virtMouseDown@RunningState@@UAEXHHH@Z 0043df00 f   RunningState.obj
 0001:0003cf10       ?virtMouseUp@RunningState@@UAEXHHH@Z 0043df10 f   RunningState.obj
 0001:0003cf20       ?initialiseStateObject@RunningState@@UAEXXZ 0043df20 f   RunningState.obj
 0001:0003d2e0       ?virtKeyDown@RunningState@@UAEXH@Z 0043e2e0 f   RunningState.obj
 0001:0003d3a0       ?createNextState@RunningState@@QAE?AV?$shared_ptr@VState@@@std@@PAVScyjz14Engine@@H@Z 0043e3a0 f   RunningState.obj
 0001:0003d630       ??$?0$$CBHUMovement@Player@@$0A@@?$pair@$$CBHUMovement@Player@@@std@@QAE@ABHABUMovement@Player@@@Z 0043e630 f i RunningState.obj
 0001:0003d670       ??$?0$$V@?$_Compressed_pair@V?$allocator@U?$_Tree_node@U?$pair@$$CBHUMovement@Player@@@std@@PAX@std@@@std@@V?$_Tree_val@U?$_Tree_simple_types@U?$pair@$$CBHUMovement@Player@@@std@@@std@@@2@$00@std@@QAE@U_Zero_then_variadic_args_t@1@@Z 0043e670 f i RunningState.obj
 0001:0003d6a0       ??$?0$$V@?$_Compressed_pair@V?$allocator@U?$_Tree_node@U?$pair@$$CBHW4Direction@SpriteObject@@@std@@PAX@std@@@std@@V?$_Tree_val@U?$_Tree_simple_types@U?$pair@$$CBHW4Direction@SpriteObject@@@std@@@std@@@2@$00@std@@QAE@U_Zero_then_variadic_args_t@1@@Z 0043e6a0 f i RunningState.obj
 0001:0003d6d0       ??$?0AAPAVScyjz14Engine@@@?$_Ref_count_obj2@VWinState@@@std@@QAE@AAPAVScyjz14Engine@@@Z 0043e6d0 f i RunningState.obj
 0001:0003d780       ??$?0AAPAVScyjz14Engine@@AAV?$shared_ptr@VRunningState@@@std@@@?$_Ref_count_obj2@VPauseState@@@std@@QAE@AAPAVScyjz14Engine@@AAV?$shared_ptr@VRunningState@@@1@@Z 0043e780 f i RunningState.obj
 0001:0003d840       ??$?0AAPAVScyjz14Engine@@H@?$_Ref_count_obj2@VRunningState@@@std@@QAE@AAPAVScyjz14Engine@@$$QAH@Z 0043e840 f i RunningState.obj
 0001:0003d900       ??$?0ABU?$less@H@std@@U_Zero_then_variadic_args_t@1@@?$_Compressed_pair@U?$less@H@std@@V?$_Compressed_pair@V?$allocator@U?$_Tree_node@U?$pair@$$CBHUMovement@Player@@@std@@PAX@std@@@std@@V?$_Tree_val@U?$_Tree_simple_types@U?$pair@$$CBHUMovement@Player@@@std@@@std@@@2@$00@2@$00@std@@QAE@U_One_then_variadic_args_t@1@ABU?$less@H@1@$$QAU_Zero_then_variadic_args_t@1@@Z 0043e900 f i RunningState.obj
 0001:0003d950       ??$?0ABU?$less@H@std@@U_Zero_then_variadic_args_t@1@@?$_Compressed_pair@U?$less@H@std@@V?$_Compressed_pair@V?$allocator@U?$_Tree_node@U?$pair@$$CBHW4Direction@SpriteObject@@@std@@PAX@std@@@std@@V?$_Tree_val@U?$_Tree_simple_types@U?$pair@$$CBHW4Direction@SpriteObject@@@std@@@std@@@2@$00@2@$00@std@@QAE@U_One_then_variadic_args_t@1@ABU?$less@H@1@$$QAU_Zero_then_variadic_args_t@1@@Z 0043e950 f i RunningState.obj
 0001:0003d9a0       ??$?0ABU?$pair@$$CBHUMovement@Player@@@std@@@?$_Tree_temp_node@V?$allocator@U?$_Tree_node@U?$pair@$$CBHUMovement@Player@@@std@@PAX@std@@@std@@@std@@QAE@AAV?$allocator@U?$_Tree_node@U?$pair@$$CBHUMovement@Player@@@std@@PAX@std@@@1@PAU?$_Tree_node@U?$pair@$$CBHUMovement@Player@@@std@@PAX@1@ABU?$pair@$$CBHUMovement@Player@@@1@@Z 0043e9a0 f i RunningState.obj
 0001:0003dab0       ??$?0ABU?$pair@$$CBHW4Direction@SpriteObject@@@std@@@?$_Tree_temp_node@V?$allocator@U?$_Tree_node@U?$pair@$$CBHW4Direction@SpriteObject@@@std@@PAX@std@@@std@@@std@@QAE@AAV?$allocator@U?$_Tree_node@U?$pair@$$CBHW4Direction@SpriteObject@@@std@@PAX@std@@@1@PAU?$_Tree_node@U?$pair@$$CBHW4Direction@SpriteObject@@@std@@PAX@1@ABU?$pair@$$CBHW4Direction@SpriteObject@@@1@@Z 0043eab0 f i RunningState.obj
 0001:0003dbc0       ??$?0ABV?$allocator@UDirectionVector@Zombie@@@std@@$$V@?$_Compressed_pair@V?$allocator@UDirectionVector@Zombie@@@std@@V?$_Vector_val@U?$_Simple_types@UDirectionVector@Zombie@@@std@@@2@$00@std@@QAE@U_One_then_variadic_args_t@1@ABV?$allocator@UDirectionVector@Zombie@@@1@@Z 0043ebc0 f i RunningState.obj
 0001:0003dbf0       ??$?0U?$_Tree_node@U?$pair@$$CBHUMovement@Player@@@std@@PAX@std@@@?$allocator@U_Container_proxy@std@@@std@@QAE@ABV?$allocator@U?$_Tree_node@U?$pair@$$CBHUMovement@Player@@@std@@PAX@std@@@1@@Z 0043ebf0 f i RunningState.obj
 0001:0003dc10       ??$?0U?$_Tree_node@U?$pair@$$CBHW4Direction@SpriteObject@@@std@@PAX@std@@@?$allocator@U_Container_proxy@std@@@std@@QAE@ABV?$allocator@U?$_Tree_node@U?$pair@$$CBHW4Direction@SpriteObject@@@std@@PAX@std@@@1@@Z 0043ec10 f i RunningState.obj
 0001:0003dc30       ??$?0UDirectionVector@Zombie@@@?$allocator@U_Container_proxy@std@@@std@@QAE@ABV?$allocator@UDirectionVector@Zombie@@@1@@Z 0043ec30 f i RunningState.obj
 0001:0003dc50       ??$?0VPauseState@@$0A@@?$shared_ptr@VState@@@std@@QAE@$$QAV?$shared_ptr@VPauseState@@@1@@Z 0043ec50 f i RunningState.obj
 0001:0003dc90       ??$?0VRunningState@@$0A@@?$shared_ptr@VRunningState@@@std@@QAE@ABV?$weak_ptr@VRunningState@@@1@@Z 0043ec90 f i RunningState.obj
 0001:0003dcd0       ??$?0VRunningState@@$0A@@?$shared_ptr@VState@@@std@@QAE@ABV?$shared_ptr@VRunningState@@@1@@Z 0043ecd0 f i RunningState.obj
 0001:0003dd00       ??$?0VWinState@@$0A@@?$shared_ptr@VState@@@std@@QAE@$$QAV?$shared_ptr@VWinState@@@1@@Z 0043ed00 f i RunningState.obj
 0001:0003dd40       ??$?0W4<unnamed-enum-SDLK_UNKNOWN>@@W4Direction@SpriteObject@@$0A@@?$pair@$$CBHW4Direction@SpriteObject@@@std@@QAE@$$QAW4<unnamed-enum-SDLK_UNKNOWN>@@$$QAW4Direction@SpriteObject@@@Z 0043ed40 f i RunningState.obj
 0001:0003dd90       ??$_Adl_verify_range@PBU?$pair@$$CBHUMovement@Player@@@std@@PBU12@@std@@YAXABQBU?$pair@$$CBHUMovement@Player@@@0@0@Z 0043ed90 f i RunningState.obj
 0001:0003ddb0       ??$_Adl_verify_range@PBU?$pair@$$CBHW4Direction@SpriteObject@@@std@@PBU12@@std@@YAXABQBU?$pair@$$CBHW4Direction@SpriteObject@@@0@0@Z 0043edb0 f i RunningState.obj
 0001:0003ddd0       ??$_Buyheadnode@V?$allocator@U?$_Tree_node@U?$pair@$$CBHUMovement@Player@@@std@@PAX@std@@@std@@@?$_Tree_node@U?$pair@$$CBHUMovement@Player@@@std@@PAX@std@@SAPAU01@AAV?$allocator@U?$_Tree_node@U?$pair@$$CBHUMovement@Player@@@std@@PAX@std@@@1@@Z 0043edd0 f i RunningState.obj
 0001:0003de50       ??$_Buyheadnode@V?$allocator@U?$_Tree_node@U?$pair@$$CBHW4Direction@SpriteObject@@@std@@PAX@std@@@std@@@?$_Tree_node@U?$pair@$$CBHW4Direction@SpriteObject@@@std@@PAX@std@@SAPAU01@AAV?$allocator@U?$_Tree_node@U?$pair@$$CBHW4Direction@SpriteObject@@@std@@PAX@std@@@1@@Z 0043ee50 f i RunningState.obj
 0001:0003ded0       ??$_Construct_from_weak@VRunningState@@@?$_Ptr_base@VRunningState@@@std@@IAE_NABV?$weak_ptr@VRunningState@@@1@@Z 0043eed0 f i RunningState.obj
 0001:0003df30       ??$_Construct_in_place@PAU?$_Tree_node@U?$pair@$$CBHUMovement@Player@@@std@@PAX@std@@AAPAU12@@std@@YAXAAPAU?$_Tree_node@U?$pair@$$CBHUMovement@Player@@@std@@PAX@0@0@Z 0043ef30 f i RunningState.obj
 0001:0003df80       ??$_Construct_in_place@PAU?$_Tree_node@U?$pair@$$CBHUMovement@Player@@@std@@PAX@std@@ABQAU12@@std@@YAXAAPAU?$_Tree_node@U?$pair@$$CBHUMovement@Player@@@std@@PAX@0@ABQAU10@@Z 0043ef80 f i RunningState.obj
 0001:0003dfd0       ??$_Construct_in_place@PAU?$_Tree_node@U?$pair@$$CBHW4Direction@SpriteObject@@@std@@PAX@std@@AAPAU12@@std@@YAXAAPAU?$_Tree_node@U?$pair@$$CBHW4Direction@SpriteObject@@@std@@PAX@0@0@Z 0043efd0 f i RunningState.obj
 0001:0003e020       ??$_Construct_in_place@PAU?$_Tree_node@U?$pair@$$CBHW4Direction@SpriteObject@@@std@@PAX@std@@ABQAU12@@std@@YAXAAPAU?$_Tree_node@U?$pair@$$CBHW4Direction@SpriteObject@@@std@@PAX@0@ABQAU10@@Z 0043f020 f i RunningState.obj
 0001:0003e070       ??$_Construct_in_place@VPauseState@@AAPAVScyjz14Engine@@AAV?$shared_ptr@VRunningState@@@std@@@std@@YAXAAVPauseState@@AAPAVScyjz14Engine@@AAV?$shared_ptr@VRunningState@@@0@@Z 0043f070 f i RunningState.obj
 0001:0003e0f0       ??$_Construct_in_place@VRunningState@@AAPAVScyjz14Engine@@H@std@@YAXAAVRunningState@@AAPAVScyjz14Engine@@$$QAH@Z 0043f0f0 f i RunningState.obj
 0001:0003e160       ??$_Construct_in_place@VWinState@@AAPAVScyjz14Engine@@@std@@YAXAAVWinState@@AAPAVScyjz14Engine@@@Z 0043f160 f i RunningState.obj
 0001:0003e1c0       ??$_Copy_construct_from@VRunningState@@@?$_Ptr_base@VState@@@std@@IAEXABV?$shared_ptr@VRunningState@@@1@@Z 0043f1c0 f i RunningState.obj
 0001:0003e200       ??$_Copy_memmove@PAHPAH@std@@YAPAHPAH00@Z 0043f200 f i RunningState.obj
 0001:0003e290       ??$_Copy_memmove@PBUDirectionVector@Zombie@@PAU12@@std@@YAPAUDirectionVector@Zombie@@PBU12@0PAU12@@Z 0043f290 f i RunningState.obj
 0001:0003e320       ??$_Debug_lt_pred@ABU?$less@H@std@@ABHABH$0A@@std@@YA_NABU?$less@H@0@ABH1@Z 0043f320 f i RunningState.obj
 0001:0003e3d0       ??$_Destroy_in_place@PAU?$_Tree_node@U?$pair@$$CBHUMovement@Player@@@std@@PAX@std@@@std@@YAXAAPAU?$_Tree_node@U?$pair@$$CBHUMovement@Player@@@std@@PAX@0@@Z 0043f3d0 f i RunningState.obj
 0001:0003e3e0       ??$_Destroy_in_place@PAU?$_Tree_node@U?$pair@$$CBHW4Direction@SpriteObject@@@std@@PAX@std@@@std@@YAXAAPAU?$_Tree_node@U?$pair@$$CBHW4Direction@SpriteObject@@@std@@PAX@0@@Z 0043f3e0 f i RunningState.obj
 0001:0003e3f0       ??$_Destroy_in_place@VPauseState@@@std@@YAXAAVPauseState@@@Z 0043f3f0 f i RunningState.obj
 0001:0003e410       ??$_Destroy_in_place@VWinState@@@std@@YAXAAVWinState@@@Z 0043f410 f i RunningState.obj
 0001:0003e430       ??$_Destroy_range@V?$allocator@UDirectionVector@Zombie@@@std@@@std@@YAXPAUDirectionVector@Zombie@@QAU12@AAV?$allocator@UDirectionVector@Zombie@@@0@@Z 0043f430 f i RunningState.obj
 0001:0003e440       ??$_Emplace_back@ABUDirectionVector@Zombie@@@?$_Uninitialized_backout_al@V?$allocator@UDirectionVector@Zombie@@@std@@@std@@QAEXABUDirectionVector@Zombie@@@Z 0043f440 f i RunningState.obj
 0001:0003e4a0       ??$_Emplace_back@H@?$_Uninitialized_backout_al@V?$allocator@H@std@@@std@@QAEX$$QAH@Z 0043f4a0 f i RunningState.obj
 0001:0003e500       ??$_Emplace_back_with_unused_capacity@ABH@?$vector@HV?$allocator@H@std@@@std@@AAE?A_TABH@Z 0043f500 f i RunningState.obj
 0001:0003e5a0       ??$_Emplace_hint@ABU?$pair@$$CBHUMovement@Player@@@std@@@?$_Tree@V?$_Tmap_traits@HUMovement@Player@@U?$less@H@std@@V?$allocator@U?$pair@$$CBHUMovement@Player@@@std@@@4@$0A@@std@@@std@@IAEPAU?$_Tree_node@U?$pair@$$CBHUMovement@Player@@@std@@PAX@1@QAU21@ABU?$pair@$$CBHUMovement@Player@@@1@@Z 0043f5a0 f i RunningState.obj
 0001:0003e680       ??$_Emplace_hint@ABU?$pair@$$CBHW4Direction@SpriteObject@@@std@@@?$_Tree@V?$_Tmap_traits@HW4Direction@SpriteObject@@U?$less@H@std@@V?$allocator@U?$pair@$$CBHW4Direction@SpriteObject@@@std@@@4@$0A@@std@@@std@@IAEPAU?$_Tree_node@U?$pair@$$CBHW4Direction@SpriteObject@@@std@@PAX@1@QAU21@ABU?$pair@$$CBHW4Direction@SpriteObject@@@1@@Z 0043f680 f i RunningState.obj
 0001:0003e760       ??$_Emplace_reallocate@ABH@?$vector@HV?$allocator@H@std@@@std@@QAEPAHQAHABH@Z 0043f760 f i RunningState.obj
 0001:0003e9b0       ??$_Erase_head@V?$allocator@U?$_Tree_node@U?$pair@$$CBHUMovement@Player@@@std@@PAX@std@@@std@@@?$_Tree_val@U?$_Tree_simple_types@U?$pair@$$CBHUMovement@Player@@@std@@@std@@@std@@QAEXAAV?$allocator@U?$_Tree_node@U?$pair@$$CBHUMovement@Player@@@std@@PAX@std@@@1@@Z 0043f9b0 f i RunningState.obj
 0001:0003ea00       ??$_Erase_head@V?$allocator@U?$_Tree_node@U?$pair@$$CBHW4Direction@SpriteObject@@@std@@PAX@std@@@std@@@?$_Tree_val@U?$_Tree_simple_types@U?$pair@$$CBHW4Direction@SpriteObject@@@std@@@std@@@std@@QAEXAAV?$allocator@U?$_Tree_node@U?$pair@$$CBHW4Direction@SpriteObject@@@std@@PAX@std@@@1@@Z 0043fa00 f i RunningState.obj
 0001:0003ea50       ??$_Erase_tree@V?$allocator@U?$_Tree_node@U?$pair@$$CBHUMovement@Player@@@std@@PAX@std@@@std@@@?$_Tree_val@U?$_Tree_simple_types@U?$pair@$$CBHUMovement@Player@@@std@@@std@@@std@@QAEXAAV?$allocator@U?$_Tree_node@U?$pair@$$CBHUMovement@Player@@@std@@PAX@std@@@1@PAU?$_Tree_node@U?$pair@$$CBHUMovement@Player@@@std@@PAX@1@@Z 0043fa50 f i RunningState.obj
 0001:0003eab0       ??$_Erase_tree@V?$allocator@U?$_Tree_node@U?$pair@$$CBHW4Direction@SpriteObject@@@std@@PAX@std@@@std@@@?$_Tree_val@U?$_Tree_simple_types@U?$pair@$$CBHW4Direction@SpriteObject@@@std@@@std@@@std@@QAEXAAV?$allocator@U?$_Tree_node@U?$pair@$$CBHW4Direction@SpriteObject@@@std@@PAX@std@@@1@PAU?$_Tree_node@U?$pair@$$CBHW4Direction@SpriteObject@@@std@@PAX@1@@Z 0043fab0 f i RunningState.obj
 0001:0003eb10       ??$_Find_hint@H@?$_Tree@V?$_Tmap_traits@HUMovement@Player@@U?$less@H@std@@V?$allocator@U?$pair@$$CBHUMovement@Player@@@std@@@4@$0A@@std@@@std@@IBE?AU?$_Tree_find_hint_result@PAU?$_Tree_node@U?$pair@$$CBHUMovement@Player@@@std@@PAX@std@@@1@QAU?$_Tree_node@U?$pair@$$CBHUMovement@Player@@@std@@PAX@1@ABH@Z 0043fb10 f i RunningState.obj
 0001:0003eec0       ??$_Find_hint@H@?$_Tree@V?$_Tmap_traits@HW4Direction@SpriteObject@@U?$less@H@std@@V?$allocator@U?$pair@$$CBHW4Direction@SpriteObject@@@std@@@4@$0A@@std@@@std@@IBE?AU?$_Tree_find_hint_result@PAU?$_Tree_node@U?$pair@$$CBHW4Direction@SpriteObject@@@std@@PAX@std@@@1@QAU?$_Tree_node@U?$pair@$$CBHW4Direction@SpriteObject@@@std@@PAX@1@ABH@Z 0043fec0 f i RunningState.obj
 0001:0003f270       ??$_Find_lower_bound@H@?$_Tree@V?$_Tmap_traits@HUMovement@Player@@U?$less@H@std@@V?$allocator@U?$pair@$$CBHUMovement@Player@@@std@@@4@$0A@@std@@@std@@IBE?AU?$_Tree_find_result@PAU?$_Tree_node@U?$pair@$$CBHUMovement@Player@@@std@@PAX@std@@@1@ABH@Z 00440270 f i RunningState.obj
 0001:0003f360       ??$_Find_lower_bound@H@?$_Tree@V?$_Tmap_traits@HW4Direction@SpriteObject@@U?$less@H@std@@V?$allocator@U?$pair@$$CBHW4Direction@SpriteObject@@@std@@@4@$0A@@std@@@std@@IBE?AU?$_Tree_find_result@PAU?$_Tree_node@U?$pair@$$CBHW4Direction@SpriteObject@@@std@@PAX@std@@@1@ABH@Z 00440360 f i RunningState.obj
 0001:0003f450       ??$_Freenode0@V?$allocator@U?$_Tree_node@U?$pair@$$CBHUMovement@Player@@@std@@PAX@std@@@std@@@?$_Tree_node@U?$pair@$$CBHUMovement@Player@@@std@@PAX@std@@SAXAAV?$allocator@U?$_Tree_node@U?$pair@$$CBHUMovement@Player@@@std@@PAX@std@@@1@PAU01@@Z 00440450 f i RunningState.obj
 0001:0003f4e0       ??$_Freenode0@V?$allocator@U?$_Tree_node@U?$pair@$$CBHW4Direction@SpriteObject@@@std@@PAX@std@@@std@@@?$_Tree_node@U?$pair@$$CBHW4Direction@SpriteObject@@@std@@PAX@std@@SAXAAV?$allocator@U?$_Tree_node@U?$pair@$$CBHW4Direction@SpriteObject@@@std@@PAX@std@@@1@PAU01@@Z 004404e0 f i RunningState.obj
 0001:0003f570       ??$_Freenode@V?$allocator@U?$_Tree_node@U?$pair@$$CBHUMovement@Player@@@std@@PAX@std@@@std@@@?$_Tree_node@U?$pair@$$CBHUMovement@Player@@@std@@PAX@std@@SAXAAV?$allocator@U?$_Tree_node@U?$pair@$$CBHUMovement@Player@@@std@@PAX@std@@@1@PAU01@@Z 00440570 f i RunningState.obj
 0001:0003f5f0       ??$_Freenode@V?$allocator@U?$_Tree_node@U?$pair@$$CBHW4Direction@SpriteObject@@@std@@PAX@std@@@std@@@?$_Tree_node@U?$pair@$$CBHW4Direction@SpriteObject@@@std@@PAX@std@@SAXAAV?$allocator@U?$_Tree_node@U?$pair@$$CBHW4Direction@SpriteObject@@@std@@PAX@std@@@1@PAU01@@Z 004405f0 f i RunningState.obj
 0001:0003f670       ??$_Get_size_of_n@$0M@@std@@YAII@Z 00440670 f i RunningState.obj
 0001:0003f6a0       ??$_Get_unwrapped@AAPBU?$pair@$$CBHUMovement@Player@@@std@@@std@@YA?A_TAAPBU?$pair@$$CBHUMovement@Player@@@0@@Z 004406a0 f i RunningState.obj
 0001:0003f6b0       ??$_Get_unwrapped@AAPBU?$pair@$$CBHW4Direction@SpriteObject@@@std@@@std@@YA?A_TAAPBU?$pair@$$CBHW4Direction@SpriteObject@@@0@@Z 004406b0 f i RunningState.obj
 0001:0003f6c0       ??$_Get_unwrapped@ABQAH@std@@YA?A_TABQAH@Z 004406c0 f i RunningState.obj
 0001:0003f6d0       ??$_Get_unwrapped@ABQBUDirectionVector@Zombie@@@std@@YA?A_TABQBUDirectionVector@Zombie@@@Z 004406d0 f i RunningState.obj
 0001:0003f6e0       ??$_Kfn@$$CBHUMovement@Player@@@?$_Tmap_traits@HUMovement@Player@@U?$less@H@std@@V?$allocator@U?$pair@$$CBHUMovement@Player@@@std@@@4@$0A@@std@@SAABHABU?$pair@$$CBHUMovement@Player@@@1@@Z 004406e0 f i RunningState.obj
 0001:0003f6f0       ??$_Kfn@$$CBHW4Direction@SpriteObject@@@?$_Tmap_traits@HW4Direction@SpriteObject@@U?$less@H@std@@V?$allocator@U?$pair@$$CBHW4Direction@SpriteObject@@@std@@@4@$0A@@std@@SAABHABU?$pair@$$CBHW4Direction@SpriteObject@@@1@@Z 004406f0 f i RunningState.obj
 0001:0003f700       ??$_Lower_bound_duplicate@H@?$_Tree@V?$_Tmap_traits@HUMovement@Player@@U?$less@H@std@@V?$allocator@U?$pair@$$CBHUMovement@Player@@@std@@@4@$0A@@std@@@std@@IBE_NQAU?$_Tree_node@U?$pair@$$CBHUMovement@Player@@@std@@PAX@1@ABH@Z 00440700 f i RunningState.obj
 0001:0003f770       ??$_Lower_bound_duplicate@H@?$_Tree@V?$_Tmap_traits@HW4Direction@SpriteObject@@U?$less@H@std@@V?$allocator@U?$pair@$$CBHW4Direction@SpriteObject@@@std@@@4@$0A@@std@@@std@@IBE_NQAU?$_Tree_node@U?$pair@$$CBHW4Direction@SpriteObject@@@std@@PAX@1@ABH@Z 00440770 f i RunningState.obj
 0001:0003f7e0       ??$_Move_construct_from@VPauseState@@@?$_Ptr_base@VPauseState@@@std@@IAEX$$QAV01@@Z 004407e0 f i RunningState.obj
 0001:0003f830       ??$_Move_construct_from@VPauseState@@@?$_Ptr_base@VState@@@std@@IAEX$$QAV?$_Ptr_base@VPauseState@@@1@@Z 00440830 f i RunningState.obj
 0001:0003f880       ??$_Move_construct_from@VWinState@@@?$_Ptr_base@VState@@@std@@IAEX$$QAV?$_Ptr_base@VWinState@@@1@@Z 00440880 f i RunningState.obj
 0001:0003f8d0       ??$_Move_construct_from@VWinState@@@?$_Ptr_base@VWinState@@@std@@IAEX$$QAV01@@Z 004408d0 f i RunningState.obj
 0001:0003f920       ??$_Range_construct_or_tidy@PBUDirectionVector@Zombie@@@?$vector@UDirectionVector@Zombie@@V?$allocator@UDirectionVector@Zombie@@@std@@@std@@AAEXPBUDirectionVector@Zombie@@0Uforward_iterator_tag@1@@Z 00440920 f i RunningState.obj
 0001:0003fa00       ??$_Set_ptr_rep_and_enable_shared@VPauseState@@@?$shared_ptr@VPauseState@@@std@@AAEXQAVPauseState@@QAV_Ref_count_base@1@@Z 00440a00 f i RunningState.obj
 0001:0003fa30       ??$_Set_ptr_rep_and_enable_shared@VWinState@@@?$shared_ptr@VWinState@@@std@@AAEXQAVWinState@@QAV_Ref_count_base@1@@Z 00440a30 f i RunningState.obj
 0001:0003fa60       ??$_To_address@PAH@std@@YA?A_PABQAH@Z 00440a60 f i RunningState.obj
 0001:0003fa70       ??$_To_address@PAUDirectionVector@Zombie@@@std@@YA?A_PABQAUDirectionVector@Zombie@@@Z 00440a70 f i RunningState.obj
 0001:0003fa80       ??$_To_address@PBUDirectionVector@Zombie@@@std@@YA?A_PABQBUDirectionVector@Zombie@@@Z 00440a80 f i RunningState.obj
 0001:0003fa90       ??$_Ucopy@PBUDirectionVector@Zombie@@@?$vector@UDirectionVector@Zombie@@V?$allocator@UDirectionVector@Zombie@@@std@@@std@@AAEPAUDirectionVector@Zombie@@PBU23@0PAU23@@Z 00440a90 f i RunningState.obj
 0001:0003fad0       ??$_Unfancy@H@std@@YAPAHPAH@Z 00440ad0 f i RunningState.obj
 0001:0003fae0       ??$_Unfancy@UDirectionVector@Zombie@@@std@@YAPAUDirectionVector@Zombie@@PAU12@@Z 00440ae0 f i RunningState.obj
 0001:0003faf0       ??$_Uninitialized_copy@PBUDirectionVector@Zombie@@V?$allocator@UDirectionVector@Zombie@@@std@@@std@@YAPAUDirectionVector@Zombie@@QBU12@0PAU12@AAV?$allocator@UDirectionVector@Zombie@@@0@@Z 00440af0 f i RunningState.obj
 0001:0003fc10       ??$_Uninitialized_move@PAHV?$allocator@H@std@@@std@@YAPAHQAH0PAHAAV?$allocator@H@0@@Z 00440c10 f i RunningState.obj
 0001:0003fd30       ??$_Verify_range@U?$pair@$$CBHUMovement@Player@@@std@@@std@@YAXQBU?$pair@$$CBHUMovement@Player@@@0@0@Z 00440d30 f i RunningState.obj
 0001:0003fdb0       ??$_Verify_range@U?$pair@$$CBHW4Direction@SpriteObject@@@std@@@std@@YAXQBU?$pair@$$CBHW4Direction@SpriteObject@@@0@0@Z 00440db0 f i RunningState.obj
 0001:0003fe30       ??$_Voidify_iter@PAH@std@@YAPAXPAH@Z 00440e30 f i RunningState.obj
 0001:0003fe40       ??$_Voidify_iter@PAPAU?$_Tree_node@U?$pair@$$CBHUMovement@Player@@@std@@PAX@std@@@std@@YAPAXPAPAU?$_Tree_node@U?$pair@$$CBHUMovement@Player@@@std@@PAX@0@@Z 00440e40 f i RunningState.obj
 0001:0003fe50       ??$_Voidify_iter@PAPAU?$_Tree_node@U?$pair@$$CBHW4Direction@SpriteObject@@@std@@PAX@std@@@std@@YAPAXPAPAU?$_Tree_node@U?$pair@$$CBHW4Direction@SpriteObject@@@std@@PAX@0@@Z 00440e50 f i RunningState.obj
 0001:0003fe60       ??$_Voidify_iter@PAU?$pair@$$CBHUMovement@Player@@@std@@@std@@YAPAXPAU?$pair@$$CBHUMovement@Player@@@0@@Z 00440e60 f i RunningState.obj
 0001:0003fe70       ??$_Voidify_iter@PAU?$pair@$$CBHW4Direction@SpriteObject@@@std@@@std@@YAPAXPAU?$pair@$$CBHW4Direction@SpriteObject@@@0@@Z 00440e70 f i RunningState.obj
 0001:0003fe80       ??$_Voidify_iter@PAUDirectionVector@Zombie@@@std@@YAPAXPAUDirectionVector@Zombie@@@Z 00440e80 f i RunningState.obj
 0001:0003fe90       ??$_Voidify_iter@PAVPauseState@@@std@@YAPAXPAVPauseState@@@Z 00440e90 f i RunningState.obj
 0001:0003fea0       ??$_Voidify_iter@PAVWinState@@@std@@YAPAXPAVWinState@@@Z 00440ea0 f i RunningState.obj
 0001:0003feb0       ??$addressof@$$CBV?$_Tree_val@U?$_Tree_simple_types@U?$pair@$$CBHW4Direction@SpriteObject@@@std@@@std@@@std@@@std@@YAPBV?$_Tree_val@U?$_Tree_simple_types@U?$pair@$$CBHW4Direction@SpriteObject@@@std@@@std@@@0@ABV10@@Z 00440eb0 f i RunningState.obj
 0001:0003fec0       ??$addressof@PAU?$_Tree_node@U?$pair@$$CBHUMovement@Player@@@std@@PAX@std@@@std@@YAPAPAU?$_Tree_node@U?$pair@$$CBHUMovement@Player@@@std@@PAX@0@AAPAU10@@Z 00440ec0 f i RunningState.obj
 0001:0003fed0       ??$addressof@PAU?$_Tree_node@U?$pair@$$CBHW4Direction@SpriteObject@@@std@@PAX@std@@@std@@YAPAPAU?$_Tree_node@U?$pair@$$CBHW4Direction@SpriteObject@@@std@@PAX@0@AAPAU10@@Z 00440ed0 f i RunningState.obj
 0001:0003fee0       ??$addressof@U?$pair@$$CBHUMovement@Player@@@std@@@std@@YAPAU?$pair@$$CBHUMovement@Player@@@0@AAU10@@Z 00440ee0 f i RunningState.obj
 0001:0003fef0       ??$addressof@U?$pair@$$CBHW4Direction@SpriteObject@@@std@@@std@@YAPAU?$pair@$$CBHW4Direction@SpriteObject@@@0@AAU10@@Z 00440ef0 f i RunningState.obj
 0001:0003ff00       ??$addressof@V?$_Tree_val@U?$_Tree_simple_types@U?$pair@$$CBHUMovement@Player@@@std@@@std@@@std@@@std@@YAPAV?$_Tree_val@U?$_Tree_simple_types@U?$pair@$$CBHUMovement@Player@@@std@@@std@@@0@AAV10@@Z 00440f00 f i RunningState.obj
 0001:0003ff10       ??$addressof@V?$_Tree_val@U?$_Tree_simple_types@U?$pair@$$CBHW4Direction@SpriteObject@@@std@@@std@@@std@@@std@@YAPAV?$_Tree_val@U?$_Tree_simple_types@U?$pair@$$CBHW4Direction@SpriteObject@@@std@@@std@@@0@AAV10@@Z 00440f10 f i RunningState.obj
 0001:0003ff20       ??$addressof@VPauseState@@@std@@YAPAVPauseState@@AAV1@@Z 00440f20 f i RunningState.obj
 0001:0003ff30       ??$addressof@VWinState@@@std@@YAPAVWinState@@AAV1@@Z 00440f30 f i RunningState.obj
 0001:0003ff40       ??$construct@HABH@?$_Default_allocator_traits@V?$allocator@H@std@@@std@@SAXAAV?$allocator@H@1@QAHABH@Z 00440f40 f i RunningState.obj
 0001:0003ff90       ??$construct@HH@?$_Default_allocator_traits@V?$allocator@H@std@@@std@@SAXAAV?$allocator@H@1@QAH$$QAH@Z 00440f90 f i RunningState.obj
 0001:0003ffe0       ??$construct@U?$pair@$$CBHUMovement@Player@@@std@@ABU12@@?$_Default_allocator_traits@V?$allocator@U?$_Tree_node@U?$pair@$$CBHUMovement@Player@@@std@@PAX@std@@@std@@@std@@SAXAAV?$allocator@U?$_Tree_node@U?$pair@$$CBHUMovement@Player@@@std@@PAX@std@@@1@QAU?$pair@$$CBHUMovement@Player@@@1@ABU31@@Z 00440fe0 f i RunningState.obj
 0001:00040040       ??$construct@U?$pair@$$CBHW4Direction@SpriteObject@@@std@@ABU12@@?$_Default_allocator_traits@V?$allocator@U?$_Tree_node@U?$pair@$$CBHW4Direction@SpriteObject@@@std@@PAX@std@@@std@@@std@@SAXAAV?$allocator@U?$_Tree_node@U?$pair@$$CBHW4Direction@SpriteObject@@@std@@PAX@std@@@1@QAU?$pair@$$CBHW4Direction@SpriteObject@@@1@ABU31@@Z 00441040 f i RunningState.obj
 0001:00040090       ??$construct@UDirectionVector@Zombie@@ABU12@@?$_Default_allocator_traits@V?$allocator@UDirectionVector@Zombie@@@std@@@std@@SAXAAV?$allocator@UDirectionVector@Zombie@@@1@QAUDirectionVector@Zombie@@ABU34@@Z 00441090 f i RunningState.obj
 0001:000400f0       ??$destroy@U?$pair@$$CBHUMovement@Player@@@std@@@?$_Default_allocator_traits@V?$allocator@U?$_Tree_node@U?$pair@$$CBHUMovement@Player@@@std@@PAX@std@@@std@@@std@@SAXAAV?$allocator@U?$_Tree_node@U?$pair@$$CBHUMovement@Player@@@std@@PAX@std@@@1@QAU?$pair@$$CBHUMovement@Player@@@1@@Z 004410f0 f i RunningState.obj
 0001:00040100       ??$destroy@U?$pair@$$CBHW4Direction@SpriteObject@@@std@@@?$_Default_allocator_traits@V?$allocator@U?$_Tree_node@U?$pair@$$CBHW4Direction@SpriteObject@@@std@@PAX@std@@@std@@@std@@SAXAAV?$allocator@U?$_Tree_node@U?$pair@$$CBHW4Direction@SpriteObject@@@std@@PAX@std@@@1@QAU?$pair@$$CBHW4Direction@SpriteObject@@@1@@Z 00441100 f i RunningState.obj
 0001:00040110       ??$distance@PBUDirectionVector@Zombie@@@std@@YAHPBUDirectionVector@Zombie@@0@Z 00441110 f i RunningState.obj
 0001:00040130       ??$emplace_back@ABH@?$vector@HV?$allocator@H@std@@@std@@QAE?A_TABH@Z 00441130 f i RunningState.obj
 0001:000401b0       ??$exchange@PAU?$_Tree_node@U?$pair@$$CBHUMovement@Player@@@std@@PAX@std@@$$T@std@@YAPAU?$_Tree_node@U?$pair@$$CBHUMovement@Player@@@std@@PAX@0@AAPAU10@$$QA$$T@Z 004411b0 f i RunningState.obj
 0001:000401e0       ??$exchange@PAU?$_Tree_node@U?$pair@$$CBHUMovement@Player@@@std@@PAX@std@@AAPAU12@@std@@YAPAU?$_Tree_node@U?$pair@$$CBHUMovement@Player@@@std@@PAX@0@AAPAU10@0@Z 004411e0 f i RunningState.obj
 0001:00040210       ??$exchange@PAU?$_Tree_node@U?$pair@$$CBHW4Direction@SpriteObject@@@std@@PAX@std@@$$T@std@@YAPAU?$_Tree_node@U?$pair@$$CBHW4Direction@SpriteObject@@@std@@PAX@0@AAPAU10@$$QA$$T@Z 00441210 f i RunningState.obj
 0001:00040240       ??$exchange@PAU?$_Tree_node@U?$pair@$$CBHW4Direction@SpriteObject@@@std@@PAX@std@@AAPAU12@@std@@YAPAU?$_Tree_node@U?$pair@$$CBHW4Direction@SpriteObject@@@std@@PAX@0@AAPAU10@0@Z 00441240 f i RunningState.obj
 0001:00040270       ??$forward@AAPAU?$_Tree_node@U?$pair@$$CBHUMovement@Player@@@std@@PAX@std@@@std@@YAAAPAU?$_Tree_node@U?$pair@$$CBHUMovement@Player@@@std@@PAX@0@AAPAU10@@Z 00441270 f i RunningState.obj
 0001:00040280       ??$forward@AAPAU?$_Tree_node@U?$pair@$$CBHW4Direction@SpriteObject@@@std@@PAX@std@@@std@@YAAAPAU?$_Tree_node@U?$pair@$$CBHW4Direction@SpriteObject@@@std@@PAX@0@AAPAU10@@Z 00441280 f i RunningState.obj
 0001:00040290       ??$forward@AAV?$shared_ptr@VRunningState@@@std@@@std@@YAAAV?$shared_ptr@VRunningState@@@0@AAV10@@Z 00441290 f i RunningState.obj
 0001:000402a0       ??$forward@ABH@std@@YAABHABH@Z 004412a0 f i RunningState.obj
 0001:000402b0       ??$forward@ABQAU?$_Tree_node@U?$pair@$$CBHUMovement@Player@@@std@@PAX@std@@@std@@YAABQAU?$_Tree_node@U?$pair@$$CBHUMovement@Player@@@std@@PAX@0@ABQAU10@@Z 004412b0 f i RunningState.obj
 0001:000402c0       ??$forward@ABQAU?$_Tree_node@U?$pair@$$CBHW4Direction@SpriteObject@@@std@@PAX@std@@@std@@YAABQAU?$_Tree_node@U?$pair@$$CBHW4Direction@SpriteObject@@@std@@PAX@0@ABQAU10@@Z 004412c0 f i RunningState.obj
 0001:000402d0       ??$forward@ABU?$less@H@std@@@std@@YAABU?$less@H@0@ABU10@@Z 004412d0 f i RunningState.obj
 0001:000402e0       ??$forward@ABU?$pair@$$CBHUMovement@Player@@@std@@@std@@YAABU?$pair@$$CBHUMovement@Player@@@0@ABU10@@Z 004412e0 f i RunningState.obj
 0001:000402f0       ??$forward@ABU?$pair@$$CBHW4Direction@SpriteObject@@@std@@@std@@YAABU?$pair@$$CBHW4Direction@SpriteObject@@@0@ABU10@@Z 004412f0 f i RunningState.obj
 0001:00040300       ??$forward@ABUDirectionVector@Zombie@@@std@@YAABUDirectionVector@Zombie@@ABU12@@Z 00441300 f i RunningState.obj
 0001:00040310       ??$forward@ABV?$allocator@UDirectionVector@Zombie@@@std@@@std@@YAABV?$allocator@UDirectionVector@Zombie@@@0@ABV10@@Z 00441310 f i RunningState.obj
 0001:00040320       ??$forward@W4<unnamed-enum-SDLK_UNKNOWN>@@@std@@YA$$QAW4<unnamed-enum-SDLK_UNKNOWN>@@AAW41@@Z 00441320 f i RunningState.obj
 0001:00040330       ??$forward@W4Direction@SpriteObject@@@std@@YA$$QAW4Direction@SpriteObject@@AAW412@@Z 00441330 f i RunningState.obj
 0001:00040340       ??$insert@PBU?$pair@$$CBHUMovement@Player@@@std@@@?$_Tree@V?$_Tmap_traits@HUMovement@Player@@U?$less@H@std@@V?$allocator@U?$pair@$$CBHUMovement@Player@@@std@@@4@$0A@@std@@@std@@QAEXPBU?$pair@$$CBHUMovement@Player@@@1@0@Z 00441340 f i RunningState.obj
 0001:000403d0       ??$insert@PBU?$pair@$$CBHW4Direction@SpriteObject@@@std@@@?$_Tree@V?$_Tmap_traits@HW4Direction@SpriteObject@@U?$less@H@std@@V?$allocator@U?$pair@$$CBHW4Direction@SpriteObject@@@std@@@4@$0A@@std@@@std@@QAEXPBU?$pair@$$CBHW4Direction@SpriteObject@@@1@0@Z 004413d0 f i RunningState.obj
 0001:00040460       ??$make_shared@VPauseState@@AAPAVScyjz14Engine@@AAV?$shared_ptr@VRunningState@@@std@@@std@@YA?AV?$shared_ptr@VPauseState@@@0@AAPAVScyjz14Engine@@AAV?$shared_ptr@VRunningState@@@0@@Z 00441460 f i RunningState.obj
 0001:00040570       ??$make_shared@VRunningState@@AAPAVScyjz14Engine@@H@std@@YA?AV?$shared_ptr@VRunningState@@@0@AAPAVScyjz14Engine@@$$QAH@Z 00441570 f i RunningState.obj
 0001:00040680       ??$make_shared@VWinState@@AAPAVScyjz14Engine@@@std@@YA?AV?$shared_ptr@VWinState@@@0@AAPAVScyjz14Engine@@@Z 00441680 f i RunningState.obj
 0001:00040780       ??$move@AAV?$shared_ptr@VPauseState@@@std@@@std@@YA$$QAV?$shared_ptr@VPauseState@@@0@AAV10@@Z 00441780 f i RunningState.obj
 0001:00040790       ??$move@AAV?$shared_ptr@VWinState@@@std@@@std@@YA$$QAV?$shared_ptr@VWinState@@@0@AAV10@@Z 00441790 f i RunningState.obj
 0001:000407a0       ??0?$_Alloc_construct_ptr@V?$allocator@U?$_Tree_node@U?$pair@$$CBHUMovement@Player@@@std@@PAX@std@@@std@@@std@@QAE@AAV?$allocator@U?$_Tree_node@U?$pair@$$CBHUMovement@Player@@@std@@PAX@std@@@1@@Z 004417a0 f i RunningState.obj
 0001:000407d0       ??0?$_Alloc_construct_ptr@V?$allocator@U?$_Tree_node@U?$pair@$$CBHW4Direction@SpriteObject@@@std@@PAX@std@@@std@@@std@@QAE@AAV?$allocator@U?$_Tree_node@U?$pair@$$CBHW4Direction@SpriteObject@@@std@@PAX@std@@@1@@Z 004417d0 f i RunningState.obj
 0001:00040800       ??0?$_Ptr_base@VPauseState@@@std@@IAE@XZ 00441800 f i RunningState.obj
 0001:00040830       ??0?$_Ptr_base@VWinState@@@std@@IAE@XZ 00441830 f i RunningState.obj
 0001:00040860       ??0?$_Tree@V?$_Tmap_traits@HUMovement@Player@@U?$less@H@std@@V?$allocator@U?$pair@$$CBHUMovement@Player@@@std@@@4@$0A@@std@@@std@@QAE@ABU?$less@H@1@@Z 00441860 f i RunningState.obj
 0001:000408a0       ??0?$_Tree@V?$_Tmap_traits@HW4Direction@SpriteObject@@U?$less@H@std@@V?$allocator@U?$pair@$$CBHW4Direction@SpriteObject@@@std@@@4@$0A@@std@@@std@@QAE@ABU?$less@H@1@@Z 004418a0 f i RunningState.obj
 0001:000408e0       ??0?$_Tree_temp_node_alloc@V?$allocator@U?$_Tree_node@U?$pair@$$CBHUMovement@Player@@@std@@PAX@std@@@std@@@std@@QAE@AAV?$allocator@U?$_Tree_node@U?$pair@$$CBHUMovement@Player@@@std@@PAX@std@@@1@@Z 004418e0 f i RunningState.obj
 0001:00040960       ??0?$_Tree_temp_node_alloc@V?$allocator@U?$_Tree_node@U?$pair@$$CBHW4Direction@SpriteObject@@@std@@PAX@std@@@std@@@std@@QAE@AAV?$allocator@U?$_Tree_node@U?$pair@$$CBHW4Direction@SpriteObject@@@std@@PAX@std@@@1@@Z 00441960 f i RunningState.obj
 0001:000409e0       ??0?$_Tree_unchecked_const_iterator@V?$_Tree_val@U?$_Tree_simple_types@U?$pair@$$CBHW4Direction@SpriteObject@@@std@@@std@@@std@@U_Iterator_base0@2@@std@@QAE@PAU?$_Tree_node@U?$pair@$$CBHW4Direction@SpriteObject@@@std@@PAX@1@PBV?$_Tree_val@U?$_Tree_simple_types@U?$pair@$$CBHW4Direction@SpriteObject@@@std@@@std@@@1@@Z 004419e0 f i RunningState.obj
 0001:00040a10       ??0?$_Tree_val@U?$_Tree_simple_types@U?$pair@$$CBHUMovement@Player@@@std@@@std@@@std@@QAE@XZ 00441a10 f i RunningState.obj
 0001:00040a50       ??0?$_Tree_val@U?$_Tree_simple_types@U?$pair@$$CBHW4Direction@SpriteObject@@@std@@@std@@@std@@QAE@XZ 00441a50 f i RunningState.obj
 0001:00040a90       ??0?$_Uninitialized_backout_al@V?$allocator@H@std@@@std@@QAE@PAHAAV?$allocator@H@1@@Z 00441a90 f i RunningState.obj
 0001:00040ad0       ??0?$_Uninitialized_backout_al@V?$allocator@UDirectionVector@Zombie@@@std@@@std@@QAE@PAUDirectionVector@Zombie@@AAV?$allocator@UDirectionVector@Zombie@@@1@@Z 00441ad0 f i RunningState.obj
 0001:00040b10       ??0?$_Vector_val@U?$_Simple_types@UDirectionVector@Zombie@@@std@@@std@@QAE@XZ 00441b10 f i RunningState.obj
 0001:00040b60       ??0?$allocator@U?$_Tree_node@U?$pair@$$CBHUMovement@Player@@@std@@PAX@std@@@std@@QAE@XZ 00441b60 f i RunningState.obj
 0001:00040b80       ??0?$allocator@U?$_Tree_node@U?$pair@$$CBHW4Direction@SpriteObject@@@std@@PAX@std@@@std@@QAE@XZ 00441b80 f i RunningState.obj
 0001:00040ba0       ??0?$allocator@UDirectionVector@Zombie@@@std@@QAE@XZ 00441ba0 f i RunningState.obj
 0001:00040bc0       ??0?$initializer_list@U?$pair@$$CBHUMovement@Player@@@std@@@std@@QAE@PBU?$pair@$$CBHUMovement@Player@@@1@0@Z 00441bc0 f i RunningState.obj
 0001:00040bf0       ??0?$initializer_list@U?$pair@$$CBHW4Direction@SpriteObject@@@std@@@std@@QAE@PBU?$pair@$$CBHW4Direction@SpriteObject@@@1@0@Z 00441bf0 f i RunningState.obj
 0001:00040c20       ??0?$initializer_list@UDirectionVector@Zombie@@@std@@QAE@PBUDirectionVector@Zombie@@0@Z 00441c20 f i RunningState.obj
 0001:00040c50       ??0?$map@HUMovement@Player@@U?$less@H@std@@V?$allocator@U?$pair@$$CBHUMovement@Player@@@std@@@4@@std@@QAE@V?$initializer_list@U?$pair@$$CBHUMovement@Player@@@std@@@1@@Z 00441c50 f i RunningState.obj
 0001:00040cd0       ??0?$map@HW4Direction@SpriteObject@@U?$less@H@std@@V?$allocator@U?$pair@$$CBHW4Direction@SpriteObject@@@std@@@4@@std@@QAE@V?$initializer_list@U?$pair@$$CBHW4Direction@SpriteObject@@@std@@@1@@Z 00441cd0 f i RunningState.obj
 0001:00040d50       ??0?$shared_ptr@VPauseState@@@std@@QAE@$$QAV01@@Z 00441d50 f i RunningState.obj
 0001:00040d90       ??0?$shared_ptr@VPauseState@@@std@@QAE@XZ 00441d90 f i RunningState.obj
 0001:00040db0       ??0?$shared_ptr@VWinState@@@std@@QAE@$$QAV01@@Z 00441db0 f i RunningState.obj
 0001:00040df0       ??0?$shared_ptr@VWinState@@@std@@QAE@XZ 00441df0 f i RunningState.obj
 0001:00040e10       ??0?$vector@UDirectionVector@Zombie@@V?$allocator@UDirectionVector@Zombie@@@std@@@std@@QAE@V?$initializer_list@UDirectionVector@Zombie@@@1@ABV?$allocator@UDirectionVector@Zombie@@@1@@Z 00441e10 f i RunningState.obj
 0001:00040ef0       ??0AgentBaseObject@@QAE@HHPAVBaseEngine@@ABV?$basic_string@DU?$char_traits@D@std@@V?$allocator@D@2@@std@@HH_N2@Z 00441ef0 f i RunningState.obj
 0001:00041070       ??0Door@@QAE@HHPAVBaseEngine@@V?$shared_ptr@VState@@@std@@V?$basic_string@DU?$char_traits@D@std@@V?$allocator@D@2@@3@@Z 00442070 f i RunningState.obj
 0001:00041130       ??0PauseState@@QAE@PAVScyjz14Engine@@V?$shared_ptr@VState@@@std@@@Z 00442130 f i RunningState.obj
 0001:000411f0       ??0Player@@QAE@HHPAVBaseEngine@@PAVScyjz14TileManager@@V?$basic_string@DU?$char_traits@D@std@@V?$allocator@D@2@@std@@HH_N3@Z 004421f0 f i RunningState.obj
 0001:00041440       ??0Scyjz14Image@@QAE@ABVSimpleImage@@@Z 00442440 f i RunningState.obj
 0001:00041470       ??0SpriteObject@@QAE@HHPAVBaseEngine@@ABV?$basic_string@DU?$char_traits@D@std@@V?$allocator@D@2@@std@@HH_N2@Z 00442470 f i RunningState.obj
 0001:00041520       ??0Weapon@@QAE@HHPAVBaseEngine@@V?$basic_string@DU?$char_traits@D@std@@V?$allocator@D@2@@std@@@Z 00442520 f i RunningState.obj
 0001:00041720       ??0Zombie@@QAE@HHPAVBaseEngine@@PAVScyjz14TileManager@@HV?$basic_string@DU?$char_traits@D@std@@V?$allocator@D@2@@std@@HH_N3@Z 00442720 f i RunningState.obj
 0001:00041940       ??0bad_weak_ptr@std@@QAE@ABV01@@Z 00442940 f i RunningState.obj
 0001:00041970       ??0bad_weak_ptr@std@@QAE@XZ 00442970 f i RunningState.obj
 0001:000419a0       ??0exception@std@@QAE@XZ   004429a0 f i RunningState.obj
 0001:000419d0       ??1?$_Alloc_construct_ptr@V?$allocator@U?$_Tree_node@U?$pair@$$CBHUMovement@Player@@@std@@PAX@std@@@std@@@std@@QAE@XZ 004429d0 f i RunningState.obj
 0001:00041a40       ??1?$_Alloc_construct_ptr@V?$allocator@U?$_Tree_node@U?$pair@$$CBHW4Direction@SpriteObject@@@std@@PAX@std@@@std@@@std@@QAE@XZ 00442a40 f i RunningState.obj
 0001:00041ab0       ??1?$_Ref_count_obj2@VPauseState@@@std@@UAE@XZ 00442ab0 f i RunningState.obj
 0001:00041ae0       ??1?$_Ref_count_obj2@VWinState@@@std@@UAE@XZ 00442ae0 f i RunningState.obj
 0001:00041b10       ??1?$_Tidy_guard@V?$vector@UDirectionVector@Zombie@@V?$allocator@UDirectionVector@Zombie@@@std@@@std@@@std@@QAE@XZ 00442b10 f i RunningState.obj
 0001:00041b40       ??1?$_Tree@V?$_Tmap_traits@HUMovement@Player@@U?$less@H@std@@V?$allocator@U?$pair@$$CBHUMovement@Player@@@std@@@4@$0A@@std@@@std@@QAE@XZ 00442b40 f i RunningState.obj
 0001:00041bb0       ??1?$_Tree@V?$_Tmap_traits@HW4Direction@SpriteObject@@U?$less@H@std@@V?$allocator@U?$pair@$$CBHW4Direction@SpriteObject@@@std@@@4@$0A@@std@@@std@@QAE@XZ 00442bb0 f i RunningState.obj
 0001:00041c20       ??1?$_Tree_temp_node@V?$allocator@U?$_Tree_node@U?$pair@$$CBHUMovement@Player@@@std@@PAX@std@@@std@@@std@@QAE@XZ 00442c20 f i RunningState.obj
 0001:00041cf0       ??1?$_Tree_temp_node@V?$allocator@U?$_Tree_node@U?$pair@$$CBHW4Direction@SpriteObject@@@std@@PAX@std@@@std@@@std@@QAE@XZ 00442cf0 f i RunningState.obj
 0001:00041dc0       ??1?$_Tree_temp_node_alloc@V?$allocator@U?$_Tree_node@U?$pair@$$CBHUMovement@Player@@@std@@PAX@std@@@std@@@std@@QAE@XZ 00442dc0 f i RunningState.obj
 0001:00041de0       ??1?$_Tree_temp_node_alloc@V?$allocator@U?$_Tree_node@U?$pair@$$CBHW4Direction@SpriteObject@@@std@@PAX@std@@@std@@@std@@QAE@XZ 00442de0 f i RunningState.obj
 0001:00041e00       ??1?$_Uninitialized_backout_al@V?$allocator@H@std@@@std@@QAE@XZ 00442e00 f i RunningState.obj
 0001:00041e30       ??1?$_Uninitialized_backout_al@V?$allocator@UDirectionVector@Zombie@@@std@@@std@@QAE@XZ 00442e30 f i RunningState.obj
 0001:00041e60       ??1?$enable_shared_from_this@VRunningState@@@std@@IAE@XZ 00442e60 f i RunningState.obj
 0001:00041e80       ??1?$map@HUMovement@Player@@U?$less@H@std@@V?$allocator@U?$pair@$$CBHUMovement@Player@@@std@@@4@@std@@QAE@XZ 00442e80 f i RunningState.obj
 0001:00041ea0       ??1?$map@HW4Direction@SpriteObject@@U?$less@H@std@@V?$allocator@U?$pair@$$CBHW4Direction@SpriteObject@@@std@@@4@@std@@QAE@XZ 00442ea0 f i RunningState.obj
 0001:00041ec0       ??1?$shared_ptr@VPauseState@@@std@@QAE@XZ 00442ec0 f i RunningState.obj
 0001:00041ee0       ??1?$shared_ptr@VWinState@@@std@@QAE@XZ 00442ee0 f i RunningState.obj
 0001:00041f00       ??1?$vector@UDirectionVector@Zombie@@V?$allocator@UDirectionVector@Zombie@@@std@@@std@@QAE@XZ 00442f00 f i RunningState.obj
 0001:00041f70       ??1AgentBaseObject@@UAE@XZ 00442f70 f i RunningState.obj
 0001:00041fa0       ??1Door@@UAE@XZ            00442fa0 f i RunningState.obj
 0001:00041fd0       ??1Player@@UAE@XZ          00442fd0 f i RunningState.obj
 0001:00042000       ??1SpriteObject@@UAE@XZ    00443000 f i RunningState.obj
 0001:00042020       ??1Weapon@@UAE@XZ          00443020 f i RunningState.obj
 0001:00042050       ??1Zombie@@UAE@XZ          00443050 f i RunningState.obj
 0001:00042080       ??1bad_weak_ptr@std@@UAE@XZ 00443080 f i RunningState.obj
 0001:000420a0       ??4?$basic_string@DU?$char_traits@D@std@@V?$allocator@D@2@@std@@QAEAAV01@QBD@Z 004430a0 f i RunningState.obj
 0001:000420c0       ??C?$unique_ptr@V?$vector@HV?$allocator@H@std@@@std@@U?$default_delete@V?$vector@HV?$allocator@H@std@@@std@@@2@@std@@QBEPAV?$vector@HV?$allocator@H@std@@@1@XZ 004430c0 f i RunningState.obj
 0001:000420e0       ??E?$_Tree_unchecked_const_iterator@V?$_Tree_val@U?$_Tree_simple_types@U?$pair@$$CBHW4Direction@SpriteObject@@@std@@@std@@@std@@U_Iterator_base0@2@@std@@QAEAAV01@XZ 004430e0 f i RunningState.obj
 0001:00042170       ??F?$_Tree_unchecked_const_iterator@V?$_Tree_val@U?$_Tree_simple_types@U?$pair@$$CBHUMovement@Player@@@std@@@std@@@std@@U_Iterator_base0@2@@std@@QAEAAV01@XZ 00443170 f i RunningState.obj
 0001:00042230       ??F?$_Tree_unchecked_const_iterator@V?$_Tree_val@U?$_Tree_simple_types@U?$pair@$$CBHW4Direction@SpriteObject@@@std@@@std@@@std@@U_Iterator_base0@2@@std@@QAEAAV01@XZ 00443230 f i RunningState.obj
 0001:000422f0       ??R?$less@H@std@@QBE_NABH0@Z 004432f0 f i RunningState.obj
 0001:00042330       ??_E?$_Ref_count_obj2@VPauseState@@@std@@UAEPAXI@Z 00443330 f i RunningState.obj
 0001:00042330       ??_G?$_Ref_count_obj2@VPauseState@@@std@@UAEPAXI@Z 00443330 f i RunningState.obj
 0001:00042370       ??_G?$_Ref_count_obj2@VWinState@@@std@@UAEPAXI@Z 00443370 f i RunningState.obj
 0001:00042370       ??_E?$_Ref_count_obj2@VWinState@@@std@@UAEPAXI@Z 00443370 f i RunningState.obj
 0001:000423b0       ??_EAgentBaseObject@@UAEPAXI@Z 004433b0 f i RunningState.obj
 0001:000423b0       ??_GAgentBaseObject@@UAEPAXI@Z 004433b0 f i RunningState.obj
 0001:000423f0       ??_GDoor@@UAEPAXI@Z        004433f0 f i RunningState.obj
 0001:000423f0       ??_EDoor@@UAEPAXI@Z        004433f0 f i RunningState.obj
 0001:00042430       ??_GPlayer@@UAEPAXI@Z      00443430 f i RunningState.obj
 0001:00042430       ??_EPlayer@@UAEPAXI@Z      00443430 f i RunningState.obj
 0001:00042470       ??_GSpriteObject@@UAEPAXI@Z 00443470 f i RunningState.obj
 0001:00042470       ??_ESpriteObject@@UAEPAXI@Z 00443470 f i RunningState.obj
 0001:000424b0       ??_EWeapon@@UAEPAXI@Z      004434b0 f i RunningState.obj
 0001:000424b0       ??_GWeapon@@UAEPAXI@Z      004434b0 f i RunningState.obj
 0001:000424f0       ??_EZombie@@UAEPAXI@Z      004434f0 f i RunningState.obj
 0001:000424f0       ??_GZombie@@UAEPAXI@Z      004434f0 f i RunningState.obj
 0001:00042530       ??_Ebad_weak_ptr@std@@UAEPAXI@Z 00443530 f i RunningState.obj
 0001:00042530       ??_Gbad_weak_ptr@std@@UAEPAXI@Z 00443530 f i RunningState.obj
 0001:00042570       ?GetTileManager@Scyjz14Engine@@QAEPAVScyjz14TileManager@@XZ 00443570 f i RunningState.obj
 0001:00042590       ?_Alloc_sentinel_and_proxy@?$_Tree@V?$_Tmap_traits@HUMovement@Player@@U?$less@H@std@@V?$allocator@U?$pair@$$CBHUMovement@Player@@@std@@@4@$0A@@std@@@std@@IAEXXZ 00443590 f i RunningState.obj
 0001:00042660       ?_Alloc_sentinel_and_proxy@?$_Tree@V?$_Tmap_traits@HW4Direction@SpriteObject@@U?$less@H@std@@V?$allocator@U?$pair@$$CBHW4Direction@SpriteObject@@@std@@@4@$0A@@std@@@std@@IAEXXZ 00443660 f i RunningState.obj
 0001:00042730       ?_Allocate@?$_Alloc_construct_ptr@V?$allocator@U?$_Tree_node@U?$pair@$$CBHUMovement@Player@@@std@@PAX@std@@@std@@@std@@QAEXXZ 00443730 f i RunningState.obj
 0001:00042760       ?_Allocate@?$_Alloc_construct_ptr@V?$allocator@U?$_Tree_node@U?$pair@$$CBHW4Direction@SpriteObject@@@std@@PAX@std@@@std@@@std@@QAEXXZ 00443760 f i RunningState.obj
 0001:00042790       ?_Buy_nonzero@?$vector@UDirectionVector@Zombie@@V?$allocator@UDirectionVector@Zombie@@@std@@@std@@AAEXI@Z 00443790 f i RunningState.obj
 0001:000427d0       ?_Buy_raw@?$vector@UDirectionVector@Zombie@@V?$allocator@UDirectionVector@Zombie@@@std@@@std@@AAEXI@Z 004437d0 f i RunningState.obj
 0001:00042850       ?_Calculate_growth@?$vector@HV?$allocator@H@std@@@std@@ABEII@Z 00443850 f i RunningState.obj
 0001:000428c0       ?_Change_array@?$vector@HV?$allocator@H@std@@@std@@AAEXQAHII@Z 004438c0 f i RunningState.obj
 0001:00042990       ?_Check_grow_by_1@?$_Tree@V?$_Tmap_traits@HUMovement@Player@@U?$less@H@std@@V?$allocator@U?$pair@$$CBHUMovement@Player@@@std@@@4@$0A@@std@@@std@@IAEXXZ 00443990 f i RunningState.obj
 0001:000429d0       ?_Check_grow_by_1@?$_Tree@V?$_Tmap_traits@HW4Direction@SpriteObject@@U?$less@H@std@@V?$allocator@U?$pair@$$CBHW4Direction@SpriteObject@@@std@@@4@$0A@@std@@@std@@IAEXXZ 004439d0 f i RunningState.obj
 0001:00042a10       ?_Decref@?$_Ptr_base@VPauseState@@@std@@IAEXXZ 00443a10 f i RunningState.obj
 0001:00042a40       ?_Decref@?$_Ptr_base@VWinState@@@std@@IAEXXZ 00443a40 f i RunningState.obj
 0001:00042a70       ?_Delete_this@?$_Ref_count_obj2@VPauseState@@@std@@EAEXXZ 00443a70 f i RunningState.obj
 0001:00042ac0       ?_Delete_this@?$_Ref_count_obj2@VWinState@@@std@@EAEXXZ 00443ac0 f i RunningState.obj
 0001:00042b10       ?_Destroy@?$_Ref_count_obj2@VPauseState@@@std@@EAEXXZ 00443b10 f i RunningState.obj
 0001:00042b30       ?_Destroy@?$_Ref_count_obj2@VWinState@@@std@@EAEXXZ 00443b30 f i RunningState.obj
 0001:00042b50       ?_Destroy@?$vector@UDirectionVector@Zombie@@V?$allocator@UDirectionVector@Zombie@@@std@@@std@@AAEXPAUDirectionVector@Zombie@@0@Z 00443b50 f i RunningState.obj
 0001:00042b80       ?_Extract@?$_In_place_key_extract_map@HU?$pair@$$CBHUMovement@Player@@@std@@@std@@SAABHABU?$pair@$$CBHUMovement@Player@@@2@@Z 00443b80 f i RunningState.obj
 0001:00042b90       ?_Extract@?$_In_place_key_extract_map@HU?$pair@$$CBHW4Direction@SpriteObject@@@std@@@std@@SAABHABU?$pair@$$CBHW4Direction@SpriteObject@@@2@@Z 00443b90 f i RunningState.obj
 0001:00042ba0       ?_Get_first@?$_Compressed_pair@U?$less@H@std@@V?$_Compressed_pair@V?$allocator@U?$_Tree_node@U?$pair@$$CBHUMovement@Player@@@std@@PAX@std@@@std@@V?$_Tree_val@U?$_Tree_simple_types@U?$pair@$$CBHUMovement@Player@@@std@@@std@@@2@$00@2@$00@std@@QBEABU?$less@H@2@XZ 00443ba0 f i RunningState.obj
 0001:00042bc0       ?_Get_first@?$_Compressed_pair@U?$less@H@std@@V?$_Compressed_pair@V?$allocator@U?$_Tree_node@U?$pair@$$CBHW4Direction@SpriteObject@@@std@@PAX@std@@@std@@V?$_Tree_val@U?$_Tree_simple_types@U?$pair@$$CBHW4Direction@SpriteObject@@@std@@@std@@@2@$00@2@$00@std@@QBEABU?$less@H@2@XZ 00443bc0 f i RunningState.obj
 0001:00042be0       ?_Get_first@?$_Compressed_pair@V?$allocator@H@std@@V?$_Vector_val@U?$_Simple_types@H@std@@@2@$00@std@@QBEABV?$allocator@H@2@XZ 00443be0 f i RunningState.obj
 0001:00042c00       ?_Get_first@?$_Compressed_pair@V?$allocator@U?$_Tree_node@U?$pair@$$CBHUMovement@Player@@@std@@PAX@std@@@std@@V?$_Tree_val@U?$_Tree_simple_types@U?$pair@$$CBHUMovement@Player@@@std@@@std@@@2@$00@std@@QAEAAV?$allocator@U?$_Tree_node@U?$pair@$$CBHUMovement@Player@@@std@@PAX@std@@@2@XZ 00443c00 f i RunningState.obj
 0001:00042c20       ?_Get_first@?$_Compressed_pair@V?$allocator@U?$_Tree_node@U?$pair@$$CBHUMovement@Player@@@std@@PAX@std@@@std@@V?$_Tree_val@U?$_Tree_simple_types@U?$pair@$$CBHUMovement@Player@@@std@@@std@@@2@$00@std@@QBEABV?$allocator@U?$_Tree_node@U?$pair@$$CBHUMovement@Player@@@std@@PAX@std@@@2@XZ 00443c20 f i RunningState.obj
 0001:00042c40       ?_Get_first@?$_Compressed_pair@V?$allocator@U?$_Tree_node@U?$pair@$$CBHW4Direction@SpriteObject@@@std@@PAX@std@@@std@@V?$_Tree_val@U?$_Tree_simple_types@U?$pair@$$CBHW4Direction@SpriteObject@@@std@@@std@@@2@$00@std@@QAEAAV?$allocator@U?$_Tree_node@U?$pair@$$CBHW4Direction@SpriteObject@@@std@@PAX@std@@@2@XZ 00443c40 f i RunningState.obj
 0001:00042c60       ?_Get_first@?$_Compressed_pair@V?$allocator@U?$_Tree_node@U?$pair@$$CBHW4Direction@SpriteObject@@@std@@PAX@std@@@std@@V?$_Tree_val@U?$_Tree_simple_types@U?$pair@$$CBHW4Direction@SpriteObject@@@std@@@std@@@2@$00@std@@QBEABV?$allocator@U?$_Tree_node@U?$pair@$$CBHW4Direction@SpriteObject@@@std@@PAX@std@@@2@XZ 00443c60 f i RunningState.obj
 0001:00042c80       ?_Get_first@?$_Compressed_pair@V?$allocator@UDirectionVector@Zombie@@@std@@V?$_Vector_val@U?$_Simple_types@UDirectionVector@Zombie@@@std@@@2@$00@std@@QAEAAV?$allocator@UDirectionVector@Zombie@@@2@XZ 00443c80 f i RunningState.obj
 0001:00042ca0       ?_Get_first@?$_Compressed_pair@V?$allocator@UDirectionVector@Zombie@@@std@@V?$_Vector_val@U?$_Simple_types@UDirectionVector@Zombie@@@std@@@2@$00@std@@QBEABV?$allocator@UDirectionVector@Zombie@@@2@XZ 00443ca0 f i RunningState.obj
 0001:00042cc0       ?_Get_scary@?$_Tree@V?$_Tmap_traits@HUMovement@Player@@U?$less@H@std@@V?$allocator@U?$pair@$$CBHUMovement@Player@@@std@@@4@$0A@@std@@@std@@IAEPAV?$_Tree_val@U?$_Tree_simple_types@U?$pair@$$CBHUMovement@Player@@@std@@@std@@@2@XZ 00443cc0 f i RunningState.obj
 0001:00042ce0       ?_Get_scary@?$_Tree@V?$_Tmap_traits@HW4Direction@SpriteObject@@U?$less@H@std@@V?$allocator@U?$pair@$$CBHW4Direction@SpriteObject@@@std@@@4@$0A@@std@@@std@@IAEPAV?$_Tree_val@U?$_Tree_simple_types@U?$pair@$$CBHW4Direction@SpriteObject@@@std@@@std@@@2@XZ 00443ce0 f i RunningState.obj
 0001:00042d00       ?_Get_scary@?$_Tree@V?$_Tmap_traits@HW4Direction@SpriteObject@@U?$less@H@std@@V?$allocator@U?$pair@$$CBHW4Direction@SpriteObject@@@std@@@4@$0A@@std@@@std@@IBEPBV?$_Tree_val@U?$_Tree_simple_types@U?$pair@$$CBHW4Direction@SpriteObject@@@std@@@std@@@2@XZ 00443d00 f i RunningState.obj
 0001:00042d20       ?_Getal@?$_Tree@V?$_Tmap_traits@HUMovement@Player@@U?$less@H@std@@V?$allocator@U?$pair@$$CBHUMovement@Player@@@std@@@4@$0A@@std@@@std@@IAEAAV?$allocator@U?$_Tree_node@U?$pair@$$CBHUMovement@Player@@@std@@PAX@std@@@2@XZ 00443d20 f i RunningState.obj
 0001:00042d40       ?_Getal@?$_Tree@V?$_Tmap_traits@HUMovement@Player@@U?$less@H@std@@V?$allocator@U?$pair@$$CBHUMovement@Player@@@std@@@4@$0A@@std@@@std@@IBEABV?$allocator@U?$_Tree_node@U?$pair@$$CBHUMovement@Player@@@std@@PAX@std@@@2@XZ 00443d40 f i RunningState.obj
 0001:00042d60       ?_Getal@?$_Tree@V?$_Tmap_traits@HW4Direction@SpriteObject@@U?$less@H@std@@V?$allocator@U?$pair@$$CBHW4Direction@SpriteObject@@@std@@@4@$0A@@std@@@std@@IAEAAV?$allocator@U?$_Tree_node@U?$pair@$$CBHW4Direction@SpriteObject@@@std@@PAX@std@@@2@XZ 00443d60 f i RunningState.obj
 0001:00042d80       ?_Getal@?$_Tree@V?$_Tmap_traits@HW4Direction@SpriteObject@@U?$less@H@std@@V?$allocator@U?$pair@$$CBHW4Direction@SpriteObject@@@std@@@4@$0A@@std@@@std@@IBEABV?$allocator@U?$_Tree_node@U?$pair@$$CBHW4Direction@SpriteObject@@@std@@PAX@std@@@2@XZ 00443d80 f i RunningState.obj
 0001:00042da0       ?_Getal@?$vector@HV?$allocator@H@std@@@std@@ABEABV?$allocator@H@2@XZ 00443da0 f i RunningState.obj
 0001:00042dc0       ?_Getal@?$vector@UDirectionVector@Zombie@@V?$allocator@UDirectionVector@Zombie@@@std@@@std@@AAEAAV?$allocator@UDirectionVector@Zombie@@@2@XZ 00443dc0 f i RunningState.obj
 0001:00042de0       ?_Getal@?$vector@UDirectionVector@Zombie@@V?$allocator@UDirectionVector@Zombie@@@std@@@std@@ABEABV?$allocator@UDirectionVector@Zombie@@@2@XZ 00443de0 f i RunningState.obj
 0001:00042e00       ?_Getcomp@?$_Tree@V?$_Tmap_traits@HUMovement@Player@@U?$less@H@std@@V?$allocator@U?$pair@$$CBHUMovement@Player@@@std@@@4@$0A@@std@@@std@@IBEABU?$less@H@2@XZ 00443e00 f i RunningState.obj
 0001:00042e20       ?_Getcomp@?$_Tree@V?$_Tmap_traits@HW4Direction@SpriteObject@@U?$less@H@std@@V?$allocator@U?$pair@$$CBHW4Direction@SpriteObject@@@std@@@4@$0A@@std@@@std@@IBEABU?$less@H@2@XZ 00443e20 f i RunningState.obj
 0001:00042e40       ?_Insert_node@?$_Tree_val@U?$_Tree_simple_types@U?$pair@$$CBHUMovement@Player@@@std@@@std@@@std@@QAEPAU?$_Tree_node@U?$pair@$$CBHUMovement@Player@@@std@@PAX@2@U?$_Tree_id@PAU?$_Tree_node@U?$pair@$$CBHUMovement@Player@@@std@@PAX@std@@@2@QAU32@@Z 00443e40 f i RunningState.obj
 0001:000430d0       ?_Insert_node@?$_Tree_val@U?$_Tree_simple_types@U?$pair@$$CBHW4Direction@SpriteObject@@@std@@@std@@@std@@QAEPAU?$_Tree_node@U?$pair@$$CBHW4Direction@SpriteObject@@@std@@PAX@2@U?$_Tree_id@PAU?$_Tree_node@U?$pair@$$CBHW4Direction@SpriteObject@@@std@@PAX@std@@@2@QAU32@@Z 004440d0 f i RunningState.obj
 0001:00043360       ?_Lrotate@?$_Tree_val@U?$_Tree_simple_types@U?$pair@$$CBHUMovement@Player@@@std@@@std@@@std@@QAEXPAU?$_Tree_node@U?$pair@$$CBHUMovement@Player@@@std@@PAX@2@@Z 00444360 f i RunningState.obj
 0001:00043420       ?_Lrotate@?$_Tree_val@U?$_Tree_simple_types@U?$pair@$$CBHW4Direction@SpriteObject@@@std@@@std@@@std@@QAEXPAU?$_Tree_node@U?$pair@$$CBHW4Direction@SpriteObject@@@std@@PAX@2@@Z 00444420 f i RunningState.obj
 0001:000434e0       ?_Max@?$_Tree_val@U?$_Tree_simple_types@U?$pair@$$CBHUMovement@Player@@@std@@@std@@@std@@SAPAU?$_Tree_node@U?$pair@$$CBHUMovement@Player@@@std@@PAX@2@PAU32@@Z 004444e0 f i RunningState.obj
 0001:00043510       ?_Max@?$_Tree_val@U?$_Tree_simple_types@U?$pair@$$CBHW4Direction@SpriteObject@@@std@@@std@@@std@@SAPAU?$_Tree_node@U?$pair@$$CBHW4Direction@SpriteObject@@@std@@PAX@2@PAU32@@Z 00444510 f i RunningState.obj
 0001:00043540       ?_Min@?$_Tree_val@U?$_Tree_simple_types@U?$pair@$$CBHW4Direction@SpriteObject@@@std@@@std@@@std@@SAPAU?$_Tree_node@U?$pair@$$CBHW4Direction@SpriteObject@@@std@@PAX@2@PAU32@@Z 00444540 f i RunningState.obj
 0001:00043570       ?_Orphan_range@?$vector@HV?$allocator@H@std@@@std@@ABEXPAH0@Z 00444570 f i RunningState.obj
 0001:000435a0       ?_Orphan_range_locked@?$vector@HV?$allocator@H@std@@@std@@ABEXPAH0@Z 004445a0 f i RunningState.obj
 0001:00043630       ?_Orphan_range_unlocked@?$vector@HV?$allocator@H@std@@@std@@ABEXPAH0@Z 00444630 f i RunningState.obj
 0001:000436c0       ?_Release@?$_Alloc_construct_ptr@V?$allocator@U?$_Tree_node@U?$pair@$$CBHUMovement@Player@@@std@@PAX@std@@@std@@@std@@QAEPAU?$_Tree_node@U?$pair@$$CBHUMovement@Player@@@std@@PAX@2@XZ 004446c0 f i RunningState.obj
 0001:000436f0       ?_Release@?$_Alloc_construct_ptr@V?$allocator@U?$_Tree_node@U?$pair@$$CBHW4Direction@SpriteObject@@@std@@PAX@std@@@std@@@std@@QAEPAU?$_Tree_node@U?$pair@$$CBHW4Direction@SpriteObject@@@std@@PAX@2@XZ 004446f0 f i RunningState.obj
 0001:00043720       ?_Release@?$_Uninitialized_backout_al@V?$allocator@H@std@@@std@@QAEPAHXZ 00444720 f i RunningState.obj
 0001:00043750       ?_Release@?$_Uninitialized_backout_al@V?$allocator@UDirectionVector@Zombie@@@std@@@std@@QAEPAUDirectionVector@Zombie@@XZ 00444750 f i RunningState.obj
 0001:00043780       ?_Rrotate@?$_Tree_val@U?$_Tree_simple_types@U?$pair@$$CBHUMovement@Player@@@std@@@std@@@std@@QAEXPAU?$_Tree_node@U?$pair@$$CBHUMovement@Player@@@std@@PAX@2@@Z 00444780 f i RunningState.obj
 0001:00043850       ?_Rrotate@?$_Tree_val@U?$_Tree_simple_types@U?$pair@$$CBHW4Direction@SpriteObject@@@std@@@std@@@std@@QAEXPAU?$_Tree_node@U?$pair@$$CBHW4Direction@SpriteObject@@@std@@PAX@2@@Z 00444850 f i RunningState.obj
 0001:00043920       ?_Throw_bad_weak_ptr@std@@YAXXZ 00444920 f i RunningState.obj
 0001:00043950       ?_Tidy@?$vector@UDirectionVector@Zombie@@V?$allocator@UDirectionVector@Zombie@@@std@@@std@@AAEXXZ 00444950 f i RunningState.obj
 0001:00043a50       ?_Umove@?$vector@HV?$allocator@H@std@@@std@@AAEPAHPAH00@Z 00444a50 f i RunningState.obj
 0001:00043a90       ?_Umove_if_noexcept1@?$vector@HV?$allocator@H@std@@@std@@AAEXPAH00U?$integral_constant@_N$00@2@@Z 00444a90 f i RunningState.obj
 0001:00043ad0       ?_Umove_if_noexcept@?$vector@HV?$allocator@H@std@@@std@@AAEXPAH00@Z 00444ad0 f i RunningState.obj
 0001:00043b10       ?_Xlength@?$vector@HV?$allocator@H@std@@@std@@CAXXZ 00444b10 f i RunningState.obj
 0001:00043b30       ?_Xlength@?$vector@UDirectionVector@Zombie@@V?$allocator@UDirectionVector@Zombie@@@std@@@std@@CAXXZ 00444b30 f i RunningState.obj
 0001:00043b50       ?addPlayerIndex@ObjectIndexes@@SAXH@Z 00444b50 f i RunningState.obj
 0001:00043b70       ?addZombieIndex@ObjectIndexes@@SAXH@Z 00444b70 f i RunningState.obj
 0001:00043b90       ?allocate@?$allocator@H@std@@QAEPAHI@Z 00444b90 f i RunningState.obj
 0001:00043bc0       ?allocate@?$allocator@U?$_Tree_node@U?$pair@$$CBHUMovement@Player@@@std@@PAX@std@@@std@@QAEPAU?$_Tree_node@U?$pair@$$CBHUMovement@Player@@@std@@PAX@2@I@Z 00444bc0 f i RunningState.obj
 0001:00043bf0       ?allocate@?$allocator@U?$_Tree_node@U?$pair@$$CBHW4Direction@SpriteObject@@@std@@PAX@std@@@std@@QAEPAU?$_Tree_node@U?$pair@$$CBHW4Direction@SpriteObject@@@std@@PAX@2@I@Z 00444bf0 f i RunningState.obj
 0001:00043c20       ?allocate@?$allocator@UDirectionVector@Zombie@@@std@@QAEPAUDirectionVector@Zombie@@I@Z 00444c20 f i RunningState.obj
 0001:00043c50       ?begin@?$initializer_list@U?$pair@$$CBHUMovement@Player@@@std@@@std@@QBEPBU?$pair@$$CBHUMovement@Player@@@2@XZ 00444c50 f i RunningState.obj
 0001:00043c70       ?begin@?$initializer_list@U?$pair@$$CBHW4Direction@SpriteObject@@@std@@@std@@QBEPBU?$pair@$$CBHW4Direction@SpriteObject@@@2@XZ 00444c70 f i RunningState.obj
 0001:00043c90       ?begin@?$initializer_list@UDirectionVector@Zombie@@@std@@QBEPBUDirectionVector@Zombie@@XZ 00444c90 f i RunningState.obj
 0001:00043cb0       ?capacity@?$vector@HV?$allocator@H@std@@@std@@QBEIXZ 00444cb0 f i RunningState.obj
 0001:00043ce0       ?deallocate@?$_Default_allocator_traits@V?$allocator@U?$_Tree_node@U?$pair@$$CBHUMovement@Player@@@std@@PAX@std@@@std@@@std@@SAXAAV?$allocator@U?$_Tree_node@U?$pair@$$CBHUMovement@Player@@@std@@PAX@std@@@2@QAU?$_Tree_node@U?$pair@$$CBHUMovement@Player@@@std@@PAX@2@I@Z 00444ce0 f i RunningState.obj
 0001:00043d00       ?deallocate@?$_Default_allocator_traits@V?$allocator@U?$_Tree_node@U?$pair@$$CBHW4Direction@SpriteObject@@@std@@PAX@std@@@std@@@std@@SAXAAV?$allocator@U?$_Tree_node@U?$pair@$$CBHW4Direction@SpriteObject@@@std@@PAX@std@@@2@QAU?$_Tree_node@U?$pair@$$CBHW4Direction@SpriteObject@@@std@@PAX@2@I@Z 00444d00 f i RunningState.obj
 0001:00043d20       ?deallocate@?$allocator@U?$_Tree_node@U?$pair@$$CBHUMovement@Player@@@std@@PAX@std@@@std@@QAEXQAU?$_Tree_node@U?$pair@$$CBHUMovement@Player@@@std@@PAX@2@I@Z 00444d20 f i RunningState.obj
 0001:00043d50       ?deallocate@?$allocator@U?$_Tree_node@U?$pair@$$CBHW4Direction@SpriteObject@@@std@@PAX@std@@@std@@QAEXQAU?$_Tree_node@U?$pair@$$CBHW4Direction@SpriteObject@@@std@@PAX@2@I@Z 00444d50 f i RunningState.obj
 0001:00043d80       ?deallocate@?$allocator@UDirectionVector@Zombie@@@std@@QAEXQAUDirectionVector@Zombie@@I@Z 00444d80 f i RunningState.obj
 0001:00043db0       ?drawBackgroundRectangle@BaseEngine@@QAEXHHHHI@Z 00444db0 f i RunningState.obj
 0001:00043df0       ?end@?$initializer_list@U?$pair@$$CBHUMovement@Player@@@std@@@std@@QBEPBU?$pair@$$CBHUMovement@Player@@@2@XZ 00444df0 f i RunningState.obj
 0001:00043e10       ?end@?$initializer_list@U?$pair@$$CBHW4Direction@SpriteObject@@@std@@@std@@QBEPBU?$pair@$$CBHW4Direction@SpriteObject@@@2@XZ 00444e10 f i RunningState.obj
 0001:00043e30       ?end@?$initializer_list@UDirectionVector@Zombie@@@std@@QBEPBUDirectionVector@Zombie@@XZ 00444e30 f i RunningState.obj
 0001:00043e50       ?get@?$unique_ptr@VScyjz14TileManager@@U?$default_delete@VScyjz14TileManager@@@std@@@std@@QBEPAVScyjz14TileManager@@XZ 00444e50 f i RunningState.obj
 0001:00043e70       ?getFrameCount@AgentBaseObject@@MAEHXZ 00444e70 f i RunningState.obj
 0001:00043e90       ?getFrameCount@Door@@MAEHXZ 00444e90 f i RunningState.obj
 0001:00043eb0       ?getFrameCount@Weapon@@MAEHXZ 00444eb0 f i RunningState.obj
 0001:00043ed0       ?insert@?$_Tree@V?$_Tmap_traits@HUMovement@Player@@U?$less@H@std@@V?$allocator@U?$pair@$$CBHUMovement@Player@@@std@@@4@$0A@@std@@@std@@QAEXV?$initializer_list@U?$pair@$$CBHUMovement@Player@@@std@@@2@@Z 00444ed0 f i RunningState.obj
 0001:00043f00       ?insert@?$_Tree@V?$_Tmap_traits@HW4Direction@SpriteObject@@U?$less@H@std@@V?$allocator@U?$pair@$$CBHW4Direction@SpriteObject@@@std@@@4@$0A@@std@@@std@@QAEXV?$initializer_list@U?$pair@$$CBHW4Direction@SpriteObject@@@std@@@2@@Z 00444f00 f i RunningState.obj
 0001:00043f30       ?loadImage@ImageManager@@SA?AVSimpleImage@@V?$basic_string@DU?$char_traits@D@std@@V?$allocator@D@2@@std@@_N@Z 00444f30 f i RunningState.obj
 0001:00043ff0       ?max_size@?$_Default_allocator_traits@V?$allocator@H@std@@@std@@SAIABV?$allocator@H@2@@Z 00444ff0 f i RunningState.obj
 0001:00044000       ?max_size@?$_Default_allocator_traits@V?$allocator@U?$_Tree_node@U?$pair@$$CBHUMovement@Player@@@std@@PAX@std@@@std@@@std@@SAIABV?$allocator@U?$_Tree_node@U?$pair@$$CBHUMovement@Player@@@std@@PAX@std@@@2@@Z 00445000 f i RunningState.obj
 0001:00044010       ?max_size@?$_Default_allocator_traits@V?$allocator@U?$_Tree_node@U?$pair@$$CBHW4Direction@SpriteObject@@@std@@PAX@std@@@std@@@std@@SAIABV?$allocator@U?$_Tree_node@U?$pair@$$CBHW4Direction@SpriteObject@@@std@@PAX@std@@@2@@Z 00445010 f i RunningState.obj
 0001:00044020       ?max_size@?$_Default_allocator_traits@V?$allocator@UDirectionVector@Zombie@@@std@@@std@@SAIABV?$allocator@UDirectionVector@Zombie@@@2@@Z 00445020 f i RunningState.obj
 0001:00044030       ?max_size@?$_Tree@V?$_Tmap_traits@HUMovement@Player@@U?$less@H@std@@V?$allocator@U?$pair@$$CBHUMovement@Player@@@std@@@4@$0A@@std@@@std@@QBEIXZ 00445030 f i RunningState.obj
 0001:00044080       ?max_size@?$_Tree@V?$_Tmap_traits@HW4Direction@SpriteObject@@U?$less@H@std@@V?$allocator@U?$pair@$$CBHW4Direction@SpriteObject@@@std@@@4@$0A@@std@@@std@@QBEIXZ 00445080 f i RunningState.obj
 0001:000440d0       ?max_size@?$vector@HV?$allocator@H@std@@@std@@QBEIXZ 004450d0 f i RunningState.obj
 0001:00044120       ?max_size@?$vector@UDirectionVector@Zombie@@V?$allocator@UDirectionVector@Zombie@@@std@@@std@@QBEIXZ 00445120 f i RunningState.obj
 0001:00044170       ?pause@BaseEngine@@QAEXXZ  00445170 f i RunningState.obj
 0001:000441a0       ?push_back@?$vector@HV?$allocator@H@std@@@std@@QAEXABH@Z 004451a0 f i RunningState.obj
 0001:000441c0       ?setFrameRate@SpriteObject@@QAEXH@Z 004451c0 f i RunningState.obj
 0001:000441f0       ?setRevealingTime@AgentBaseObject@@QAEXH@Z 004451f0 f i RunningState.obj
 0001:00044210       ?setSpeed@AgentBaseObject@@QAEXH@Z 00445210 f i RunningState.obj
 0001:00044230       ?shared_from_this@?$enable_shared_from_this@VRunningState@@@std@@QAE?AV?$shared_ptr@VRunningState@@@2@XZ 00445230 f i RunningState.obj
 0001:00044270       ?updateAnimationFrame@SpriteObject@@MAEXH@Z 00445270 f i RunningState.obj
 0001:000442e0       ?what@bad_weak_ptr@std@@UBEPBDXZ 004452e0 f i RunningState.obj
 0001:00044300       ?virtInitialiseObjects@Scyjz14Engine@@UAEHXZ 00445300 f   Scyjz14Engine.obj
 0001:00044330       ?virtInitialise@Scyjz14Engine@@UAEHXZ 00445330 f   Scyjz14Engine.obj
 0001:00044370       ?virtSetupBackgroundBuffer@Scyjz14Engine@@UAEXXZ 00445370 f   Scyjz14Engine.obj
 0001:000443a0       ?virtDrawStringsUnderneath@Scyjz14Engine@@UAEXXZ 004453a0 f   Scyjz14Engine.obj
 0001:000443d0       ?virtDrawStringsOnTop@Scyjz14Engine@@UAEXXZ 004453d0 f   Scyjz14Engine.obj
 0001:00044400       ?virtMouseDown@Scyjz14Engine@@UAEXHHH@Z 00445400 f   Scyjz14Engine.obj
 0001:00044440       ?virtMouseUp@Scyjz14Engine@@UAEXHHH@Z 00445440 f   Scyjz14Engine.obj
 0001:00044480       ?virtMouseWheel@Scyjz14Engine@@UAEXHHHH@Z 00445480 f   Scyjz14Engine.obj
 0001:000444c0       ?virtKeyDown@Scyjz14Engine@@UAEXH@Z 004454c0 f   Scyjz14Engine.obj
 0001:00044500       ?virtMainLoopDoBeforeUpdate@Scyjz14Engine@@UAEXXZ 00445500 f   Scyjz14Engine.obj
 0001:00044530       ?virtMainLoopPreUpdate@Scyjz14Engine@@UAEXXZ 00445530 f   Scyjz14Engine.obj
 0001:00044560       ?copyAllBackgroundBuffer@Scyjz14Engine@@UAEXXZ 00445560 f   Scyjz14Engine.obj
 0001:00044590       ?setState@Scyjz14Engine@@QAEXV?$shared_ptr@VState@@@std@@@Z 00445590 f   Scyjz14Engine.obj
 0001:00044630       ?restoreState@Scyjz14Engine@@QAEXV?$shared_ptr@VState@@@std@@@Z 00445630 f   Scyjz14Engine.obj
 0001:00044730       ??4?$shared_ptr@VState@@@std@@QAEAAV01@ABV01@@Z 00445730 f i Scyjz14Engine.obj
 0001:00044770       ??0Scyjz14FilterPoints@@QAE@HHPAVFilterPoints@@@Z 00445770 f   Scyjz14FilterPoints.obj
 0001:000447b0       ?resetScalingSize@Scyjz14FilterPoints@@QAEXXZ 004457b0 f   Scyjz14FilterPoints.obj
 0001:000447d0       ?getFilterPointsTranslation@Scyjz14FilterPoints@@QAEPAVFilterPointsTranslation@@XZ 004457d0 f   Scyjz14FilterPoints.obj
 0001:00044800       ??0FilterPointsScaling@@QAE@HHPAVFilterPoints@@@Z 00445800 f i Scyjz14FilterPoints.obj
 0001:00044880       ??0FilterPointsTranslation@@QAE@HHPAVFilterPoints@@@Z 00445880 f i Scyjz14FilterPoints.obj
 0001:000448d0       ?filter@FilterPointsScaling@@UAE_NPAVDrawingSurface@@AAH1AAI_N@Z 004458d0 f i Scyjz14FilterPoints.obj
 0001:00044910       ?filter@FilterPointsTranslation@@UAE_NPAVDrawingSurface@@AAH1AAI_N@Z 00445910 f i Scyjz14FilterPoints.obj
 0001:000449b0       ?filterConvertRealToVirtualXPosition@FilterPointsScaling@@UAEHH@Z 004459b0 f i Scyjz14FilterPoints.obj
 0001:00044a20       ?filterConvertRealToVirtualXPosition@FilterPointsTranslation@@UAEHH@Z 00445a20 f i Scyjz14FilterPoints.obj
 0001:00044a70       ?filterConvertRealToVirtualYPosition@FilterPointsScaling@@UAEHH@Z 00445a70 f i Scyjz14FilterPoints.obj
 0001:00044ae0       ?filterConvertRealToVirtualYPosition@FilterPointsTranslation@@UAEHH@Z 00445ae0 f i Scyjz14FilterPoints.obj
 0001:00044b30       ?filterConvertVirtualToRealXPosition@FilterPointsScaling@@UAEHH@Z 00445b30 f i Scyjz14FilterPoints.obj
 0001:00044be0       ?filterConvertVirtualToRealXPosition@FilterPointsTranslation@@UAEHH@Z 00445be0 f i Scyjz14FilterPoints.obj
 0001:00044c30       ?filterConvertVirtualToRealYPosition@FilterPointsScaling@@UAEHH@Z 00445c30 f i Scyjz14FilterPoints.obj
 0001:00044ce0       ?filterConvertVirtualToRealYPosition@FilterPointsTranslation@@UAEHH@Z 00445ce0 f i Scyjz14FilterPoints.obj
 0001:00044d30       ?handleXthenY@FilterPointsScaling@@AAEXPAVDrawingSurface@@HHAAI@Z 00445d30 f i Scyjz14FilterPoints.obj
 0001:00044de0       ?handleY@FilterPointsScaling@@AAEXPAVDrawingSurface@@HHAAI@Z 00445de0 f i Scyjz14FilterPoints.obj
 0001:00044f20       ?setStretch@FilterPointsScaling@@QAEXHH@Z 00445f20 f i Scyjz14FilterPoints.obj
 0001:00045010       ?changePixelColour@ImagePixelMapping@@UAE_NHHAAHPAVDrawingSurface@@@Z 00446010 f i Scyjz14Image.obj
 0001:00045030       ?mapCoordinates@CroppedImagePixelMapping@@UAE_NAAN0ABVSimpleImage@@@Z 00446030 f i Scyjz14Image.obj
 0001:000450d0       ??0Scyjz14Image@@QAE@V?$shared_ptr@VScyjz14RawImageData@@@std@@@Z 004460d0 f   Scyjz14Image.obj
 0001:00045150       ?renderImageWithAlpha@Scyjz14Image@@QBEXPAVDrawingSurface@@HHHHHH@Z 00446150 f   Scyjz14Image.obj
 0001:000452a0       ?renderImageWithAlphaAndOverlay@Scyjz14Image@@QBEXPAVDrawingSurface@@HHHHHHI@Z 004462a0 f   Scyjz14Image.obj
 0001:00045410       ?renderImageWithAlphaAndApplyingMapping@Scyjz14Image@@QBEXPAVBaseEngine@@PAVDrawingSurface@@HHHHHHPAVImagePixelMapping@@@Z 00446410 f   Scyjz14Image.obj
 0001:000455c0       ?blendPixels@Scyjz14Image@@QBEIIII@Z 004465c0 f   Scyjz14Image.obj
 0001:00045640       ?isColorSimilar@@YA_NHHH@Z 00446640 f   Scyjz14Image.obj
 0001:00045880       ?getPixel@DrawingSurface@@QAEIHH@Z 00446880 f i Scyjz14Image.obj
 0001:00045900       ?rawGetPixel@DrawingSurface@@QBEIHH@Z 00446900 f i Scyjz14Image.obj
 0001:00045970       ?getRawPixelColour@Scyjz14RawImageData@@QBEHHH@Z 00446970 f   Scyjz14RawImageData.obj
 0001:000459c0       ?loadImage@Scyjz14RawImageData@@QAE_NV?$basic_string@DU?$char_traits@D@std@@V?$allocator@D@2@@std@@HHHHH_N@Z 004469c0 f   Scyjz14RawImageData.obj
 0001:00045ce0       ?virtDrawTileAt@Scyjz14TileManager@@UBEXPAVBaseEngine@@PAVDrawingSurface@@HHHH@Z 00446ce0 f   Scyjz14TileManager.obj
 0001:00045e20       ?setUpTileManager@Scyjz14TileManager@@QAEXPAVBaseEngine@@PBD@Z 00446e20 f   Scyjz14TileManager.obj
 0001:00045ee0       ?isPassable@Scyjz14TileManager@@QBE_NH@Z 00446ee0 f   Scyjz14TileManager.obj
 0001:00045f40       ?isPassable@Scyjz14TileManager@@QBE_NHH@Z 00446f40 f   Scyjz14TileManager.obj
 0001:00045f90       ?isPassableByObjectCentre@Scyjz14TileManager@@QBE_NHHH@Z 00446f90 f   Scyjz14TileManager.obj
 0001:00045ff0       ?loadMapFromFile@Scyjz14TileManager@@QAE_NPBD@Z 00446ff0 f   Scyjz14TileManager.obj
 0001:00046150       ?drawAllTiles@Scyjz14TileManager@@QBEXPAVBaseEngine@@PAVDrawingSurface@@HH@Z 00447150 f   Scyjz14TileManager.obj
 0001:00046200       ?getRandomPassablePoint@Scyjz14TileManager@@QAE?AU?$pair@HH@std@@XZ 00447200 f   Scyjz14TileManager.obj
 0001:00046460       ??$?0AAHAAH$0A@@?$pair@HH@std@@QAE@AAH0@Z 00447460 f i Scyjz14TileManager.obj
 0001:000464b0       ??$?5DU?$char_traits@D@std@@@std@@YAAAV?$basic_istream@DU?$char_traits@D@std@@@0@AAV10@AAD@Z 004474b0 f i Scyjz14TileManager.obj
 0001:00046630       ??$forward@AAH@std@@YAAAHAAH@Z 00447630 f i Scyjz14TileManager.obj
 0001:00046640       ??$make_pair@AAHAAH@std@@YA?AU?$pair@HH@0@AAH0@Z 00447640 f i Scyjz14TileManager.obj
 0001:00046680       ?getMapXForScreenX@TileManager@@QBEHH@Z 00447680 f i Scyjz14TileManager.obj
 0001:000466b0       ?getMapYForScreenY@TileManager@@QBEHH@Z 004476b0 f i Scyjz14TileManager.obj
 0001:000466e0       ?getTileHeight@TileManager@@QBEHXZ 004476e0 f i Scyjz14TileManager.obj
 0001:00046700       ?getTileWidth@TileManager@@QBEHXZ 00447700 f i Scyjz14TileManager.obj
 0001:00046720       ?is_open@?$basic_filebuf@DU?$char_traits@D@std@@@std@@QBE_NXZ 00447720 f i Scyjz14TileManager.obj
 0001:00046750       ?is_open@?$basic_ifstream@DU?$char_traits@D@std@@@std@@QBE_NXZ 00447750 f i Scyjz14TileManager.obj
 0001:00046770       ?setMapSize@TileManager@@QAEXHH@Z 00447770 f i Scyjz14TileManager.obj
 0001:00046820       ?setMapValue@TileManager@@QAEHHHH@Z 00447820 f i Scyjz14TileManager.obj
 0001:00046860       ??0SimpleImage@@QAE@XZ     00447860 f   SimpleImage.obj
 0001:00046890       ??0SimpleImage@@QAE@V?$shared_ptr@VRawImageData@@@std@@@Z 00447890 f   SimpleImage.obj
 0001:000468d0       ?exists@SimpleImage@@QBE_NXZ 004478d0 f   SimpleImage.obj
 0001:000468f0       ?renderImage@SimpleImage@@QBEXPAVDrawingSurface@@HHHHHH@Z 004478f0 f   SimpleImage.obj
 0001:00046a00       ?renderImageWithMask@SimpleImage@@QBEXPAVDrawingSurface@@HHHHHHH@Z 00447a00 f   SimpleImage.obj
 0001:00046b40       ?renderImageWithMaskAndTransparency@SimpleImage@@QBEXPAVDrawingSurface@@HHHHHHHH@Z 00447b40 f   SimpleImage.obj
 0001:00046d10       ?renderImageBlit@SimpleImage@@QAEXPAVBaseEngine@@PAVDrawingSurface@@HHHHHHHH@Z 00447d10 f   SimpleImage.obj
 0001:00046fc0       ?adjustXYWidthHeight@SimpleImage@@SA_NPAVDrawingSurface@@AAH11111@Z 00447fc0 f   SimpleImage.obj
 0001:000471c0       ?renderImageApplyingMapping@SimpleImage@@QBEXPAVBaseEngine@@PAVDrawingSurface@@HHHHPAVImagePixelMapping@@@Z 004481c0 f   SimpleImage.obj
 0001:000477d0       ??BDrawingSurface@@QAEPAUSDL_Surface@@XZ 004487d0 f i SimpleImage.obj
 0001:000477f0       ?getSurface@RawImageData@@QAEPAUSDL_Surface@@XZ 004487f0 f i SimpleImage.obj
 0001:00047810       ?virtSetupBackgroundBuffer@SimpleDemo@@UAEXXZ 00448810 f   SimpleDemo.obj
 0001:00047950       ?virtInitialiseObjects@SimpleDemo@@UAEHXZ 00448950 f   SimpleDemo.obj
 0001:00047ad0       ?virtDrawStringsUnderneath@SimpleDemo@@UAEXXZ 00448ad0 f   SimpleDemo.obj
 0001:00047b50       ?virtDrawStringsOnTop@SimpleDemo@@UAEXXZ 00448b50 f   SimpleDemo.obj
 0001:00047c10       ?virtMouseDown@SimpleDemo@@UAEXHHH@Z 00448c10 f   SimpleDemo.obj
 0001:00047c30       ?virtKeyDown@SimpleDemo@@UAEXH@Z 00448c30 f   SimpleDemo.obj
 0001:00047da0       ??0BouncingObject@@QAE@PAVBaseEngine@@HHNNNN@Z 00448da0 f i SimpleDemo.obj
 0001:00047e70       ??1BouncingObject@@UAE@XZ  00448e70 f i SimpleDemo.obj
 0001:00047e90       ??_EBouncingObject@@UAEPAXI@Z 00448e90 f i SimpleDemo.obj
 0001:00047e90       ??_GBouncingObject@@UAEPAXI@Z 00448e90 f i SimpleDemo.obj
 0001:00047ed0       ?drawForegroundRectangle@BaseEngine@@QAEXHHHHI@Z 00448ed0 f i SimpleDemo.obj
 0001:00047f10       ?virtDoUpdate@BouncingObject@@UAEXH@Z 00448f10 f i SimpleDemo.obj
 0001:00048310       ?virtDraw@BouncingObject@@UAEXXZ 00449310 f i SimpleDemo.obj
 0001:000483b0       ?virtDraw@SpriteObject@@UAEXXZ 004493b0 f   SpriteObject.obj
 0001:00048440       ?virtDraw@AgentBaseObject@@UAEXXZ 00449440 f   SpriteObject.obj
 0001:000485a0       ?fixPosition@AgentBaseObject@@UAEXXZ 004495a0 f   SpriteObject.obj
 0001:000486b0       ?getDrawingRegionBottom@DisplayableObject@@QBEHXZ 004496b0 f i SpriteObject.obj
 0001:000486e0       ??0StarfieldDemo@@QAE@XZ   004496e0 f   StarfieldDemo.obj
 0001:00048720       ??1StarfieldDemo@@UAE@XZ   00449720 f   StarfieldDemo.obj
 0001:00048750       ?virtSetupBackgroundBuffer@StarfieldDemo@@UAEXXZ 00449750 f   StarfieldDemo.obj
 0001:00048890       ?virtMainLoopDoBeforeUpdate@StarfieldDemo@@UAEXXZ 00449890 f   StarfieldDemo.obj
 0001:000488d0       ?copyAllBackgroundBuffer@StarfieldDemo@@UAEXXZ 004498d0 f   StarfieldDemo.obj
 0001:00048a10       ??_EStarfieldDemo@@UAEPAXI@Z 00449a10 f i StarfieldDemo.obj
 0001:00048a10       ??_GStarfieldDemo@@UAEPAXI@Z 00449a10 f i StarfieldDemo.obj
 0001:00048a50       ??1StartUpState@@UAE@XZ    00449a50 f   StartUpState.obj
 0001:00048ac0       ?initialiseStateObject@StartUpState@@UAEXXZ 00449ac0 f   StartUpState.obj
 0001:00048da0       ?virtSetupBackgroundBuffer@StartUpState@@UAEXXZ 00449da0 f   StartUpState.obj
 0001:00048f30       ?virtDrawStringsUnderneath@StartUpState@@UAEXXZ 00449f30 f   StartUpState.obj
 0001:00048f40       ?virtDrawStringsOnTop@StartUpState@@UAEXXZ 00449f40 f   StartUpState.obj
 0001:00048f50       ?virtMouseDown@StartUpState@@UAEXHHH@Z 00449f50 f   StartUpState.obj
 0001:00048f60       ?virtMouseUp@StartUpState@@UAEXHHH@Z 00449f60 f   StartUpState.obj
 0001:000493e0       ??$?0$$V@?$_Compressed_pair@V?$allocator@UScoreEntry@@@std@@V?$_Vector_val@U?$_Simple_types@UScoreEntry@@@std@@@2@$00@std@@QAE@U_Zero_then_variadic_args_t@1@@Z 0044a3e0 f i StartUpState.obj
 0001:00049410       ??$?0AAPAVScyjz14Engine@@@?$_Ref_count_obj2@VInstructionState@@@std@@QAE@AAPAVScyjz14Engine@@@Z 0044a410 f i StartUpState.obj
 0001:000494c0       ??$?0AAPAVScyjz14Engine@@@?$_Ref_count_obj2@VLeaderBoardState@@@std@@QAE@AAPAVScyjz14Engine@@@Z 0044a4c0 f i StartUpState.obj
 0001:00049570       ??$?0AAPAVScyjz14Engine@@AAH_N@?$_Ref_count_obj2@VRunningState@@@std@@QAE@AAPAVScyjz14Engine@@AAH$$QA_N@Z 0044a570 f i StartUpState.obj
 0001:00049640       ??$?0VInstructionState@@$0A@@?$shared_ptr@VState@@@std@@QAE@$$QAV?$shared_ptr@VInstructionState@@@1@@Z 0044a640 f i StartUpState.obj
 0001:00049680       ??$?0VLeaderBoardState@@$0A@@?$shared_ptr@VState@@@std@@QAE@$$QAV?$shared_ptr@VLeaderBoardState@@@1@@Z 0044a680 f i StartUpState.obj
 0001:000496c0       ??$_Construct_in_place@VInstructionState@@AAPAVScyjz14Engine@@@std@@YAXAAVInstructionState@@AAPAVScyjz14Engine@@@Z 0044a6c0 f i StartUpState.obj
 0001:00049720       ??$_Construct_in_place@VLeaderBoardState@@AAPAVScyjz14Engine@@@std@@YAXAAVLeaderBoardState@@AAPAVScyjz14Engine@@@Z 0044a720 f i StartUpState.obj
 0001:00049780       ??$_Construct_in_place@VRunningState@@AAPAVScyjz14Engine@@AAH_N@std@@YAXAAVRunningState@@AAPAVScyjz14Engine@@AAH$$QA_N@Z 0044a780 f i StartUpState.obj
 0001:00049800       ??$_Destroy_in_place@VInstructionState@@@std@@YAXAAVInstructionState@@@Z 0044a800 f i StartUpState.obj
 0001:00049820       ??$_Destroy_in_place@VLeaderBoardState@@@std@@YAXAAVLeaderBoardState@@@Z 0044a820 f i StartUpState.obj
 0001:00049840       ??$_Move_construct_from@VInstructionState@@@?$_Ptr_base@VInstructionState@@@std@@IAEX$$QAV01@@Z 0044a840 f i StartUpState.obj
 0001:00049890       ??$_Move_construct_from@VInstructionState@@@?$_Ptr_base@VState@@@std@@IAEX$$QAV?$_Ptr_base@VInstructionState@@@1@@Z 0044a890 f i StartUpState.obj
 0001:000498e0       ??$_Move_construct_from@VLeaderBoardState@@@?$_Ptr_base@VLeaderBoardState@@@std@@IAEX$$QAV01@@Z 0044a8e0 f i StartUpState.obj
 0001:00049930       ??$_Move_construct_from@VLeaderBoardState@@@?$_Ptr_base@VState@@@std@@IAEX$$QAV?$_Ptr_base@VLeaderBoardState@@@1@@Z 0044a930 f i StartUpState.obj
 0001:00049980       ??$_Set_ptr_rep_and_enable_shared@VInstructionState@@@?$shared_ptr@VInstructionState@@@std@@AAEXQAVInstructionState@@QAV_Ref_count_base@1@@Z 0044a980 f i StartUpState.obj
 0001:000499b0       ??$_Set_ptr_rep_and_enable_shared@VLeaderBoardState@@@?$shared_ptr@VLeaderBoardState@@@std@@AAEXQAVLeaderBoardState@@QAV_Ref_count_base@1@@Z 0044a9b0 f i StartUpState.obj
 0001:000499e0       ??$_Voidify_iter@PAVInstructionState@@@std@@YAPAXPAVInstructionState@@@Z 0044a9e0 f i StartUpState.obj
 0001:000499f0       ??$_Voidify_iter@PAVLeaderBoardState@@@std@@YAPAXPAVLeaderBoardState@@@Z 0044a9f0 f i StartUpState.obj
 0001:00049a00       ??$addressof@VInstructionState@@@std@@YAPAVInstructionState@@AAV1@@Z 0044aa00 f i StartUpState.obj
 0001:00049a10       ??$addressof@VLeaderBoardState@@@std@@YAPAVLeaderBoardState@@AAV1@@Z 0044aa10 f i StartUpState.obj
 0001:00049a20       ??$make_shared@VInstructionState@@AAPAVScyjz14Engine@@@std@@YA?AV?$shared_ptr@VInstructionState@@@0@AAPAVScyjz14Engine@@@Z 0044aa20 f i StartUpState.obj
 0001:00049b20       ??$make_shared@VLeaderBoardState@@AAPAVScyjz14Engine@@@std@@YA?AV?$shared_ptr@VLeaderBoardState@@@0@AAPAVScyjz14Engine@@@Z 0044ab20 f i StartUpState.obj
 0001:00049c20       ??$make_shared@VRunningState@@AAPAVScyjz14Engine@@AAH_N@std@@YA?AV?$shared_ptr@VRunningState@@@0@AAPAVScyjz14Engine@@AAH$$QA_N@Z 0044ac20 f i StartUpState.obj
 0001:00049d40       ??$move@AAV?$shared_ptr@VInstructionState@@@std@@@std@@YA$$QAV?$shared_ptr@VInstructionState@@@0@AAV10@@Z 0044ad40 f i StartUpState.obj
 0001:00049d50       ??$move@AAV?$shared_ptr@VLeaderBoardState@@@std@@@std@@YA$$QAV?$shared_ptr@VLeaderBoardState@@@0@AAV10@@Z 0044ad50 f i StartUpState.obj
 0001:00049d60       ??0?$_Ptr_base@VInstructionState@@@std@@IAE@XZ 0044ad60 f i StartUpState.obj
 0001:00049d90       ??0?$_Ptr_base@VLeaderBoardState@@@std@@IAE@XZ 0044ad90 f i StartUpState.obj
 0001:00049dc0       ??0?$_Vector_val@U?$_Simple_types@UScoreEntry@@@std@@@std@@QAE@XZ 0044adc0 f i StartUpState.obj
 0001:00049e10       ??0?$allocator@UScoreEntry@@@std@@QAE@XZ 0044ae10 f i StartUpState.obj
 0001:00049e30       ??0?$shared_ptr@VInstructionState@@@std@@QAE@$$QAV01@@Z 0044ae30 f i StartUpState.obj
 0001:00049e70       ??0?$shared_ptr@VInstructionState@@@std@@QAE@XZ 0044ae70 f i StartUpState.obj
 0001:00049e90       ??0?$shared_ptr@VLeaderBoardState@@@std@@QAE@$$QAV01@@Z 0044ae90 f i StartUpState.obj
 0001:00049ed0       ??0?$shared_ptr@VLeaderBoardState@@@std@@QAE@XZ 0044aed0 f i StartUpState.obj
 0001:00049ef0       ??0?$vector@UScoreEntry@@V?$allocator@UScoreEntry@@@std@@@std@@QAE@XZ 0044aef0 f i StartUpState.obj
 0001:00049f70       ??0ImagePixelMapping@@QAE@XZ 0044af70 f i StartUpState.obj
 0001:00049f90       ??0ImagePixelMappingFlip@@QAE@W4FlipMode@0@@Z 0044af90 f i StartUpState.obj
 0001:00049fd0       ??0InstructionState@@QAE@PAVScyjz14Engine@@@Z 0044afd0 f i StartUpState.obj
 0001:0004a000       ??0LeaderBoardState@@QAE@PAVScyjz14Engine@@@Z 0044b000 f i StartUpState.obj
 0001:0004a0a0       ??1?$_Ref_count_obj2@VInstructionState@@@std@@UAE@XZ 0044b0a0 f i StartUpState.obj
 0001:0004a0d0       ??1?$_Ref_count_obj2@VLeaderBoardState@@@std@@UAE@XZ 0044b0d0 f i StartUpState.obj
 0001:0004a100       ??1?$shared_ptr@VInstructionState@@@std@@QAE@XZ 0044b100 f i StartUpState.obj
 0001:0004a120       ??1?$shared_ptr@VLeaderBoardState@@@std@@QAE@XZ 0044b120 f i StartUpState.obj
 0001:0004a140       ??_G?$_Ref_count_obj2@VInstructionState@@@std@@UAEPAXI@Z 0044b140 f i StartUpState.obj
 0001:0004a140       ??_E?$_Ref_count_obj2@VInstructionState@@@std@@UAEPAXI@Z 0044b140 f i StartUpState.obj
 0001:0004a180       ??_G?$_Ref_count_obj2@VLeaderBoardState@@@std@@UAEPAXI@Z 0044b180 f i StartUpState.obj
 0001:0004a180       ??_E?$_Ref_count_obj2@VLeaderBoardState@@@std@@UAEPAXI@Z 0044b180 f i StartUpState.obj
 0001:0004a1c0       ?_Decref@?$_Ptr_base@VInstructionState@@@std@@IAEXXZ 0044b1c0 f i StartUpState.obj
 0001:0004a1f0       ?_Decref@?$_Ptr_base@VLeaderBoardState@@@std@@IAEXXZ 0044b1f0 f i StartUpState.obj
 0001:0004a220       ?_Delete_this@?$_Ref_count_obj2@VInstructionState@@@std@@EAEXXZ 0044b220 f i StartUpState.obj
 0001:0004a270       ?_Delete_this@?$_Ref_count_obj2@VLeaderBoardState@@@std@@EAEXXZ 0044b270 f i StartUpState.obj
 0001:0004a2c0       ?_Destroy@?$_Ref_count_obj2@VInstructionState@@@std@@EAEXXZ 0044b2c0 f i StartUpState.obj
 0001:0004a2e0       ?_Destroy@?$_Ref_count_obj2@VLeaderBoardState@@@std@@EAEXXZ 0044b2e0 f i StartUpState.obj
 0001:0004a300       ?mapCoordinates@ImagePixelMappingFlip@@UAE_NAAN0ABVSimpleImage@@@Z 0044b300 f i StartUpState.obj
 0001:0004a340       ?setJumpState@Button@@QAEX_N@Z 0044b340 f i StartUpState.obj
 0001:0004a360       ?copyAllBackgroundBuffer@State@@UAEXXZ 0044b360 f   State.obj
 0001:0004a380       ?getLevelIdentifier@State@@UAEHXZ 0044b380 f   State.obj
 0001:0004a390       ?loadGameState@State@@QAEXABV?$basic_string@DU?$char_traits@D@std@@V?$allocator@D@2@@std@@@Z 0044b390 f   State.obj
 0001:0004a650       ?saveGameState@State@@QAEXABV?$basic_string@DU?$char_traits@D@std@@V?$allocator@D@2@@std@@H@Z 0044b650 f   State.obj
 0001:0004a940       ?determineLevelFromSaveFile@State@@QAEHABV?$basic_string@DU?$char_traits@D@std@@V?$allocator@D@2@@std@@@Z 0044b940 f   State.obj
 0001:0004ac10       ??$?5DU?$char_traits@D@std@@V?$allocator@D@1@@std@@YAAAV?$basic_istream@DU?$char_traits@D@std@@@0@$$QAV10@AAV?$basic_string@DU?$char_traits@D@std@@V?$allocator@D@2@@0@@Z 0044bc10 f i State.obj
 0001:0004af40       ??$?5DU?$char_traits@D@std@@V?$allocator@D@1@@std@@YAAAV?$basic_istream@DU?$char_traits@D@std@@@0@AAV10@AAV?$basic_string@DU?$char_traits@D@std@@V?$allocator@D@2@@0@@Z 0044bf40 f i State.obj
 0001:0004af70       ??$?8DU?$char_traits@D@std@@V?$allocator@D@1@@std@@YA_NABV?$basic_string@DU?$char_traits@D@std@@V?$allocator@D@2@@0@QBD@Z 0044bf70 f i State.obj
 0001:0004af90       ??$_Traits_equal@U?$char_traits@D@std@@@std@@YA_NQBDI0I@Z 0044bf90 f i State.obj
 0001:0004afe0       ??$use_facet@V?$ctype@D@std@@@std@@YAABV?$ctype@D@0@ABVlocale@0@@Z 0044bfe0 f i State.obj
 0001:0004b130       ??0?$basic_ifstream@DU?$char_traits@D@std@@@std@@QAE@ABV?$basic_string@DU?$char_traits@D@std@@V?$allocator@D@2@@1@HH@Z 0044c130 f i State.obj
 0001:0004b1a0       ??0?$basic_ofstream@DU?$char_traits@D@std@@@std@@QAE@ABV?$basic_string@DU?$char_traits@D@std@@V?$allocator@D@2@@1@HH@Z 0044c1a0 f i State.obj
 0001:0004b210       ??0?$basic_ofstream@DU?$char_traits@D@std@@@std@@QAE@PBDHH@Z 0044c210 f i State.obj
 0001:0004b360       ??1?$basic_ofstream@DU?$char_traits@D@std@@@std@@UAE@XZ 0044c360 f i State.obj
 0001:0004b3d0       ??_D?$basic_ofstream@DU?$char_traits@D@std@@@std@@QAEXXZ 0044c3d0 f i State.obj
 0001:0004b3fa       ??_E?$basic_ofstream@DU?$char_traits@D@std@@@std@@$4PPPPPPPM@A@AEPAXI@Z 0044c3fa f i State.obj
 0001:0004b410       ??_G?$basic_ofstream@DU?$char_traits@D@std@@@std@@UAEPAXI@Z 0044c410 f i State.obj
 0001:0004b410       ??_E?$basic_ofstream@DU?$char_traits@D@std@@@std@@UAEPAXI@Z 0044c410 f i State.obj
 0001:0004b460       ?_Equal@?$basic_string@DU?$char_traits@D@std@@V?$allocator@D@2@@std@@QBE_NQBD@Z 0044c460 f i State.obj
 0001:0004b4b0       ?checkIsLive@AgentBaseObject@@QAEXXZ 0044c4b0 f i State.obj
 0001:0004b4e0       ?close@?$basic_ofstream@DU?$char_traits@D@std@@@std@@QAEXXZ 0044c4e0 f i State.obj
 0001:0004b520       ?countAppearedZombies@@YAHPAVScyjz14Engine@@@Z 0044c520 f i State.obj
 0001:0004b5f0       ?countZombies@ObjectIndexes@@SAHXZ 0044c5f0 f i State.obj
 0001:0004b610       ?getLifeValue@AgentBaseObject@@QAEHXZ 0044c610 f i State.obj
 0001:0004b630       ?increaseScore@Scyjz14Engine@@QAEXH@Z 0044c630 f i State.obj
 0001:0004b660       ?setLifeValue@AgentBaseObject@@QAEXH@Z 0044c660 f i State.obj
 0001:0004b680       ?size@?$vector@HV?$allocator@H@std@@@std@@QBEIXZ 0044c680 f i State.obj
 0001:0004b6b0       ?getTextWidth@TextInputField@@QAEHABV?$basic_string@DU?$char_traits@D@std@@V?$allocator@D@2@@std@@@Z 0044c6b0 f   TextInputField.obj
 0001:0004b710       ?virtKeyUp@TextInputField@@UAEXH@Z 0044c710 f   TextInputField.obj
 0001:0004bbf0       ?virtDraw@TextInputField@@UAEXXZ 0044cbf0 f   TextInputField.obj
 0001:0004bd90       ?virtMouseDown@TextInputField@@UAEXHHH@Z 0044cd90 f   TextInputField.obj
 0001:0004bdc0       ?virtMouseUp@TextInputField@@UAEXHHH@Z 0044cdc0 f   TextInputField.obj
 0001:0004bdf0       ?getText@TextInputField@@QBE?AV?$basic_string@DU?$char_traits@D@std@@V?$allocator@D@2@@std@@XZ 0044cdf0 f   TextInputField.obj
 0001:0004c040       ??$?0ABV?$allocator@D@std@@$$V@?$_Compressed_pair@V?$allocator@D@std@@V?$_String_val@U?$_Simple_types@D@std@@@2@$00@std@@QAE@U_One_then_variadic_args_t@1@ABV?$allocator@D@1@@Z 0044d040 f i TextInputField.obj
 0001:0004c070       ??$_Reallocate_grow_by@V<lambda_6607a66f2a10a1261ff9db96cba1015b>@@IID@?$basic_string@DU?$char_traits@D@std@@V?$allocator@D@2@@std@@AAEAAV01@IV<lambda_6607a66f2a10a1261ff9db96cba1015b>@@IID@Z 0044d070 f i TextInputField.obj
 0001:0004c1f0       ??$_Refancy@PAD$0A@@std@@YAPADPAD@Z 0044d1f0 f i TextInputField.obj
 0001:0004c200       ??$_Unfancy@$$CBD@std@@YAPBDPBD@Z 0044d200 f i TextInputField.obj
 0001:0004c210       ??$forward@ABV?$allocator@D@std@@@std@@YAABV?$allocator@D@0@ABV10@@Z 0044d210 f i TextInputField.obj
 0001:0004c220       ??0?$_String_const_iterator@V?$_String_val@U?$_Simple_types@D@std@@@std@@@std@@QAE@$$QAV01@@Z 0044d220 f i TextInputField.obj
 0001:0004c260       ??0?$_String_const_iterator@V?$_String_val@U?$_Simple_types@D@std@@@std@@@std@@QAE@ABV01@@Z 0044d260 f i TextInputField.obj
 0001:0004c2a0       ??0?$_String_const_iterator@V?$_String_val@U?$_Simple_types@D@std@@@std@@@std@@QAE@PBDPBU_Container_base12@1@@Z 0044d2a0 f i TextInputField.obj
 0001:0004c2e0       ??0?$_String_iterator@V?$_String_val@U?$_Simple_types@D@std@@@std@@@std@@QAE@$$QAV01@@Z 0044d2e0 f i TextInputField.obj
 0001:0004c310       ??0?$_String_iterator@V?$_String_val@U?$_Simple_types@D@std@@@std@@@std@@QAE@ABV01@@Z 0044d310 f i TextInputField.obj
 0001:0004c340       ??0?$_String_iterator@V?$_String_val@U?$_Simple_types@D@std@@@std@@@std@@QAE@PBDPBU_Container_base12@1@@Z 0044d340 f i TextInputField.obj
 0001:0004c370       ??0?$basic_string@DU?$char_traits@D@std@@V?$allocator@D@2@@std@@QAE@ABV01@IIABV?$allocator@D@1@@Z 0044d370 f i TextInputField.obj
 0001:0004c460       ??1?$_String_const_iterator@V?$_String_val@U?$_Simple_types@D@std@@@std@@@std@@QAE@XZ 0044d460 f i TextInputField.obj
 0001:0004c480       ??1?$_String_iterator@V?$_String_val@U?$_Simple_types@D@std@@@std@@@std@@QAE@XZ 0044d480 f i TextInputField.obj
 0001:0004c4a0       ??G?$_String_iterator@V?$_String_val@U?$_Simple_types@D@std@@@std@@@std@@QBE?AV01@H@Z 0044d4a0 f i TextInputField.obj
 0001:0004c4f0       ??H?$_String_iterator@V?$_String_val@U?$_Simple_types@D@std@@@std@@@std@@QBE?AV01@H@Z 0044d4f0 f i TextInputField.obj
 0001:0004c540       ??R<lambda_6607a66f2a10a1261ff9db96cba1015b>@@QBE@QADQBDIIID@Z 0044d540 f i TextInputField.obj
 0001:0004c5c0       ??Y?$_String_const_iterator@V?$_String_val@U?$_Simple_types@D@std@@@std@@@std@@QAEAAV01@H@Z 0044d5c0 f i TextInputField.obj
 0001:0004c600       ??Y?$_String_iterator@V?$_String_val@U?$_Simple_types@D@std@@@std@@@std@@QAEAAV01@H@Z 0044d600 f i TextInputField.obj
 0001:0004c630       ??Z?$_String_const_iterator@V?$_String_val@U?$_Simple_types@D@std@@@std@@@std@@QAEAAV01@H@Z 0044d630 f i TextInputField.obj
 0001:0004c660       ??Z?$_String_iterator@V?$_String_val@U?$_Simple_types@D@std@@@std@@@std@@QAEAAV01@H@Z 0044d660 f i TextInputField.obj
